---
triple:          'arm64-apple-darwin'
binary-path:     chat
relocations:
  - { offset: 0x3F, size: 0x8, addend: 0x0, symName: __ZL8opt_6_7B, symObjAddr: 0x145E14, symBinAddr: 0x1000C8A38, symSize: 0x0 }
  - { offset: 0x129, size: 0x8, addend: 0x0, symName: __ZL8opt_1_3B, symObjAddr: 0x145E38, symBinAddr: 0x1000C8A5C, symSize: 0x0 }
  - { offset: 0x142, size: 0x8, addend: 0x0, symName: __ZL8opt_125m, symObjAddr: 0x145E5C, symBinAddr: 0x1000C8A80, symSize: 0x0 }
  - { offset: 0x15B, size: 0x8, addend: 0x0, symName: __ZL8llama_7B, symObjAddr: 0x145E80, symBinAddr: 0x1000C8AA4, symSize: 0x0 }
  - { offset: 0x174, size: 0x8, addend: 0x0, symName: _OPT_rng, symObjAddr: 0x12040, symBinAddr: 0x1000C8000, symSize: 0x0 }
  - { offset: 0x6C36, size: 0x8, addend: 0x0, symName: __ZNSt3__1L19piecewise_constructE, symObjAddr: 0x12D19, symBinAddr: 0x1000BE518, symSize: 0x0 }
  - { offset: 0xD18E, size: 0x8, addend: 0x0, symName: __ZNSt3__124__put_character_sequenceB9nqe220108IcNS_11char_traitsIcEEEERNS_13basic_ostreamIT_T0_EES7_PKS4_m, symObjAddr: 0x8A50, symBinAddr: 0x10000BDFC, symSize: 0x1E4 }
  - { offset: 0xFC48, size: 0x8, addend: 0x0, symName: __ZNSt3__1eqB9nqe220108IcNS_11char_traitsIcEENS_9allocatorIcEEEEbRKNS_12basic_stringIT_T0_T1_EESB_, symObjAddr: 0x49C, symBinAddr: 0x100003848, symSize: 0x90 }
  - { offset: 0xFCAF, size: 0x8, addend: 0x0, symName: __ZNSt3__1lsB9nqe220108INS_11char_traitsIcEEEERNS_13basic_ostreamIcT_EES6_PKc, symObjAddr: 0x18A0, symBinAddr: 0x100004C4C, symSize: 0x48 }
  - { offset: 0xFCF5, size: 0x8, addend: 0x0, symName: __ZNSt3__14endlB9nqe220108IcNS_11char_traitsIcEEEERNS_13basic_ostreamIT_T0_EES7_, symObjAddr: 0x1914, symBinAddr: 0x100004CC0, symSize: 0x54 }
  - { offset: 0xFD35, size: 0x8, addend: 0x0, symName: __ZNSt3__1neB9nqe220108ERKNS_14__map_iteratorINS_15__tree_iteratorINS_12__value_typeINS_12basic_stringIcNS_11char_traitsIcEENS_9allocatorIcEEEEiEEPNS_11__tree_nodeIS9_PvEElEEEESH_, symObjAddr: 0x19D8, symBinAddr: 0x100004D84, symSize: 0x2C }
  - { offset: 0xFD72, size: 0x8, addend: 0x0, symName: __ZNSt3__1lsB9nqe220108IcNS_11char_traitsIcEENS_9allocatorIcEEEERNS_13basic_ostreamIT_T0_EES9_RKNS_12basic_stringIS6_S7_T1_EE, symObjAddr: 0x1A28, symBinAddr: 0x100004DD4, symSize: 0x4C }
  - { offset: 0xFDCA, size: 0x8, addend: 0x0, symName: __ZNSt3__15flushB9nqe220108IcNS_11char_traitsIcEEEERNS_13basic_ostreamIT_T0_EES7_, symObjAddr: 0x1B80, symBinAddr: 0x100004F2C, symSize: 0x28 }
  - { offset: 0x105DD, size: 0x8, addend: 0x0, symName: __ZNSt3__17getlineB9nqe220108IcNS_11char_traitsIcEENS_9allocatorIcEEEERNS_13basic_istreamIT_T0_EES9_RNS_12basic_stringIS6_S7_T1_EE, symObjAddr: 0x1DA4, symBinAddr: 0x100005150, symSize: 0x58 }
  - { offset: 0x10635, size: 0x8, addend: 0x0, symName: __ZNSt3__1plB9nqe220108IcNS_11char_traitsIcEENS_9allocatorIcEEEENS_12basic_stringIT_T0_T1_EEOS9_PKS6_, symObjAddr: 0x1DFC, symBinAddr: 0x1000051A8, symSize: 0x40 }
  - { offset: 0x1990D, size: 0x8, addend: 0x0, symName: __ZNSt3__16fill_nB9nqe220108IPPNS_16__hash_node_baseIPNS_11__hash_nodeINS_17__hash_value_typeIifEEPvEEEEmDnEET_SB_T0_RKT1_, symObjAddr: 0x28BC, symBinAddr: 0x100005C68, symSize: 0x44 }
  - { offset: 0x19970, size: 0x8, addend: 0x0, symName: __ZNSt3__119__libcpp_deallocateB9nqe220108IPNS_16__hash_node_baseIPNS_11__hash_nodeINS_17__hash_value_typeIifEEPvEEEEEEvPNS_15__type_identityIT_E4typeENS_15__element_countEm, symObjAddr: 0x2BF8, symBinAddr: 0x100005FA4, symSize: 0x38 }
  - { offset: 0x199CB, size: 0x8, addend: 0x0, symName: __ZNSt3__117__libcpp_allocateB9nqe220108IPNS_16__hash_node_baseIPNS_11__hash_nodeINS_17__hash_value_typeIifEEPvEEEEEEPT_NS_15__element_countEm, symObjAddr: 0x2CD8, symBinAddr: 0x100006084, symSize: 0x34 }
  - { offset: 0x19A1C, size: 0x8, addend: 0x0, symName: __ZNSt3__18__fill_nB9nqe220108IPPNS_16__hash_node_baseIPNS_11__hash_nodeINS_17__hash_value_typeIifEEPvEEEEmDnTnNS_9enable_ifIXntsr23__specialized_algorithmINS_10_Algorithm8__fill_nENS_17__single_iteratorIT_EEEE15__has_algorithmEiE4typeELi0EEESF_SF_T0_RKT1_, symObjAddr: 0x2D20, symBinAddr: 0x1000060CC, symSize: 0x58 }
  - { offset: 0x19A85, size: 0x8, addend: 0x0, symName: __ZNSt3__121__convert_to_integralB9nqe220108Em, symObjAddr: 0x2D78, symBinAddr: 0x100006124, symSize: 0x14 }
  - { offset: 0x19AB1, size: 0x8, addend: 0x0, symName: __ZNSt3__116__constrain_hashB9nqe220108Emm, symObjAddr: 0x2F58, symBinAddr: 0x100006304, symSize: 0x90 }
  - { offset: 0x19B3C, size: 0x8, addend: 0x0, symName: __ZNSt3__114__construct_atB9nqe220108INS_11__hash_nodeINS_17__hash_value_typeIifEEPvEEJRmRNS_9allocatorIS5_EERNS_4pairIKifEEEPS5_EEPT_SG_DpOT0_, symObjAddr: 0x31EC, symBinAddr: 0x100006598, symSize: 0x48 }
  - { offset: 0x19BB5, size: 0x8, addend: 0x0, symName: __ZNSt3__117__libcpp_allocateB9nqe220108INS_11__hash_nodeINS_17__hash_value_typeIifEEPvEEEEPT_NS_15__element_countEm, symObjAddr: 0x32D8, symBinAddr: 0x100006684, symSize: 0x38 }
  - { offset: 0x19C06, size: 0x8, addend: 0x0, symName: __ZNSt3__112__destroy_atB9nqe220108INS_11__hash_nodeINS_17__hash_value_typeIifEEPvEEEEvPT_, symObjAddr: 0x3690, symBinAddr: 0x100006A3C, symSize: 0x24 }
  - { offset: 0x19C37, size: 0x8, addend: 0x0, symName: __ZNSt3__112__destroy_atB9nqe220108INS_4pairIKifEEEEvPT_, symObjAddr: 0x36E8, symBinAddr: 0x100006A94, symSize: 0x10 }
  - { offset: 0x19C68, size: 0x8, addend: 0x0, symName: __ZNSt3__119__libcpp_deallocateB9nqe220108INS_11__hash_nodeINS_17__hash_value_typeIifEEPvEEEEvPNS_15__type_identityIT_E4typeENS_15__element_countEm, symObjAddr: 0x376C, symBinAddr: 0x100006B18, symSize: 0x3C }
  - { offset: 0x19CC3, size: 0x8, addend: 0x0, symName: __ZNSt3__112__to_addressB9nqe220108INS_11__hash_nodeINS_17__hash_value_typeIifEEPvEEEEPT_S7_, symObjAddr: 0x3A00, symBinAddr: 0x100006DAC, symSize: 0x14 }
  - { offset: 0x19CF8, size: 0x8, addend: 0x0, symName: __ZNSt3__112__to_addressB9nqe220108I21Fp32llamaDecoderLayerEEPT_S3_, symObjAddr: 0x3F74, symBinAddr: 0x100007320, symSize: 0x14 }
  - { offset: 0x19D2D, size: 0x8, addend: 0x0, symName: __ZNSt3__131__annotate_contiguous_containerB9nqe220108INS_9allocatorI21Fp32llamaDecoderLayerEEEEvPKvS5_S5_S5_, symObjAddr: 0x4258, symBinAddr: 0x100007604, symSize: 0x1C }
  - { offset: 0x19D88, size: 0x8, addend: 0x0, symName: __ZNSt3__119__libcpp_deallocateB9nqe220108I21Fp32llamaDecoderLayerEEvPNS_15__type_identityIT_E4typeENS_15__element_countEm, symObjAddr: 0x42A8, symBinAddr: 0x100007654, symSize: 0x3C }
  - { offset: 0x19DE3, size: 0x8, addend: 0x0, symName: __ZNSt3__112__to_addressB9nqe220108I21Int4llamaDecoderLayerEEPT_S3_, symObjAddr: 0x484C, symBinAddr: 0x100007BF8, symSize: 0x14 }
  - { offset: 0x19E18, size: 0x8, addend: 0x0, symName: __ZNSt3__131__annotate_contiguous_containerB9nqe220108INS_9allocatorI21Int4llamaDecoderLayerEEEEvPKvS5_S5_S5_, symObjAddr: 0x4A78, symBinAddr: 0x100007E24, symSize: 0x1C }
  - { offset: 0x19E73, size: 0x8, addend: 0x0, symName: __ZNSt3__119__libcpp_deallocateB9nqe220108I21Int4llamaDecoderLayerEEvPNS_15__type_identityIT_E4typeENS_15__element_countEm, symObjAddr: 0x4AC8, symBinAddr: 0x100007E74, symSize: 0x3C }
  - { offset: 0x19ECE, size: 0x8, addend: 0x0, symName: __ZNSt3__122__make_exception_guardB9nqe220108INS_6vectorI19Int8OPTDecoderLayerNS_9allocatorIS2_EEE16__destroy_vectorEEENS_28__exception_guard_exceptionsIT_EES8_, symObjAddr: 0x5038, symBinAddr: 0x1000083E4, symSize: 0x40 }
  - { offset: 0x19F03, size: 0x8, addend: 0x0, symName: __ZNSt3__119__allocate_at_leastB9nqe220108INS_9allocatorI19Int8OPTDecoderLayerEENS_16allocator_traitsIS3_EEEENS_19__allocation_resultINT0_7pointerENS7_9size_typeEEERT_m, symObjAddr: 0x5304, symBinAddr: 0x1000086B0, symSize: 0x44 }
  - { offset: 0x19F4F, size: 0x8, addend: 0x0, symName: __ZNSt3__13minB9nqe220108ImEERKT_S3_S3_, symObjAddr: 0x53D0, symBinAddr: 0x10000877C, symSize: 0x2C }
  - { offset: 0x1A17C, size: 0x8, addend: 0x0, symName: __ZNSt3__13minB9nqe220108ImNS_6__lessIvvEEEERKT_S5_S5_T0_, symObjAddr: 0x5434, symBinAddr: 0x1000087E0, symSize: 0x54 }
  - { offset: 0x1A24C, size: 0x8, addend: 0x0, symName: __ZNSt3__120__throw_length_errorB9nqe220108EPKc, symObjAddr: 0x54E0, symBinAddr: 0x10000888C, symSize: 0x64 }
  - { offset: 0x1A2C3, size: 0x8, addend: 0x0, symName: __ZNSt3__117__libcpp_allocateB9nqe220108I19Int8OPTDecoderLayerEEPT_NS_15__element_countEm, symObjAddr: 0x5648, symBinAddr: 0x1000089F4, symSize: 0x38 }
  - { offset: 0x1A314, size: 0x8, addend: 0x0, symName: __ZNSt3__131__annotate_contiguous_containerB9nqe220108INS_9allocatorI19Int8OPTDecoderLayerEEEEvPKvS5_S5_S5_, symObjAddr: 0x5770, symBinAddr: 0x100008B1C, symSize: 0x1C }
  - { offset: 0x1A36F, size: 0x8, addend: 0x0, symName: __ZNSt3__112__to_addressB9nqe220108I19Int8OPTDecoderLayerEEPT_S3_, symObjAddr: 0x578C, symBinAddr: 0x100008B38, symSize: 0x14 }
  - { offset: 0x1A3A4, size: 0x8, addend: 0x0, symName: __ZNSt3__130__uninitialized_allocator_copyB9nqe220108INS_9allocatorI19Int8OPTDecoderLayerEEPS2_S4_S4_EET2_RT_T0_T1_S5_, symObjAddr: 0x57DC, symBinAddr: 0x100008B88, symSize: 0x80 }
  - { offset: 0x1A441, size: 0x8, addend: 0x0, symName: __ZNSt3__114__unwrap_rangeB9nqe220108IP19Int8OPTDecoderLayerS2_EENS_4pairIT0_S4_EET_S6_, symObjAddr: 0x5998, symBinAddr: 0x100008D44, symSize: 0x60 }
  - { offset: 0x1A48D, size: 0x8, addend: 0x0, symName: __ZNSt3__135__uninitialized_allocator_copy_implB9nqe220108INS_9allocatorI19Int8OPTDecoderLayerEEPS2_S4_S4_EET2_RT_T0_T1_S5_, symObjAddr: 0x59F8, symBinAddr: 0x100008DA4, symSize: 0xF0 }
  - { offset: 0x1A52B, size: 0x8, addend: 0x0, symName: __ZNSt3__113__unwrap_iterB9nqe220108IP19Int8OPTDecoderLayerNS_18__unwrap_iter_implIS2_Lb1EEETnNS_9enable_ifIXsr21is_copy_constructibleIT_EE5valueEiE4typeELi0EEEDTclsrT0_8__unwrapclsr3stdE7declvalIS6_EEEES6_, symObjAddr: 0x5AE8, symBinAddr: 0x100008E94, symSize: 0x24 }
  - { offset: 0x1A56F, size: 0x8, addend: 0x0, symName: __ZNSt3__113__rewrap_iterB9nqe220108IP19Int8OPTDecoderLayerS2_NS_18__unwrap_iter_implIS2_Lb1EEEEET_S5_T0_, symObjAddr: 0x5B0C, symBinAddr: 0x100008EB8, symSize: 0x3C }
  - { offset: 0x1A5C4, size: 0x8, addend: 0x0, symName: __ZNSt3__19make_pairB9nqe220108IP19Int8OPTDecoderLayerS2_EENS_4pairINS_18__unwrap_referenceIu7__decayIT_EE4typeENS4_Iu7__decayIT0_EE4typeEEEOS5_OS9_, symObjAddr: 0x5B48, symBinAddr: 0x100008EF4, symSize: 0x38 }
  - { offset: 0x1A6F1, size: 0x8, addend: 0x0, symName: __ZNSt3__122__make_exception_guardB9nqe220108INS_29_AllocatorDestroyRangeReverseINS_9allocatorI19Int8OPTDecoderLayerEEPS3_EEEENS_28__exception_guard_exceptionsIT_EES8_, symObjAddr: 0x5BF0, symBinAddr: 0x100008F9C, symSize: 0x4C }
  - { offset: 0x1A727, size: 0x8, addend: 0x0, symName: __ZNSt3__119__allocator_destroyB9nqe220108INS_9allocatorI19Int8OPTDecoderLayerEENS_16reverse_iteratorIPS2_EES6_EEvRT_T0_T1_, symObjAddr: 0x67C4, symBinAddr: 0x100009B70, symSize: 0x70 }
  - { offset: 0x1A786, size: 0x8, addend: 0x0, symName: __ZNSt3__1neB9nqe220108IP19Int8OPTDecoderLayerS2_EEbRKNS_16reverse_iteratorIT_EERKNS3_IT0_EE, symObjAddr: 0x6868, symBinAddr: 0x100009C14, symSize: 0x44 }
  - { offset: 0x1A81A, size: 0x8, addend: 0x0, symName: __ZNSt3__119__libcpp_deallocateB9nqe220108I19Int8OPTDecoderLayerEEvPNS_15__type_identityIT_E4typeENS_15__element_countEm, symObjAddr: 0x6E44, symBinAddr: 0x10000A1F0, symSize: 0x3C }
  - { offset: 0x1A906, size: 0x8, addend: 0x0, symName: __ZNSt3__112__destroy_atB9nqe220108INS_11__hash_nodeINS_17__hash_value_typeINS_12basic_stringIcNS_11char_traitsIcEENS_9allocatorIcEEEES8_EEPvEEEEvPT_, symObjAddr: 0x7384, symBinAddr: 0x10000A730, symSize: 0x24 }
  - { offset: 0x1A937, size: 0x8, addend: 0x0, symName: __ZNSt3__112__to_addressB9nqe220108INS_11__hash_nodeINS_17__hash_value_typeINS_12basic_stringIcNS_11char_traitsIcEENS_9allocatorIcEEEES8_EEPvEEEEPT_SD_, symObjAddr: 0x73A8, symBinAddr: 0x10000A754, symSize: 0x14 }
  - { offset: 0x1A96C, size: 0x8, addend: 0x0, symName: __ZNSt3__112__destroy_atB9nqe220108INS_4pairIKNS_12basic_stringIcNS_11char_traitsIcEENS_9allocatorIcEEEES7_EEEEvPT_, symObjAddr: 0x73F0, symBinAddr: 0x10000A79C, symSize: 0x24 }
  - { offset: 0x1A99D, size: 0x8, addend: 0x0, symName: __ZNSt3__119__libcpp_deallocateB9nqe220108INS_11__hash_nodeINS_17__hash_value_typeINS_12basic_stringIcNS_11char_traitsIcEENS_9allocatorIcEEEES8_EEPvEEEEvPNS_15__type_identityIT_E4typeENS_15__element_countEm, symObjAddr: 0x7488, symBinAddr: 0x10000A834, symSize: 0x38 }
  - { offset: 0x1AA2B, size: 0x8, addend: 0x0, symName: __ZNSt3__119__libcpp_deallocateB9nqe220108IPNS_16__hash_node_baseIPNS_11__hash_nodeINS_17__hash_value_typeINS_12basic_stringIcNS_11char_traitsIcEENS_9allocatorIcEEEES9_EEPvEEEEEEvPNS_15__type_identityIT_E4typeENS_15__element_countEm, symObjAddr: 0x7640, symBinAddr: 0x10000A9EC, symSize: 0x38 }
  - { offset: 0x1AB17, size: 0x8, addend: 0x0, symName: __ZNSt3__112__destroy_atB9nqe220108INS_11__hash_nodeINS_17__hash_value_typeINS_4pairINS_12basic_stringIcNS_11char_traitsIcEENS_9allocatorIcEEEES9_EEiEEPvEEEEvPT_, symObjAddr: 0x788C, symBinAddr: 0x10000AC38, symSize: 0x24 }
  - { offset: 0x1AB48, size: 0x8, addend: 0x0, symName: __ZNSt3__112__to_addressB9nqe220108INS_11__hash_nodeINS_17__hash_value_typeINS_4pairINS_12basic_stringIcNS_11char_traitsIcEENS_9allocatorIcEEEES9_EEiEEPvEEEEPT_SF_, symObjAddr: 0x78B0, symBinAddr: 0x10000AC5C, symSize: 0x14 }
  - { offset: 0x1AB7D, size: 0x8, addend: 0x0, symName: __ZNSt3__112__destroy_atB9nqe220108INS_4pairIKNS1_INS_12basic_stringIcNS_11char_traitsIcEENS_9allocatorIcEEEES7_EEiEEEEvPT_, symObjAddr: 0x78F8, symBinAddr: 0x10000ACA4, symSize: 0x24 }
  - { offset: 0x1ABAE, size: 0x8, addend: 0x0, symName: __ZNSt3__119__libcpp_deallocateB9nqe220108INS_11__hash_nodeINS_17__hash_value_typeINS_4pairINS_12basic_stringIcNS_11char_traitsIcEENS_9allocatorIcEEEES9_EEiEEPvEEEEvPNS_15__type_identityIT_E4typeENS_15__element_countEm, symObjAddr: 0x7A4C, symBinAddr: 0x10000ADF8, symSize: 0x3C }
  - { offset: 0x1AC3C, size: 0x8, addend: 0x0, symName: __ZNSt3__119__libcpp_deallocateB9nqe220108IPNS_16__hash_node_baseIPNS_11__hash_nodeINS_17__hash_value_typeINS_4pairINS_12basic_stringIcNS_11char_traitsIcEENS_9allocatorIcEEEESA_EEiEEPvEEEEEEvPNS_15__type_identityIT_E4typeENS_15__element_countEm, symObjAddr: 0x7C08, symBinAddr: 0x10000AFB4, symSize: 0x38 }
  - { offset: 0x1AD28, size: 0x8, addend: 0x0, symName: __ZNSt3__112__destroy_atB9nqe220108INS_11__hash_nodeINS_17__hash_value_typeINS_12basic_stringIcNS_11char_traitsIcEENS_9allocatorIcEEEEiEEPvEEEEvPT_, symObjAddr: 0x7E54, symBinAddr: 0x10000B200, symSize: 0x24 }
  - { offset: 0x1AD59, size: 0x8, addend: 0x0, symName: __ZNSt3__112__to_addressB9nqe220108INS_11__hash_nodeINS_17__hash_value_typeINS_12basic_stringIcNS_11char_traitsIcEENS_9allocatorIcEEEEiEEPvEEEEPT_SD_, symObjAddr: 0x7E78, symBinAddr: 0x10000B224, symSize: 0x14 }
  - { offset: 0x1AD8E, size: 0x8, addend: 0x0, symName: __ZNSt3__112__destroy_atB9nqe220108INS_4pairIKNS_12basic_stringIcNS_11char_traitsIcEENS_9allocatorIcEEEEiEEEEvPT_, symObjAddr: 0x7EC0, symBinAddr: 0x10000B26C, symSize: 0x24 }
  - { offset: 0x1ADBF, size: 0x8, addend: 0x0, symName: __ZNSt3__119__libcpp_deallocateB9nqe220108INS_11__hash_nodeINS_17__hash_value_typeINS_12basic_stringIcNS_11char_traitsIcEENS_9allocatorIcEEEEiEEPvEEEEvPNS_15__type_identityIT_E4typeENS_15__element_countEm, symObjAddr: 0x7F58, symBinAddr: 0x10000B304, symSize: 0x3C }
  - { offset: 0x1AE4D, size: 0x8, addend: 0x0, symName: __ZNSt3__119__libcpp_deallocateB9nqe220108IPNS_16__hash_node_baseIPNS_11__hash_nodeINS_17__hash_value_typeINS_12basic_stringIcNS_11char_traitsIcEENS_9allocatorIcEEEEiEEPvEEEEEEvPNS_15__type_identityIT_E4typeENS_15__element_countEm, symObjAddr: 0x8114, symBinAddr: 0x10000B4C0, symSize: 0x38 }
  - { offset: 0x1AF39, size: 0x8, addend: 0x0, symName: __ZNSt3__112__destroy_atB9nqe220108INS_11__hash_nodeINS_17__hash_value_typeIiNS_12basic_stringIcNS_11char_traitsIcEENS_9allocatorIcEEEEEEPvEEEEvPT_, symObjAddr: 0x8360, symBinAddr: 0x10000B70C, symSize: 0x24 }
  - { offset: 0x1AF6A, size: 0x8, addend: 0x0, symName: __ZNSt3__112__to_addressB9nqe220108INS_11__hash_nodeINS_17__hash_value_typeIiNS_12basic_stringIcNS_11char_traitsIcEENS_9allocatorIcEEEEEEPvEEEEPT_SD_, symObjAddr: 0x8384, symBinAddr: 0x10000B730, symSize: 0x14 }
  - { offset: 0x1AF9F, size: 0x8, addend: 0x0, symName: __ZNSt3__112__destroy_atB9nqe220108INS_4pairIKiNS_12basic_stringIcNS_11char_traitsIcEENS_9allocatorIcEEEEEEEEvPT_, symObjAddr: 0x83CC, symBinAddr: 0x10000B778, symSize: 0x24 }
  - { offset: 0x1AFD0, size: 0x8, addend: 0x0, symName: __ZNSt3__119__libcpp_deallocateB9nqe220108INS_11__hash_nodeINS_17__hash_value_typeIiNS_12basic_stringIcNS_11char_traitsIcEENS_9allocatorIcEEEEEEPvEEEEvPNS_15__type_identityIT_E4typeENS_15__element_countEm, symObjAddr: 0x84C0, symBinAddr: 0x10000B86C, symSize: 0x3C }
  - { offset: 0x1B05E, size: 0x8, addend: 0x0, symName: __ZNSt3__119__libcpp_deallocateB9nqe220108IPNS_16__hash_node_baseIPNS_11__hash_nodeINS_17__hash_value_typeIiNS_12basic_stringIcNS_11char_traitsIcEENS_9allocatorIcEEEEEEPvEEEEEEvPNS_15__type_identityIT_E4typeENS_15__element_countEm, symObjAddr: 0x867C, symBinAddr: 0x10000BA28, symSize: 0x38 }
  - { offset: 0x1B14A, size: 0x8, addend: 0x0, symName: __ZNSt3__119__libcpp_deallocateB9nqe220108INS_11__tree_nodeINS_12__value_typeIiNS_12basic_stringIcNS_11char_traitsIcEENS_9allocatorIcEEEEEEPvEEEEvPNS_15__type_identityIT_E4typeENS_15__element_countEm, symObjAddr: 0x8948, symBinAddr: 0x10000BCF4, symSize: 0x38 }
  - { offset: 0x1B1D8, size: 0x8, addend: 0x0, symName: __ZNSt3__118__constexpr_strlenB9nqe220108IcEEmPKT_, symObjAddr: 0x8A2C, symBinAddr: 0x10000BDD8, symSize: 0x24 }
  - { offset: 0x1B20D, size: 0x8, addend: 0x0, symName: __ZNSt3__116__pad_and_outputB9nqe220108IcNS_11char_traitsIcEEEENS_19ostreambuf_iteratorIT_T0_EES6_PKS4_S8_S8_RNS_8ios_baseES4_, symObjAddr: 0x8C78, symBinAddr: 0x10000C024, symSize: 0x214 }
  - { offset: 0x1B2D1, size: 0x8, addend: 0x0, symName: __ZNSt3__19use_facetB9nqe220108INS_5ctypeIcEEEERKT_RKNS_6localeE, symObjAddr: 0x9208, symBinAddr: 0x10000C5B4, symSize: 0x2C }
  - { offset: 0x1B7AA, size: 0x8, addend: 0x0, symName: __ZNSt3__112__to_addressB9nqe220108IKcEEPT_S3_, symObjAddr: 0x929C, symBinAddr: 0x10000C648, symSize: 0x14 }
  - { offset: 0x1B812, size: 0x8, addend: 0x0, symName: __ZNSt3__119__libcpp_deallocateB9nqe220108INS_11__tree_nodeINS_12__value_typeINS_12basic_stringIcNS_11char_traitsIcEENS_9allocatorIcEEEEiEEPvEEEEvPNS_15__type_identityIT_E4typeENS_15__element_countEm, symObjAddr: 0x960C, symBinAddr: 0x10000C9B8, symSize: 0x38 }
  - { offset: 0x1B986, size: 0x8, addend: 0x0, symName: __ZNSt3__116forward_as_tupleB9nqe220108IJRKNS_12basic_stringIcNS_11char_traitsIcEENS_9allocatorIcEEEEEEENS_5tupleIJDpOT_EEESC_, symObjAddr: 0x9718, symBinAddr: 0x10000CAC4, symSize: 0x2C }
  - { offset: 0x1B9BF, size: 0x8, addend: 0x0, symName: __ZNSt3__116forward_as_tupleB9nqe220108IJEEENS_5tupleIJDpOT_EEES4_, symObjAddr: 0x9744, symBinAddr: 0x10000CAF0, symSize: 0x4 }
  - { offset: 0x1B9E3, size: 0x8, addend: 0x0, symName: __ZNSt3__120__try_key_extractionB9nqe220108INS_12basic_stringIcNS_11char_traitsIcEENS_9allocatorIcEEEEZNS_6__treeINS_12__value_typeIS6_iEENS_19__map_value_compareIS6_NS_4pairIKS6_iEENS_4lessIS6_EEEENS4_ISD_EEE16__emplace_uniqueB9nqe220108IJRKNS_21piecewise_construct_tENS_5tupleIJRSC_EEENSN_IJEEEEEENSB_INS_15__tree_iteratorIS9_PNS_11__tree_nodeIS9_PvEElEEbEEDpOT_EUlSO_SM_OSP_OSQ_E_ZNSJ_IJSM_SP_SQ_EEESX_S10_EUlSM_S11_S12_E_JSM_SP_SQ_EEEDTclclsr3stdE7declvalIT1_EEspclsr3stdE7declvalIT2_EEEET0_S15_DpOS16_, symObjAddr: 0x9774, symBinAddr: 0x10000CB20, symSize: 0xB4 }
  - { offset: 0x1BA78, size: 0x8, addend: 0x0, symName: __ZNSt3__125__try_key_extraction_implB9nqe220108INS_12basic_stringIcNS_11char_traitsIcEENS_9allocatorIcEEEENS_4pairINS_15__tree_iteratorINS_12__value_typeIS6_iEEPNS_11__tree_nodeISA_PvEElEEbEEZNS_6__treeISA_NS_19__map_value_compareIS6_NS7_IKS6_iEENS_4lessIS6_EEEENS4_ISK_EEE16__emplace_uniqueB9nqe220108IJRKNS_21piecewise_construct_tENS_5tupleIJRSJ_EEENSU_IJEEEEEESG_DpOT_EUlSV_ST_OSW_OSX_E_ZNSQ_IJST_SW_SX_EEESG_S10_EUlST_S11_S12_E_ST_SW_SX_TnNS_9enable_ifIXaaaaaasr7is_sameIu14__remove_constIu20__remove_reference_tIT3_EESR_EE5value12__is_tuple_vIT4_Eeqsr10tuple_sizeIS19_EE5valueLi1Esr7is_sameIu14__remove_constIu20__remove_reference_tINS_13tuple_elementILm0ES19_E4typeEEET_EE5valueEiE4typeELi0EEET0_NS_14__priority_tagILm1EEET1_T2_OS16_OS19_OT5_, symObjAddr: 0x9828, symBinAddr: 0x10000CBD4, symSize: 0xB4 }
  - { offset: 0x1BB27, size: 0x8, addend: 0x0, symName: __ZNSt3__13getB9nqe220108ILm0EJRKNS_12basic_stringIcNS_11char_traitsIcEENS_9allocatorIcEEEEEEERNS_13tuple_elementIXT_ENS_5tupleIJDpT0_EEEE4typeERSD_, symObjAddr: 0x9A00, symBinAddr: 0x10000CDAC, symSize: 0x24 }
  - { offset: 0x1BC7B, size: 0x8, addend: 0x0, symName: __ZNSt3__13getB9nqe220108ILm0EPNS_15__tree_end_nodeIPNS_16__tree_node_baseIPvEEEERS5_EEONS_13tuple_elementIXT_ENS_4pairIT0_T1_EEE4typeEOSD_, symObjAddr: 0x9BB4, symBinAddr: 0x10000CF60, symSize: 0x24 }
  - { offset: 0x1BCC5, size: 0x8, addend: 0x0, symName: __ZNSt3__13getB9nqe220108ILm1EPNS_15__tree_end_nodeIPNS_16__tree_node_baseIPvEEEERS5_EEONS_13tuple_elementIXT_ENS_4pairIT0_T1_EEE4typeEOSD_, symObjAddr: 0x9BD8, symBinAddr: 0x10000CF84, symSize: 0x24 }
  - { offset: 0x1BD0F, size: 0x8, addend: 0x0, symName: __ZNSt3__116__as_transparentB9nqe220108INS_12basic_stringIcNS_11char_traitsIcEENS_9allocatorIcEEEENS_19__map_value_compareIS6_NS_4pairIKS6_iEENS_4lessIS6_EEEETnNS_9enable_ifIXsr7is_sameIT0_NS_18__make_transparentIT_SF_E4typeEEE5valueEiE4typeELi0EEERSF_SM_, symObjAddr: 0x9F04, symBinAddr: 0x10000D2B0, symSize: 0x14 }
  - { offset: 0x1BD53, size: 0x8, addend: 0x0, symName: __ZNSt3__1ltB9nqe220108IcNS_11char_traitsIcEENS_9allocatorIcEEEEbRKNS_12basic_stringIT_T0_T1_EESB_, symObjAddr: 0xA18C, symBinAddr: 0x10000D538, symSize: 0x34 }
  - { offset: 0x1BE43, size: 0x8, addend: 0x0, symName: __ZNSt3__114__construct_atB9nqe220108INS_11__tree_nodeINS_12__value_typeINS_12basic_stringIcNS_11char_traitsIcEENS_9allocatorIcEEEEiEEPvEEJRNS6_ISB_EERKNS_21piecewise_construct_tENS_5tupleIJRKS8_EEENSH_IJEEEEPSB_EEPT_SO_DpOT0_, symObjAddr: 0xA594, symBinAddr: 0x10000D940, symSize: 0x4C }
  - { offset: 0x1BECF, size: 0x8, addend: 0x0, symName: __ZNSt3__117__libcpp_allocateB9nqe220108INS_11__tree_nodeINS_12__value_typeINS_12basic_stringIcNS_11char_traitsIcEENS_9allocatorIcEEEEiEEPvEEEEPT_NS_15__element_countEm, symObjAddr: 0xA684, symBinAddr: 0x10000DA30, symSize: 0x34 }
  - { offset: 0x1BF47, size: 0x8, addend: 0x0, symName: __ZNSt3__127__tree_balance_after_insertB9nqe220108IPNS_16__tree_node_baseIPvEEEEvT_S5_, symObjAddr: 0xA9FC, symBinAddr: 0x10000DDA8, symSize: 0x30C }
  - { offset: 0x1BFC3, size: 0x8, addend: 0x0, symName: __ZNSt3__120__tree_is_left_childB9nqe220108IPNS_16__tree_node_baseIPvEEEEbT_, symObjAddr: 0xAD20, symBinAddr: 0x10000E0CC, symSize: 0x28 }
  - { offset: 0x1BFF8, size: 0x8, addend: 0x0, symName: __ZNSt3__118__tree_left_rotateB9nqe220108IPNS_16__tree_node_baseIPvEEEEvT_, symObjAddr: 0xAD48, symBinAddr: 0x10000E0F4, symSize: 0xD0 }
  - { offset: 0x1C037, size: 0x8, addend: 0x0, symName: __ZNSt3__119__tree_right_rotateB9nqe220108IPNS_16__tree_node_baseIPvEEEEvT_, symObjAddr: 0xAE18, symBinAddr: 0x10000E1C4, symSize: 0xC4 }
  - { offset: 0x1C0AC, size: 0x8, addend: 0x0, symName: __ZNSt3__110__tree_maxB9nqe220108IPNS_16__tree_node_baseIPvEEEET_S5_, symObjAddr: 0xBAA8, symBinAddr: 0x10000EE54, symSize: 0x38 }
  - { offset: 0x1C0E1, size: 0x8, addend: 0x0, symName: __ZNSt3__120__try_key_extractionB9nqe220108INS_12basic_stringIcNS_11char_traitsIcEENS_9allocatorIcEEEEZNS_6__treeINS_12__value_typeIS6_iEENS_19__map_value_compareIS6_NS_4pairIKS6_iEENS_4lessIS6_EEEENS4_ISD_EEE21__insert_range_uniqueB9nqe220108IPKSD_SL_EEvT_T0_EUlRSC_RSK_E_ZNSJ_ISL_SL_EEvSM_SN_EUlSP_E_JSP_EEEDTclclsr3stdE7declvalIT1_EEspclsr3stdE7declvalIT2_EEEESN_SS_DpOST_, symObjAddr: 0xBAE0, symBinAddr: 0x10000EE8C, symSize: 0x54 }
  - { offset: 0x1C14B, size: 0x8, addend: 0x0, symName: __ZNSt3__114__construct_atB9nqe220108INS_11__tree_nodeINS_12__value_typeINS_12basic_stringIcNS_11char_traitsIcEENS_9allocatorIcEEEEiEEPvEEJRNS6_ISB_EERKNS_4pairIKS8_iEEEPSB_EEPT_SL_DpOT0_, symObjAddr: 0xBB34, symBinAddr: 0x10000EEE0, symSize: 0x3C }
  - { offset: 0x1C1B1, size: 0x8, addend: 0x0, symName: __ZNSt3__125__try_key_extraction_implB9nqe220108INS_12basic_stringIcNS_11char_traitsIcEENS_9allocatorIcEEEEvZNS_6__treeINS_12__value_typeIS6_iEENS_19__map_value_compareIS6_NS_4pairIKS6_iEENS_4lessIS6_EEEENS4_ISD_EEE21__insert_range_uniqueB9nqe220108IPKSD_SL_EEvT_T0_EUlRSC_RSK_E_ZNSJ_ISL_SL_EEvSM_SN_EUlSP_E_SP_TnNS_9enable_ifIXaa11__is_pair_vIu14__remove_constIu20__remove_reference_tIT3_EEEsr7is_sameIu14__remove_constINSV_10first_typeEESM_EE5valueEiE4typeELi0EEESN_NS_14__priority_tagILm1EEET1_T2_OST_, symObjAddr: 0xBCD8, symBinAddr: 0x10000F084, symSize: 0x40 }
  - { offset: 0x1C22A, size: 0x8, addend: 0x0, symName: __ZNSt3__120__try_key_extractionB9nqe220108INS_12basic_stringIcNS_11char_traitsIcEENS_9allocatorIcEEEEZNS_6__treeINS_12__value_typeIS6_S6_EENS_19__map_value_compareIS6_NS_4pairIKS6_S6_EENS_4lessIS6_EEEENS4_ISD_EEE21__insert_range_uniqueB9nqe220108IPKSD_SL_EEvT_T0_EUlRSC_RSK_E_ZNSJ_ISL_SL_EEvSM_SN_EUlSP_E_JSP_EEEDTclclsr3stdE7declvalIT1_EEspclsr3stdE7declvalIT2_EEEESN_SS_DpOST_, symObjAddr: 0xC540, symBinAddr: 0x10000F8EC, symSize: 0x54 }
  - { offset: 0x1C2B2, size: 0x8, addend: 0x0, symName: __ZNSt3__114__construct_atB9nqe220108INS_11__tree_nodeINS_12__value_typeINS_12basic_stringIcNS_11char_traitsIcEENS_9allocatorIcEEEES8_EEPvEEJRNS6_ISB_EERKNS_4pairIKS8_S8_EEEPSB_EEPT_SL_DpOT0_, symObjAddr: 0xC67C, symBinAddr: 0x10000FA28, symSize: 0x3C }
  - { offset: 0x1C318, size: 0x8, addend: 0x0, symName: __ZNSt3__117__libcpp_allocateB9nqe220108INS_11__tree_nodeINS_12__value_typeINS_12basic_stringIcNS_11char_traitsIcEENS_9allocatorIcEEEES8_EEPvEEEEPT_NS_15__element_countEm, symObjAddr: 0xC75C, symBinAddr: 0x10000FB08, symSize: 0x38 }
  - { offset: 0x1C369, size: 0x8, addend: 0x0, symName: __ZNSt3__119__libcpp_deallocateB9nqe220108INS_11__tree_nodeINS_12__value_typeINS_12basic_stringIcNS_11char_traitsIcEENS_9allocatorIcEEEES8_EEPvEEEEvPNS_15__type_identityIT_E4typeENS_15__element_countEm, symObjAddr: 0xCBEC, symBinAddr: 0x10000FF98, symSize: 0x3C }
  - { offset: 0x1C3C4, size: 0x8, addend: 0x0, symName: __ZNSt3__125__try_key_extraction_implB9nqe220108INS_12basic_stringIcNS_11char_traitsIcEENS_9allocatorIcEEEEvZNS_6__treeINS_12__value_typeIS6_S6_EENS_19__map_value_compareIS6_NS_4pairIKS6_S6_EENS_4lessIS6_EEEENS4_ISD_EEE21__insert_range_uniqueB9nqe220108IPKSD_SL_EEvT_T0_EUlRSC_RSK_E_ZNSJ_ISL_SL_EEvSM_SN_EUlSP_E_SP_TnNS_9enable_ifIXaa11__is_pair_vIu14__remove_constIu20__remove_reference_tIT3_EEEsr7is_sameIu14__remove_constINSV_10first_typeEESM_EE5valueEiE4typeELi0EEESN_NS_14__priority_tagILm1EEET1_T2_OST_, symObjAddr: 0xCC28, symBinAddr: 0x10000FFD4, symSize: 0x40 }
  - { offset: 0x1C43D, size: 0x8, addend: 0x0, symName: __ZNSt3__116__as_transparentB9nqe220108INS_12basic_stringIcNS_11char_traitsIcEENS_9allocatorIcEEEENS_19__map_value_compareIS6_NS_4pairIKS6_S6_EENS_4lessIS6_EEEETnNS_9enable_ifIXsr7is_sameIT0_NS_18__make_transparentIT_SF_E4typeEEE5valueEiE4typeELi0EEERSF_SM_, symObjAddr: 0xCFF4, symBinAddr: 0x1000103A0, symSize: 0x14 }
  - { offset: 0x1C481, size: 0x8, addend: 0x0, symName: __ZNSt3__1neB9nqe220108ERKNS_15__tree_iteratorINS_12__value_typeINS_12basic_stringIcNS_11char_traitsIcEENS_9allocatorIcEEEEiEEPNS_11__tree_nodeIS8_PvEElEESF_, symObjAddr: 0xD5E4, symBinAddr: 0x100010990, symSize: 0x30 }
  - { offset: 0x1C4BE, size: 0x8, addend: 0x0, symName: __ZNSt3__1eqB9nqe220108ERKNS_15__tree_iteratorINS_12__value_typeINS_12basic_stringIcNS_11char_traitsIcEENS_9allocatorIcEEEEiEEPNS_11__tree_nodeIS8_PvEElEESF_, symObjAddr: 0xD614, symBinAddr: 0x1000109C0, symSize: 0x2C }
  - { offset: 0x1C4FB, size: 0x8, addend: 0x0, symName: __ZNSt3__116__tree_next_iterB9nqe220108IPNS_15__tree_end_nodeIPNS_16__tree_node_baseIPvEEEES5_EET_T0_, symObjAddr: 0xD678, symBinAddr: 0x100010A24, symSize: 0x78 }
  - { offset: 0x1C539, size: 0x8, addend: 0x0, symName: __ZNSt3__110__tree_minB9nqe220108IPNS_16__tree_node_baseIPvEEEET_S5_, symObjAddr: 0xD6F0, symBinAddr: 0x100010A9C, symSize: 0x38 }
  - { offset: 0x1C64C, size: 0x8, addend: 0x0, symName: __ZNSt3__120__try_key_extractionB9nqe220108INS_12basic_stringIcNS_11char_traitsIcEENS_9allocatorIcEEEEZNS_6__treeINS_12__value_typeIS6_S6_EENS_19__map_value_compareIS6_NS_4pairIKS6_S6_EENS_4lessIS6_EEEENS4_ISD_EEE16__emplace_uniqueB9nqe220108IJRKNS_21piecewise_construct_tENS_5tupleIJRSC_EEENSN_IJEEEEEENSB_INS_15__tree_iteratorIS9_PNS_11__tree_nodeIS9_PvEElEEbEEDpOT_EUlSO_SM_OSP_OSQ_E_ZNSJ_IJSM_SP_SQ_EEESX_S10_EUlSM_S11_S12_E_JSM_SP_SQ_EEEDTclclsr3stdE7declvalIT1_EEspclsr3stdE7declvalIT2_EEEET0_S15_DpOS16_, symObjAddr: 0xD828, symBinAddr: 0x100010BD4, symSize: 0xB4 }
  - { offset: 0x1C6E1, size: 0x8, addend: 0x0, symName: __ZNSt3__125__try_key_extraction_implB9nqe220108INS_12basic_stringIcNS_11char_traitsIcEENS_9allocatorIcEEEENS_4pairINS_15__tree_iteratorINS_12__value_typeIS6_S6_EEPNS_11__tree_nodeISA_PvEElEEbEEZNS_6__treeISA_NS_19__map_value_compareIS6_NS7_IKS6_S6_EENS_4lessIS6_EEEENS4_ISK_EEE16__emplace_uniqueB9nqe220108IJRKNS_21piecewise_construct_tENS_5tupleIJRSJ_EEENSU_IJEEEEEESG_DpOT_EUlSV_ST_OSW_OSX_E_ZNSQ_IJST_SW_SX_EEESG_S10_EUlST_S11_S12_E_ST_SW_SX_TnNS_9enable_ifIXaaaaaasr7is_sameIu14__remove_constIu20__remove_reference_tIT3_EESR_EE5value12__is_tuple_vIT4_Eeqsr10tuple_sizeIS19_EE5valueLi1Esr7is_sameIu14__remove_constIu20__remove_reference_tINS_13tuple_elementILm0ES19_E4typeEEET_EE5valueEiE4typeELi0EEET0_NS_14__priority_tagILm1EEET1_T2_OS16_OS19_OT5_, symObjAddr: 0xD8DC, symBinAddr: 0x100010C88, symSize: 0xB4 }
  - { offset: 0x1C790, size: 0x8, addend: 0x0, symName: __ZNSt3__114__construct_atB9nqe220108INS_11__tree_nodeINS_12__value_typeINS_12basic_stringIcNS_11char_traitsIcEENS_9allocatorIcEEEES8_EEPvEEJRNS6_ISB_EERKNS_21piecewise_construct_tENS_5tupleIJRKS8_EEENSH_IJEEEEPSB_EEPT_SO_DpOT0_, symObjAddr: 0xDC28, symBinAddr: 0x100010FD4, symSize: 0x4C }
  - { offset: 0x1C84F, size: 0x8, addend: 0x0, symName: __ZNSt3__17getlineB9nqe220108IcNS_11char_traitsIcEENS_9allocatorIcEEEERNS_13basic_istreamIT_T0_EES9_RNS_12basic_stringIS6_S7_T1_EES6_, symObjAddr: 0xDEF8, symBinAddr: 0x1000112A4, symSize: 0x374 }
  - { offset: 0x1CFA1, size: 0x8, addend: 0x0, symName: __ZNSt3__118__make_scope_guardB9nqe220108IZNS_15basic_streambufIcNS_11char_traitsIcEEE5sgetcB9nqe220108EvEUlvE_EENS_13__scope_guardIT_EES7_, symObjAddr: 0xE9C4, symBinAddr: 0x100011D70, symSize: 0x40 }
  - { offset: 0x1CFD6, size: 0x8, addend: 0x0, symName: __ZNSt3__118__constexpr_memchrB9nqe220108IKccEEPT_S3_T0_m, symObjAddr: 0xEAF4, symBinAddr: 0x100011EA0, symSize: 0x40 }
  - { offset: 0x1D238, size: 0x8, addend: 0x0, symName: __ZNSt3__18distanceB9nqe220108IPKcEENS_15iterator_traitsIT_E15difference_typeES4_S4_, symObjAddr: 0xEB88, symBinAddr: 0x100011F34, symSize: 0x2C }
  - { offset: 0x1D27B, size: 0x8, addend: 0x0, symName: __ZNSt3__112__to_addressB9nqe220108IcEEPT_S2_, symObjAddr: 0xEDC8, symBinAddr: 0x100012174, symSize: 0x14 }
  - { offset: 0x1D2B0, size: 0x8, addend: 0x0, symName: __ZNSt3__110__distanceB9nqe220108IPKcTnNS_9enable_ifIXsr37__has_random_access_iterator_categoryIT_EE5valueEiE4typeELi0EEENS_15iterator_traitsIS4_E15difference_typeES4_S4_, symObjAddr: 0xEEC8, symBinAddr: 0x100012274, symSize: 0x20 }
  - { offset: 0x1D2F9, size: 0x8, addend: 0x0, symName: __ZNSt3__121__is_pointer_in_rangeB9nqe220108IccTnNS_9enable_ifIXsr25__is_less_than_comparableIPKT_PKT0_EE5valueEiE4typeELi0EEEbS4_S4_S7_, symObjAddr: 0xEEE8, symBinAddr: 0x100012294, symSize: 0x68 }
  - { offset: 0x1D359, size: 0x8, addend: 0x0, symName: __ZNSt3__118__make_scope_guardB9nqe220108INS_12basic_stringIcNS_11char_traitsIcEENS_9allocatorIcEEE19__annotate_new_sizeEEENS_13__scope_guardIT_EES9_, symObjAddr: 0xEF80, symBinAddr: 0x10001232C, symSize: 0x40 }
  - { offset: 0x1D38E, size: 0x8, addend: 0x0, symName: __ZNSt3__119__constexpr_memmoveB9nqe220108IcKcEEPT_S3_PT0_NS_15__element_countE, symObjAddr: 0xF144, symBinAddr: 0x1000124F0, symSize: 0x44 }
  - { offset: 0x1D3F6, size: 0x8, addend: 0x0, symName: __ZNSt3__122__make_exception_guardB9nqe220108IZNS_12basic_stringIcNS_11char_traitsIcEENS_9allocatorIcEEE16__init_with_sizeB9nqe220108IPKcS9_EEvT_T0_mEUlvE_EENS_28__exception_guard_exceptionsISA_EESA_, symObjAddr: 0xF37C, symBinAddr: 0x100012728, symSize: 0x40 }
  - { offset: 0x1D42B, size: 0x8, addend: 0x0, symName: __ZNSt3__119__allocate_at_leastB9nqe220108INS_9allocatorIcEENS_16allocator_traitsIS2_EEEENS_19__allocation_resultINT0_7pointerENS6_9size_typeEEERT_m, symObjAddr: 0xF49C, symBinAddr: 0x100012848, symSize: 0x44 }
  - { offset: 0x1D477, size: 0x8, addend: 0x0, symName: __ZNSt3__117__libcpp_allocateB9nqe220108IcEEPT_NS_15__element_countEm, symObjAddr: 0xF608, symBinAddr: 0x1000129B4, symSize: 0x34 }
  - { offset: 0x1D4C8, size: 0x8, addend: 0x0, symName: __ZNSt3__119__libcpp_deallocateB9nqe220108IcEEvPNS_15__type_identityIT_E4typeENS_15__element_countEm, symObjAddr: 0xF92C, symBinAddr: 0x100012CD8, symSize: 0x38 }
  - { offset: 0x1D523, size: 0x8, addend: 0x0, symName: __ZNSt3__118__make_scope_guardB9nqe220108IZNS_15basic_streambufIcNS_11char_traitsIcEEE6sbumpcB9nqe220108EvEUlvE_EENS_13__scope_guardIT_EES7_, symObjAddr: 0xFAB4, symBinAddr: 0x100012E60, symSize: 0x40 }
  - { offset: 0x1D558, size: 0x8, addend: 0x0, symName: __ZNSt3__112__to_addressB9nqe220108IiEEPT_S2_, symObjAddr: 0x1016C, symBinAddr: 0x100013518, symSize: 0x14 }
  - { offset: 0x1D58D, size: 0x8, addend: 0x0, symName: __ZNSt3__131__annotate_contiguous_containerB9nqe220108INS_9allocatorIiEEEEvPKvS4_S4_S4_, symObjAddr: 0x10228, symBinAddr: 0x1000135D4, symSize: 0x1C }
  - { offset: 0x1D5E8, size: 0x8, addend: 0x0, symName: __ZNSt3__119__libcpp_deallocateB9nqe220108IiEEvPNS_15__type_identityIT_E4typeENS_15__element_countEm, symObjAddr: 0x10278, symBinAddr: 0x100013624, symSize: 0x38 }
  - { offset: 0x1D643, size: 0x8, addend: 0x0, symName: __ZNSt3__122__make_exception_guardB9nqe220108INS_6vectorIiNS_9allocatorIiEEE16__destroy_vectorEEENS_28__exception_guard_exceptionsIT_EES7_, symObjAddr: 0x103EC, symBinAddr: 0x100013798, symSize: 0x40 }
  - { offset: 0x1D678, size: 0x8, addend: 0x0, symName: __ZNSt3__119__allocate_at_leastB9nqe220108INS_9allocatorIiEENS_16allocator_traitsIS2_EEEENS_19__allocation_resultINT0_7pointerENS6_9size_typeEEERT_m, symObjAddr: 0x1065C, symBinAddr: 0x100013A08, symSize: 0x44 }
  - { offset: 0x1D713, size: 0x8, addend: 0x0, symName: __ZNSt3__117__libcpp_allocateB9nqe220108IiEEPT_NS_15__element_countEm, symObjAddr: 0x107D8, symBinAddr: 0x100013B84, symSize: 0x34 }
  - { offset: 0x1D764, size: 0x8, addend: 0x0, symName: __ZNSt3__130__uninitialized_allocator_copyB9nqe220108INS_9allocatorIiEEPiS3_S3_EET2_RT_T0_T1_S4_, symObjAddr: 0x10874, symBinAddr: 0x100013C20, symSize: 0x80 }
  - { offset: 0x1D801, size: 0x8, addend: 0x0, symName: __ZNSt3__114__unwrap_rangeB9nqe220108IPiS1_EENS_4pairIT0_S3_EET_S5_, symObjAddr: 0x10A10, symBinAddr: 0x100013DBC, symSize: 0x60 }
  - { offset: 0x1D84D, size: 0x8, addend: 0x0, symName: __ZNSt3__135__uninitialized_allocator_copy_implB9nqe220108INS_9allocatorIiEEiiTnNS_9enable_ifIXaaaaaasr31is_trivially_copy_constructibleIT0_EE5valuesr28is_trivially_copy_assignableIS4_EE5valuesr7is_sameIu14__remove_constIS4_Eu14__remove_constIT1_EEE5value40__allocator_has_trivial_copy_construct_vIT_S4_EEiE4typeELi0EEEPS6_RS8_PS4_SD_SB_, symObjAddr: 0x10A70, symBinAddr: 0x100013E1C, symSize: 0x38 }
  - { offset: 0x1D8C5, size: 0x8, addend: 0x0, symName: __ZNSt3__113__unwrap_iterB9nqe220108IPiNS_18__unwrap_iter_implIS1_Lb1EEETnNS_9enable_ifIXsr21is_copy_constructibleIT_EE5valueEiE4typeELi0EEEDTclsrT0_8__unwrapclsr3stdE7declvalIS5_EEEES5_, symObjAddr: 0x10AA8, symBinAddr: 0x100013E54, symSize: 0x24 }
  - { offset: 0x1D909, size: 0x8, addend: 0x0, symName: __ZNSt3__113__rewrap_iterB9nqe220108IPiS1_NS_18__unwrap_iter_implIS1_Lb1EEEEET_S4_T0_, symObjAddr: 0x10ACC, symBinAddr: 0x100013E78, symSize: 0x3C }
  - { offset: 0x1D95E, size: 0x8, addend: 0x0, symName: __ZNSt3__19make_pairB9nqe220108IPiS1_EENS_4pairINS_18__unwrap_referenceIu7__decayIT_EE4typeENS3_Iu7__decayIT0_EE4typeEEEOS4_OS8_, symObjAddr: 0x10B08, symBinAddr: 0x100013EB4, symSize: 0x38 }
  - { offset: 0x1DABE, size: 0x8, addend: 0x0, symName: __ZNSt3__14copyB9nqe220108IPiS1_EET0_T_S3_S2_, symObjAddr: 0x10BB0, symBinAddr: 0x100013F5C, symSize: 0x40 }
  - { offset: 0x1DB18, size: 0x8, addend: 0x0, symName: __ZNSt3__16__copyB9nqe220108IPiS1_S1_EENS_4pairIT_T1_EES3_T0_S4_, symObjAddr: 0x10BF0, symBinAddr: 0x100013F9C, symSize: 0x44 }
  - { offset: 0x1DB7B, size: 0x8, addend: 0x0, symName: __ZNSt3__124__copy_move_unwrap_itersB9nqe220108INS_11__copy_implEPiS2_S2_TnNS_9enable_ifIXsr12__can_rewrapIT0_T2_EE5valueEiE4typeELi0EEENS_4pairIS4_S5_EES4_T1_S5_, symObjAddr: 0x10C34, symBinAddr: 0x100013FE0, symSize: 0xB4 }
  - { offset: 0x1DC4F, size: 0x8, addend: 0x0, symName: __ZNSt3__114__rewrap_rangeB9nqe220108IPiS1_EET_S2_T0_, symObjAddr: 0x10D30, symBinAddr: 0x1000140DC, symSize: 0x2C }
  - { offset: 0x1DC9B, size: 0x8, addend: 0x0, symName: __ZNSt3__119__copy_trivial_implB9nqe220108IiiEENS_4pairIPT_PT0_EES3_S3_S5_, symObjAddr: 0x10D5C, symBinAddr: 0x100014108, symSize: 0x80 }
  - { offset: 0x1DD03, size: 0x8, addend: 0x0, symName: __ZNSt3__119__constexpr_memmoveB9nqe220108IiiEEPT_S2_PT0_NS_15__element_countE, symObjAddr: 0x10DDC, symBinAddr: 0x100014188, symSize: 0x44 }
  - { offset: 0x1DD6B, size: 0x8, addend: 0x0, symName: __ZNSt3__19make_pairB9nqe220108IRPiS1_EENS_4pairINS_18__unwrap_referenceIu7__decayIT_EE4typeENS4_Iu7__decayIT0_EE4typeEEEOS5_OS9_, symObjAddr: 0x10E20, symBinAddr: 0x1000141CC, symSize: 0x38 }
  - { offset: 0x2391F, size: 0x8, addend: 0x0, symName: __ZSt28__throw_bad_array_new_lengthB9nqe220108v, symObjAddr: 0x2CA4, symBinAddr: 0x100006050, symSize: 0x34 }
  - { offset: 0x23DA6, size: 0x8, addend: 0x0, symName: _model_config, symObjAddr: 0x145EA8, symBinAddr: 0x1000CA1D0, symSize: 0x0 }
  - { offset: 0x241C1, size: 0x8, addend: 0x0, symName: _model_path, symObjAddr: 0x145EC0, symBinAddr: 0x1000CA1E8, symSize: 0x0 }
  - { offset: 0x243DA, size: 0x8, addend: 0x0, symName: _data_format_list, symObjAddr: 0x145ED8, symBinAddr: 0x1000CA200, symSize: 0x0 }
  - { offset: 0x28DD3, size: 0x8, addend: 0x0, symName: __ZNSt3__115basic_streambufIcNS_11char_traitsIcEEE5sgetcB9nqe220108Ev, symObjAddr: 0xE32C, symBinAddr: 0x1000116D8, symSize: 0xF4 }
  - { offset: 0x28E70, size: 0x8, addend: 0x0, symName: __ZNSt3__112basic_stringIcNS_11char_traitsIcEENS_9allocatorIcEEE16__init_with_sizeB9nqe220108IPKcS8_EEvT_T0_m, symObjAddr: 0xF21C, symBinAddr: 0x1000125C8, symSize: 0xA0 }
  - { offset: 0x28F50, size: 0x8, addend: 0x0, symName: __ZNSt3__115basic_streambufIcNS_11char_traitsIcEEE6sbumpcB9nqe220108Ev, symObjAddr: 0xF990, symBinAddr: 0x100012D3C, symSize: 0xFC }
  - { offset: 0x290B1, size: 0x8, addend: 0x0, symName: __ZN12model_configC1Eiiiiiiii, symObjAddr: 0x0, symBinAddr: 0x1000033AC, symSize: 0x78 }
  - { offset: 0x2914B, size: 0x8, addend: 0x0, symName: __ZNSt3__123mersenne_twister_engineIjLm32ELm624ELm397ELm31ELj2567483615ELm11ELj4294967295ELm7ELj2636928640ELm15ELj4022730752ELm18ELj1812433253EEC1B9nqe220108Ev, symObjAddr: 0x78, symBinAddr: 0x100003424, symSize: 0x30 }
  - { offset: 0x29193, size: 0x8, addend: 0x0, symName: '__ZNSt3__14pairIKNS_12basic_stringIcNS_11char_traitsIcEENS_9allocatorIcEEEEiEC1B9nqe220108IRA9_Kc3$_0TnNS_9enable_ifIXclsr25__check_pair_constructionIS7_iEE23__is_pair_constructibleIT_T0_EEEiE4typeELi0EEEOSF_OSG_', symObjAddr: 0xA8, symBinAddr: 0x100003454, symSize: 0x3C }
  - { offset: 0x29209, size: 0x8, addend: 0x0, symName: '__ZNSt3__14pairIKNS_12basic_stringIcNS_11char_traitsIcEENS_9allocatorIcEEEEiEC1B9nqe220108IRA13_Kc3$_0TnNS_9enable_ifIXclsr25__check_pair_constructionIS7_iEE23__is_pair_constructibleIT_T0_EEEiE4typeELi0EEEOSF_OSG_', symObjAddr: 0xE4, symBinAddr: 0x100003490, symSize: 0x3C }
  - { offset: 0x2927F, size: 0x8, addend: 0x0, symName: '__ZNSt3__14pairIKNS_12basic_stringIcNS_11char_traitsIcEENS_9allocatorIcEEEEiEC1B9nqe220108IRA16_Kc3$_0TnNS_9enable_ifIXclsr25__check_pair_constructionIS7_iEE23__is_pair_constructibleIT_T0_EEEiE4typeELi0EEEOSF_OSG_', symObjAddr: 0x120, symBinAddr: 0x1000034CC, symSize: 0x3C }
  - { offset: 0x292DD, size: 0x8, addend: 0x0, symName: __ZNSt3__14pairIKNS_12basic_stringIcNS_11char_traitsIcEENS_9allocatorIcEEEEiED1Ev, symObjAddr: 0x15C, symBinAddr: 0x100003508, symSize: 0x2C }
  - { offset: 0x2930D, size: 0x8, addend: 0x0, symName: __ZNSt3__13mapINS_12basic_stringIcNS_11char_traitsIcEENS_9allocatorIcEEEEiNS_4lessIS6_EENS4_INS_4pairIKS6_iEEEEEC1B9nqe220108ESt16initializer_listISB_ERKS8_, symObjAddr: 0x188, symBinAddr: 0x100003534, symSize: 0x44 }
  - { offset: 0x29355, size: 0x8, addend: 0x0, symName: __ZNSt3__13mapINS_12basic_stringIcNS_11char_traitsIcEENS_9allocatorIcEEEEiNS_4lessIS6_EENS4_INS_4pairIKS6_iEEEEED1B9nqe220108Ev, symObjAddr: 0x1CC, symBinAddr: 0x100003578, symSize: 0x2C }
  - { offset: 0x29383, size: 0x8, addend: 0x0, symName: __ZNSt3__14pairIKNS_12basic_stringIcNS_11char_traitsIcEENS_9allocatorIcEEEES6_EC1B9nqe220108IRA9_KcRA16_SA_TnNS_9enable_ifIXclsr25__check_pair_constructionIS7_S6_EE23__is_pair_constructibleIT_T0_EEEiE4typeELi0EEEOSG_OSH_, symObjAddr: 0x1F8, symBinAddr: 0x1000035A4, symSize: 0x3C }
  - { offset: 0x293F9, size: 0x8, addend: 0x0, symName: __ZNSt3__14pairIKNS_12basic_stringIcNS_11char_traitsIcEENS_9allocatorIcEEEES6_EC1B9nqe220108IRA13_KcRA20_SA_TnNS_9enable_ifIXclsr25__check_pair_constructionIS7_S6_EE23__is_pair_constructibleIT_T0_EEEiE4typeELi0EEEOSG_OSH_, symObjAddr: 0x234, symBinAddr: 0x1000035E0, symSize: 0x3C }
  - { offset: 0x2946F, size: 0x8, addend: 0x0, symName: __ZNSt3__14pairIKNS_12basic_stringIcNS_11char_traitsIcEENS_9allocatorIcEEEES6_EC1B9nqe220108IRA16_KcRA23_SA_TnNS_9enable_ifIXclsr25__check_pair_constructionIS7_S6_EE23__is_pair_constructibleIT_T0_EEEiE4typeELi0EEEOSG_OSH_, symObjAddr: 0x270, symBinAddr: 0x10000361C, symSize: 0x3C }
  - { offset: 0x294CD, size: 0x8, addend: 0x0, symName: __ZNSt3__14pairIKNS_12basic_stringIcNS_11char_traitsIcEENS_9allocatorIcEEEES6_ED1Ev, symObjAddr: 0x2AC, symBinAddr: 0x100003658, symSize: 0x2C }
  - { offset: 0x294FD, size: 0x8, addend: 0x0, symName: __ZNSt3__13mapINS_12basic_stringIcNS_11char_traitsIcEENS_9allocatorIcEEEES6_NS_4lessIS6_EENS4_INS_4pairIKS6_S6_EEEEEC1B9nqe220108ESt16initializer_listISB_ERKS8_, symObjAddr: 0x2D8, symBinAddr: 0x100003684, symSize: 0x44 }
  - { offset: 0x29545, size: 0x8, addend: 0x0, symName: __ZNSt3__13mapINS_12basic_stringIcNS_11char_traitsIcEENS_9allocatorIcEEEES6_NS_4lessIS6_EENS4_INS_4pairIKS6_S6_EEEEED1B9nqe220108Ev, symObjAddr: 0x31C, symBinAddr: 0x1000036C8, symSize: 0x2C }
  - { offset: 0x29591, size: 0x8, addend: 0x0, symName: '__ZNSt3__14pairIKNS_12basic_stringIcNS_11char_traitsIcEENS_9allocatorIcEEEEiEC1B9nqe220108IRA5_Kc3$_1TnNS_9enable_ifIXclsr25__check_pair_constructionIS7_iEE23__is_pair_constructibleIT_T0_EEEiE4typeELi0EEEOSF_OSG_', symObjAddr: 0x348, symBinAddr: 0x1000036F4, symSize: 0x3C }
  - { offset: 0x295EE, size: 0x8, addend: 0x0, symName: __Z9isLLaMA7BNSt3__112basic_stringIcNS_11char_traitsIcEENS_9allocatorIcEEEE, symObjAddr: 0x384, symBinAddr: 0x100003730, symSize: 0xE4 }
  - { offset: 0x2962A, size: 0x8, addend: 0x0, symName: __ZNSt3__112basic_stringIcNS_11char_traitsIcEENS_9allocatorIcEEEC1B9nqe220108ILi0EEEPKc, symObjAddr: 0x468, symBinAddr: 0x100003814, symSize: 0x34 }
  - { offset: 0x29669, size: 0x8, addend: 0x0, symName: __ZNKSt3__112basic_stringIcNS_11char_traitsIcEENS_9allocatorIcEEE6substrB9nqe220108Emm, symObjAddr: 0x52C, symBinAddr: 0x1000038D8, symSize: 0x4C }
  - { offset: 0x296AD, size: 0x8, addend: 0x0, symName: __ZNKSt3__112basic_stringIcNS_11char_traitsIcEENS_9allocatorIcEEE4sizeB9nqe220108Ev, symObjAddr: 0x578, symBinAddr: 0x100003924, symSize: 0x54 }
  - { offset: 0x296D3, size: 0x8, addend: 0x0, symName: _main, symObjAddr: 0x5CC, symBinAddr: 0x100003978, symSize: 0x12A8 }
  - { offset: 0x2993E, size: 0x8, addend: 0x0, symName: __ZNKSt3__13mapINS_12basic_stringIcNS_11char_traitsIcEENS_9allocatorIcEEEEiNS_4lessIS6_EENS4_INS_4pairIKS6_iEEEEE5countB9nqe220108ERSA_, symObjAddr: 0x1874, symBinAddr: 0x100004C20, symSize: 0x2C }
  - { offset: 0x29973, size: 0x8, addend: 0x0, symName: __ZNSt3__113basic_ostreamIcNS_11char_traitsIcEEElsB9nqe220108EPFRS3_S4_E, symObjAddr: 0x18E8, symBinAddr: 0x100004C94, symSize: 0x2C }
  - { offset: 0x299A7, size: 0x8, addend: 0x0, symName: __ZNSt3__13mapINS_12basic_stringIcNS_11char_traitsIcEENS_9allocatorIcEEEEiNS_4lessIS6_EENS4_INS_4pairIKS6_iEEEEE5beginB9nqe220108Ev, symObjAddr: 0x1968, symBinAddr: 0x100004D14, symSize: 0x38 }
  - { offset: 0x299CD, size: 0x8, addend: 0x0, symName: __ZNSt3__13mapINS_12basic_stringIcNS_11char_traitsIcEENS_9allocatorIcEEEEiNS_4lessIS6_EENS4_INS_4pairIKS6_iEEEEE3endB9nqe220108Ev, symObjAddr: 0x19A0, symBinAddr: 0x100004D4C, symSize: 0x38 }
  - { offset: 0x299F3, size: 0x8, addend: 0x0, symName: __ZNKSt3__114__map_iteratorINS_15__tree_iteratorINS_12__value_typeINS_12basic_stringIcNS_11char_traitsIcEENS_9allocatorIcEEEEiEEPNS_11__tree_nodeIS9_PvEElEEEdeB9nqe220108Ev, symObjAddr: 0x1A04, symBinAddr: 0x100004DB0, symSize: 0x24 }
  - { offset: 0x29A19, size: 0x8, addend: 0x0, symName: __ZNSt3__114__map_iteratorINS_15__tree_iteratorINS_12__value_typeINS_12basic_stringIcNS_11char_traitsIcEENS_9allocatorIcEEEEiEEPNS_11__tree_nodeIS9_PvEElEEEppB9nqe220108Ev, symObjAddr: 0x1A74, symBinAddr: 0x100004E20, symSize: 0x2C }
  - { offset: 0x29A3F, size: 0x8, addend: 0x0, symName: __ZNSt3__112basic_stringIcNS_11char_traitsIcEENS_9allocatorIcEEEaSB9nqe220108EPKc, symObjAddr: 0x1AA0, symBinAddr: 0x100004E4C, symSize: 0x2C }
  - { offset: 0x29A74, size: 0x8, addend: 0x0, symName: __ZNSt3__13mapINS_12basic_stringIcNS_11char_traitsIcEENS_9allocatorIcEEEEiNS_4lessIS6_EENS4_INS_4pairIKS6_iEEEEEixERSA_, symObjAddr: 0x1ACC, symBinAddr: 0x100004E78, symSize: 0xB4 }
  - { offset: 0x29AAB, size: 0x8, addend: 0x0, symName: __ZNSt3__13mapINS_12basic_stringIcNS_11char_traitsIcEENS_9allocatorIcEEEES6_NS_4lessIS6_EENS4_INS_4pairIKS6_S6_EEEEEixERSA_, symObjAddr: 0x1BA8, symBinAddr: 0x100004F54, symSize: 0xB4 }
  - { offset: 0x29CA3, size: 0x8, addend: 0x0, symName: __ZN10opt_paramsC1Ev, symObjAddr: 0x1C5C, symBinAddr: 0x100005008, symSize: 0x2C }
  - { offset: 0x29CCF, size: 0x8, addend: 0x0, symName: __ZL20get_opt_model_configi, symObjAddr: 0x1C88, symBinAddr: 0x100005034, symSize: 0xF0 }
  - { offset: 0x29D0C, size: 0x8, addend: 0x0, symName: __ZNSt3__112basic_stringIcNS_11char_traitsIcEENS_9allocatorIcEEEC1B9nqe220108Ev, symObjAddr: 0x1D78, symBinAddr: 0x100005124, symSize: 0x2C }
  - { offset: 0x29D36, size: 0x8, addend: 0x0, symName: __ZNSt3__112basic_stringIcNS_11char_traitsIcEENS_9allocatorIcEEEaSB9nqe220108EOS5_, symObjAddr: 0x1E3C, symBinAddr: 0x1000051E8, symSize: 0x34 }
  - { offset: 0x29D76, size: 0x8, addend: 0x0, symName: __ZN10opt_paramsC1ERKS_, symObjAddr: 0x1E70, symBinAddr: 0x10000521C, symSize: 0x34 }
  - { offset: 0x29DAB, size: 0x8, addend: 0x0, symName: __ZNSt3__16vectorIiNS_9allocatorIiEEED1B9nqe220108Ev, symObjAddr: 0x1EA4, symBinAddr: 0x100005250, symSize: 0x2C }
  - { offset: 0x29DD9, size: 0x8, addend: 0x0, symName: __ZN10opt_paramsD1Ev, symObjAddr: 0x1ED0, symBinAddr: 0x10000527C, symSize: 0x2C }
  - { offset: 0x2A404, size: 0x8, addend: 0x0, symName: __ZN20Fp32LlamaForCausalLMD1Ev, symObjAddr: 0x1EFC, symBinAddr: 0x1000052A8, symSize: 0x2C }
  - { offset: 0x2A764, size: 0x8, addend: 0x0, symName: __ZN20Int4LlamaForCausalLMD1Ev, symObjAddr: 0x1F28, symBinAddr: 0x1000052D4, symSize: 0x2C }
  - { offset: 0x2A794, size: 0x8, addend: 0x0, symName: __ZNSt3__16vectorIiNS_9allocatorIiEEEC1B9nqe220108ERKS3_, symObjAddr: 0x1F54, symBinAddr: 0x100005300, symSize: 0x34 }
  - { offset: 0x2AC9A, size: 0x8, addend: 0x0, symName: __ZN14OPTForCausalLMC1ERKS_, symObjAddr: 0x1F88, symBinAddr: 0x100005334, symSize: 0x34 }
  - { offset: 0x2ACCF, size: 0x8, addend: 0x0, symName: __ZN14OPTForCausalLMD1Ev, symObjAddr: 0x1FBC, symBinAddr: 0x100005368, symSize: 0x2C }
  - { offset: 0x2B6E6, size: 0x8, addend: 0x0, symName: __ZN7EncoderD1Ev, symObjAddr: 0x1FE8, symBinAddr: 0x100005394, symSize: 0x2C }
  - { offset: 0x2B716, size: 0x8, addend: 0x0, symName: __ZN12model_configC2Eiiiiiiii, symObjAddr: 0x2014, symBinAddr: 0x1000053C0, symSize: 0x78 }
  - { offset: 0x2B7B0, size: 0x8, addend: 0x0, symName: __ZNSt3__14pairIKNS_12basic_stringIcNS_11char_traitsIcEENS_9allocatorIcEEEEiED2Ev, symObjAddr: 0x208C, symBinAddr: 0x100005438, symSize: 0x2C }
  - { offset: 0x2B7E0, size: 0x8, addend: 0x0, symName: __ZNSt3__14pairIKNS_12basic_stringIcNS_11char_traitsIcEENS_9allocatorIcEEEES6_ED2Ev, symObjAddr: 0x20B8, symBinAddr: 0x100005464, symSize: 0x38 }
  - { offset: 0x2B810, size: 0x8, addend: 0x0, symName: __ZN10opt_paramsC2Ev, symObjAddr: 0x20F0, symBinAddr: 0x10000549C, symSize: 0xC4 }
  - { offset: 0x2B83C, size: 0x8, addend: 0x0, symName: __ZNSt3__113unordered_mapIifNS_4hashIiEENS_8equal_toIiEENS_9allocatorINS_4pairIKifEEEEEC1B9nqe220108Ev, symObjAddr: 0x21B4, symBinAddr: 0x100005560, symSize: 0x2C }
  - { offset: 0x2B866, size: 0x8, addend: 0x0, symName: __ZNSt3__113unordered_mapIifNS_4hashIiEENS_8equal_toIiEENS_9allocatorINS_4pairIKifEEEEEC2B9nqe220108Ev, symObjAddr: 0x21E0, symBinAddr: 0x10000558C, symSize: 0x2C }
  - { offset: 0x2B890, size: 0x8, addend: 0x0, symName: __ZNSt3__112__hash_tableINS_17__hash_value_typeIifEENS_22__unordered_map_hasherIiNS_4pairIKifEENS_4hashIiEENS_8equal_toIiEEEENS_21__unordered_map_equalIiS6_SA_S8_EENS_9allocatorIS6_EEEC1Ev, symObjAddr: 0x220C, symBinAddr: 0x1000055B8, symSize: 0x2C }
  - { offset: 0x2B8BC, size: 0x8, addend: 0x0, symName: __ZNSt3__112__hash_tableINS_17__hash_value_typeIifEENS_22__unordered_map_hasherIiNS_4pairIKifEENS_4hashIiEENS_8equal_toIiEEEENS_21__unordered_map_equalIiS6_SA_S8_EENS_9allocatorIS6_EEEC2Ev, symObjAddr: 0x2238, symBinAddr: 0x1000055E4, symSize: 0x5C }
  - { offset: 0x2B8E8, size: 0x8, addend: 0x0, symName: __ZNSt3__110unique_ptrIA_PNS_16__hash_node_baseIPNS_11__hash_nodeINS_17__hash_value_typeIifEEPvEEEENS_25__bucket_list_deallocatorINS_9allocatorIS9_EEEEEC1B9nqe220108ILb1EvEEv, symObjAddr: 0x2294, symBinAddr: 0x100005640, symSize: 0x2C }
  - { offset: 0x2B91D, size: 0x8, addend: 0x0, symName: __ZNSt3__116__hash_node_baseIPNS_11__hash_nodeINS_17__hash_value_typeIifEEPvEEEC1B9nqe220108Ev, symObjAddr: 0x22C0, symBinAddr: 0x10000566C, symSize: 0x2C }
  - { offset: 0x2B947, size: 0x8, addend: 0x0, symName: __ZNSt3__122__unordered_map_hasherIiNS_4pairIKifEENS_4hashIiEENS_8equal_toIiEEEC1B9nqe220108Ev, symObjAddr: 0x22EC, symBinAddr: 0x100005698, symSize: 0x2C }
  - { offset: 0x2B971, size: 0x8, addend: 0x0, symName: __ZNSt3__121__unordered_map_equalIiNS_4pairIKifEENS_8equal_toIiEENS_4hashIiEEEC1B9nqe220108Ev, symObjAddr: 0x2318, symBinAddr: 0x1000056C4, symSize: 0x2C }
  - { offset: 0x2B99B, size: 0x8, addend: 0x0, symName: __ZNSt3__110unique_ptrIA_PNS_16__hash_node_baseIPNS_11__hash_nodeINS_17__hash_value_typeIifEEPvEEEENS_25__bucket_list_deallocatorINS_9allocatorIS9_EEEEEC2B9nqe220108ILb1EvEEv, symObjAddr: 0x2344, symBinAddr: 0x1000056F0, symSize: 0x34 }
  - { offset: 0x2B9D0, size: 0x8, addend: 0x0, symName: __ZNSt3__125__bucket_list_deallocatorINS_9allocatorIPNS_16__hash_node_baseIPNS_11__hash_nodeINS_17__hash_value_typeIifEEPvEEEEEEEC1B9nqe220108Ev, symObjAddr: 0x2378, symBinAddr: 0x100005724, symSize: 0x2C }
  - { offset: 0x2B9FA, size: 0x8, addend: 0x0, symName: __ZNSt3__125__bucket_list_deallocatorINS_9allocatorIPNS_16__hash_node_baseIPNS_11__hash_nodeINS_17__hash_value_typeIifEEPvEEEEEEEC2B9nqe220108Ev, symObjAddr: 0x23A4, symBinAddr: 0x100005750, symSize: 0x18 }
  - { offset: 0x2BA24, size: 0x8, addend: 0x0, symName: __ZNSt3__116__hash_node_baseIPNS_11__hash_nodeINS_17__hash_value_typeIifEEPvEEEC2B9nqe220108Ev, symObjAddr: 0x23BC, symBinAddr: 0x100005768, symSize: 0x18 }
  - { offset: 0x2BA4E, size: 0x8, addend: 0x0, symName: __ZNSt3__122__unordered_map_hasherIiNS_4pairIKifEENS_4hashIiEENS_8equal_toIiEEEC2B9nqe220108Ev, symObjAddr: 0x23D4, symBinAddr: 0x100005780, symSize: 0x14 }
  - { offset: 0x2BA78, size: 0x8, addend: 0x0, symName: __ZNSt3__121__unordered_map_equalIiNS_4pairIKifEENS_8equal_toIiEENS_4hashIiEEEC2B9nqe220108Ev, symObjAddr: 0x23E8, symBinAddr: 0x100005794, symSize: 0x14 }
  - { offset: 0x2BAA2, size: 0x8, addend: 0x0, symName: __ZN12model_configC1Ev, symObjAddr: 0x23FC, symBinAddr: 0x1000057A8, symSize: 0x50 }
  - { offset: 0x2BACC, size: 0x8, addend: 0x0, symName: __ZN10opt_paramsC2ERKS_, symObjAddr: 0x244C, symBinAddr: 0x1000057F8, symSize: 0x68 }
  - { offset: 0x2BB01, size: 0x8, addend: 0x0, symName: __ZNSt3__113unordered_mapIifNS_4hashIiEENS_8equal_toIiEENS_9allocatorINS_4pairIKifEEEEEC1B9nqe220108ERKSA_, symObjAddr: 0x24B4, symBinAddr: 0x100005860, symSize: 0x34 }
  - { offset: 0x2BB3A, size: 0x8, addend: 0x0, symName: __ZNSt3__113unordered_mapIifNS_4hashIiEENS_8equal_toIiEENS_9allocatorINS_4pairIKifEEEEEC2B9nqe220108ERKSA_, symObjAddr: 0x24E8, symBinAddr: 0x100005894, symSize: 0x34 }
  - { offset: 0x2BB73, size: 0x8, addend: 0x0, symName: __ZNSt3__112__hash_tableINS_17__hash_value_typeIifEENS_22__unordered_map_hasherIiNS_4pairIKifEENS_4hashIiEENS_8equal_toIiEEEENS_21__unordered_map_equalIiS6_SA_S8_EENS_9allocatorIS6_EEEC1ERKSG_, symObjAddr: 0x251C, symBinAddr: 0x1000058C8, symSize: 0x34 }
  - { offset: 0x2BBAE, size: 0x8, addend: 0x0, symName: __ZNSt3__112__hash_tableINS_17__hash_value_typeIifEENS_22__unordered_map_hasherIiNS_4pairIKifEENS_4hashIiEENS_8equal_toIiEEEENS_21__unordered_map_equalIiS6_SA_S8_EENS_9allocatorIS6_EEEC2ERKSG_, symObjAddr: 0x2550, symBinAddr: 0x1000058FC, symSize: 0x174 }
  - { offset: 0x2BC18, size: 0x8, addend: 0x0, symName: __ZNSt3__116allocator_traitsINS_9allocatorIPNS_16__hash_node_baseIPNS_11__hash_nodeINS_17__hash_value_typeIifEEPvEEEEEEE37select_on_container_copy_constructionB9nqe220108ISB_TnNS_9enable_ifIXnt45__has_select_on_container_copy_construction_vIKT_EEiE4typeELi0EEESB_RKSB_, symObjAddr: 0x26C4, symBinAddr: 0x100005A70, symSize: 0x10 }
  - { offset: 0x2BC4B, size: 0x8, addend: 0x0, symName: __ZNKSt3__110unique_ptrIA_PNS_16__hash_node_baseIPNS_11__hash_nodeINS_17__hash_value_typeIifEEPvEEEENS_25__bucket_list_deallocatorINS_9allocatorIS9_EEEEE11get_deleterB9nqe220108Ev, symObjAddr: 0x26D4, symBinAddr: 0x100005A80, symSize: 0x18 }
  - { offset: 0x2BC71, size: 0x8, addend: 0x0, symName: __ZNKSt3__125__bucket_list_deallocatorINS_9allocatorIPNS_16__hash_node_baseIPNS_11__hash_nodeINS_17__hash_value_typeIifEEPvEEEEEEE7__allocB9nqe220108Ev, symObjAddr: 0x26EC, symBinAddr: 0x100005A98, symSize: 0x14 }
  - { offset: 0x2BC97, size: 0x8, addend: 0x0, symName: __ZNSt3__125__bucket_list_deallocatorINS_9allocatorIPNS_16__hash_node_baseIPNS_11__hash_nodeINS_17__hash_value_typeIifEEPvEEEEEEEC1B9nqe220108ERKSB_m, symObjAddr: 0x2700, symBinAddr: 0x100005AAC, symSize: 0x3C }
  - { offset: 0x2BCDF, size: 0x8, addend: 0x0, symName: __ZNSt3__110unique_ptrIA_PNS_16__hash_node_baseIPNS_11__hash_nodeINS_17__hash_value_typeIifEEPvEEEENS_25__bucket_list_deallocatorINS_9allocatorIS9_EEEEEC1B9nqe220108ILb1EvEEDnNS_16__dependent_typeINS_27__unique_ptr_deleter_sfinaeISE_EEXT_EE20__good_rval_ref_typeE, symObjAddr: 0x273C, symBinAddr: 0x100005AE8, symSize: 0x3C }
  - { offset: 0x2BD39, size: 0x8, addend: 0x0, symName: __ZNSt3__116allocator_traitsINS_9allocatorINS_11__hash_nodeINS_17__hash_value_typeIifEEPvEEEEE37select_on_container_copy_constructionB9nqe220108IS7_TnNS_9enable_ifIXnt45__has_select_on_container_copy_construction_vIKT_EEiE4typeELi0EEES7_RKS7_, symObjAddr: 0x2778, symBinAddr: 0x100005B24, symSize: 0x10 }
  - { offset: 0x2BD6C, size: 0x8, addend: 0x0, symName: __ZNKSt3__112__hash_tableINS_17__hash_value_typeIifEENS_22__unordered_map_hasherIiNS_4pairIKifEENS_4hashIiEENS_8equal_toIiEEEENS_21__unordered_map_equalIiS6_SA_S8_EENS_9allocatorIS6_EEE12__node_allocB9nqe220108Ev, symObjAddr: 0x2788, symBinAddr: 0x100005B34, symSize: 0x18 }
  - { offset: 0x2BD92, size: 0x8, addend: 0x0, symName: __ZNKSt3__112__hash_tableINS_17__hash_value_typeIifEENS_22__unordered_map_hasherIiNS_4pairIKifEENS_4hashIiEENS_8equal_toIiEEEENS_21__unordered_map_equalIiS6_SA_S8_EENS_9allocatorIS6_EEE13hash_functionB9nqe220108Ev, symObjAddr: 0x27A0, symBinAddr: 0x100005B4C, symSize: 0x18 }
  - { offset: 0x2BDB8, size: 0x8, addend: 0x0, symName: __ZNKSt3__112__hash_tableINS_17__hash_value_typeIifEENS_22__unordered_map_hasherIiNS_4pairIKifEENS_4hashIiEENS_8equal_toIiEEEENS_21__unordered_map_equalIiS6_SA_S8_EENS_9allocatorIS6_EEE4sizeB9nqe220108Ev, symObjAddr: 0x27B8, symBinAddr: 0x100005B64, symSize: 0x18 }
  - { offset: 0x2BDDE, size: 0x8, addend: 0x0, symName: __ZNSt3__110unique_ptrIA_PNS_16__hash_node_baseIPNS_11__hash_nodeINS_17__hash_value_typeIifEEPvEEEENS_25__bucket_list_deallocatorINS_9allocatorIS9_EEEEE11get_deleterB9nqe220108Ev, symObjAddr: 0x27D0, symBinAddr: 0x100005B7C, symSize: 0x18 }
  - { offset: 0x2BE04, size: 0x8, addend: 0x0, symName: __ZNKSt3__112__hash_tableINS_17__hash_value_typeIifEENS_22__unordered_map_hasherIiNS_4pairIKifEENS_4hashIiEENS_8equal_toIiEEEENS_21__unordered_map_equalIiS6_SA_S8_EENS_9allocatorIS6_EEE12bucket_countB9nqe220108Ev, symObjAddr: 0x27E8, symBinAddr: 0x100005B94, symSize: 0x28 }
  - { offset: 0x2BE2A, size: 0x8, addend: 0x0, symName: __ZNSt3__110unique_ptrIA_PNS_16__hash_node_baseIPNS_11__hash_nodeINS_17__hash_value_typeIifEEPvEEEENS_25__bucket_list_deallocatorINS_9allocatorIS9_EEEEE5resetB9nqe220108IPS9_TnNS_9enable_ifIXsr28_CheckArrayPointerConversionIT_EE5valueEiE4typeELi0EEEvSJ_, symObjAddr: 0x2810, symBinAddr: 0x100005BBC, symSize: 0x58 }
  - { offset: 0x2BE7D, size: 0x8, addend: 0x0, symName: __ZNSt3__116allocator_traitsINS_9allocatorIPNS_16__hash_node_baseIPNS_11__hash_nodeINS_17__hash_value_typeIifEEPvEEEEEEE8allocateB9nqe220108ERSB_m, symObjAddr: 0x2868, symBinAddr: 0x100005C14, symSize: 0x2C }
  - { offset: 0x2BEB0, size: 0x8, addend: 0x0, symName: __ZNSt3__125__bucket_list_deallocatorINS_9allocatorIPNS_16__hash_node_baseIPNS_11__hash_nodeINS_17__hash_value_typeIifEEPvEEEEEEE7__allocB9nqe220108Ev, symObjAddr: 0x2894, symBinAddr: 0x100005C40, symSize: 0x14 }
  - { offset: 0x2BED6, size: 0x8, addend: 0x0, symName: __ZNSt3__125__bucket_list_deallocatorINS_9allocatorIPNS_16__hash_node_baseIPNS_11__hash_nodeINS_17__hash_value_typeIifEEPvEEEEEEE4sizeB9nqe220108Ev, symObjAddr: 0x28A8, symBinAddr: 0x100005C54, symSize: 0x14 }
  - { offset: 0x2BEFC, size: 0x8, addend: 0x0, symName: __ZNKSt3__110unique_ptrIA_PNS_16__hash_node_baseIPNS_11__hash_nodeINS_17__hash_value_typeIifEEPvEEEENS_25__bucket_list_deallocatorINS_9allocatorIS9_EEEEE3getB9nqe220108Ev, symObjAddr: 0x2900, symBinAddr: 0x100005CAC, symSize: 0x18 }
  - { offset: 0x2BF22, size: 0x8, addend: 0x0, symName: __ZNSt3__112__hash_tableINS_17__hash_value_typeIifEENS_22__unordered_map_hasherIiNS_4pairIKifEENS_4hashIiEENS_8equal_toIiEEEENS_21__unordered_map_equalIiS6_SA_S8_EENS_9allocatorIS6_EEE16__copy_constructB9nqe220108EPNS_16__hash_node_baseIPNS_11__hash_nodeIS2_PvEEEE, symObjAddr: 0x2918, symBinAddr: 0x100005CC4, symSize: 0xFC }
  - { offset: 0x2BF92, size: 0x8, addend: 0x0, symName: __ZNSt3__110unique_ptrIA_PNS_16__hash_node_baseIPNS_11__hash_nodeINS_17__hash_value_typeIifEEPvEEEENS_25__bucket_list_deallocatorINS_9allocatorIS9_EEEEED1B9nqe220108Ev, symObjAddr: 0x2A14, symBinAddr: 0x100005DC0, symSize: 0x2C }
  - { offset: 0x2BFC0, size: 0x8, addend: 0x0, symName: __ZNSt3__125__bucket_list_deallocatorINS_9allocatorIPNS_16__hash_node_baseIPNS_11__hash_nodeINS_17__hash_value_typeIifEEPvEEEEEEEC2B9nqe220108ERKSB_m, symObjAddr: 0x2A40, symBinAddr: 0x100005DEC, symSize: 0x24 }
  - { offset: 0x2C008, size: 0x8, addend: 0x0, symName: __ZNSt3__110unique_ptrIA_PNS_16__hash_node_baseIPNS_11__hash_nodeINS_17__hash_value_typeIifEEPvEEEENS_25__bucket_list_deallocatorINS_9allocatorIS9_EEEEEC2B9nqe220108ILb1EvEEDnNS_16__dependent_typeINS_27__unique_ptr_deleter_sfinaeISE_EEXT_EE20__good_rval_ref_typeE, symObjAddr: 0x2A64, symBinAddr: 0x100005E10, symSize: 0x40 }
  - { offset: 0x2C057, size: 0x8, addend: 0x0, symName: __ZNSt3__125__bucket_list_deallocatorINS_9allocatorIPNS_16__hash_node_baseIPNS_11__hash_nodeINS_17__hash_value_typeIifEEPvEEEEEEEC1B9nqe220108EOSC_, symObjAddr: 0x2AA4, symBinAddr: 0x100005E50, symSize: 0x34 }
  - { offset: 0x2C090, size: 0x8, addend: 0x0, symName: __ZNSt3__125__bucket_list_deallocatorINS_9allocatorIPNS_16__hash_node_baseIPNS_11__hash_nodeINS_17__hash_value_typeIifEEPvEEEEEEEC2B9nqe220108EOSC_, symObjAddr: 0x2AD8, symBinAddr: 0x100005E84, symSize: 0x48 }
  - { offset: 0x2C0C9, size: 0x8, addend: 0x0, symName: __ZNKSt3__125__bucket_list_deallocatorINS_9allocatorIPNS_16__hash_node_baseIPNS_11__hash_nodeINS_17__hash_value_typeIifEEPvEEEEEEE4sizeB9nqe220108Ev, symObjAddr: 0x2B20, symBinAddr: 0x100005ECC, symSize: 0x18 }
  - { offset: 0x2C0EF, size: 0x8, addend: 0x0, symName: __ZNSt3__125__bucket_list_deallocatorINS_9allocatorIPNS_16__hash_node_baseIPNS_11__hash_nodeINS_17__hash_value_typeIifEEPvEEEEEEEclB9nqe220108EPSA_, symObjAddr: 0x2B38, symBinAddr: 0x100005EE4, symSize: 0x58 }
  - { offset: 0x2C124, size: 0x8, addend: 0x0, symName: __ZNSt3__116allocator_traitsINS_9allocatorIPNS_16__hash_node_baseIPNS_11__hash_nodeINS_17__hash_value_typeIifEEPvEEEEEEE10deallocateB9nqe220108ERSB_PSA_m, symObjAddr: 0x2B90, symBinAddr: 0x100005F3C, symSize: 0x34 }
  - { offset: 0x2C166, size: 0x8, addend: 0x0, symName: __ZNSt3__19allocatorIPNS_16__hash_node_baseIPNS_11__hash_nodeINS_17__hash_value_typeIifEEPvEEEEE10deallocateB9nqe220108EPS9_m, symObjAddr: 0x2BC4, symBinAddr: 0x100005F70, symSize: 0x34 }
  - { offset: 0x2C1A8, size: 0x8, addend: 0x0, symName: __ZNSt3__19allocatorIPNS_16__hash_node_baseIPNS_11__hash_nodeINS_17__hash_value_typeIifEEPvEEEEE8allocateB9nqe220108Em, symObjAddr: 0x2C30, symBinAddr: 0x100005FDC, symSize: 0x50 }
  - { offset: 0x2C1DC, size: 0x8, addend: 0x0, symName: __ZNSt3__116allocator_traitsINS_9allocatorIPNS_16__hash_node_baseIPNS_11__hash_nodeINS_17__hash_value_typeIifEEPvEEEEEEE8max_sizeB9nqe220108ISB_TnNS_9enable_ifIX16__has_max_size_vIKT_EEiE4typeELi0EEEmRKSB_, symObjAddr: 0x2C80, symBinAddr: 0x10000602C, symSize: 0x24 }
  - { offset: 0x2C20F, size: 0x8, addend: 0x0, symName: __ZNKSt3__19allocatorIPNS_16__hash_node_baseIPNS_11__hash_nodeINS_17__hash_value_typeIifEEPvEEEEE8max_sizeB9nqe220108Ev, symObjAddr: 0x2D0C, symBinAddr: 0x1000060B8, symSize: 0x14 }
  - { offset: 0x2C235, size: 0x8, addend: 0x0, symName: __ZNSt3__116__hash_node_baseIPNS_11__hash_nodeINS_17__hash_value_typeIifEEPvEEE5__ptrB9nqe220108Ev, symObjAddr: 0x2D8C, symBinAddr: 0x100006138, symSize: 0x24 }
  - { offset: 0x2C25B, size: 0x8, addend: 0x0, symName: __ZNSt3__112__hash_tableINS_17__hash_value_typeIifEENS_22__unordered_map_hasherIiNS_4pairIKifEENS_4hashIiEENS_8equal_toIiEEEENS_21__unordered_map_equalIiS6_SA_S8_EENS_9allocatorIS6_EEE21__construct_node_hashIJRS6_EEENS_10unique_ptrINS_11__hash_nodeIS2_PvEENS_22__hash_node_destructorINSE_ISM_EEEEEEmDpOT_, symObjAddr: 0x2DB0, symBinAddr: 0x10000615C, symSize: 0x104 }
  - { offset: 0x2C2C9, size: 0x8, addend: 0x0, symName: __ZNKSt3__116__hash_node_baseIPNS_11__hash_nodeINS_17__hash_value_typeIifEEPvEEE6__hashB9nqe220108Ev, symObjAddr: 0x2EB4, symBinAddr: 0x100006260, symSize: 0x18 }
  - { offset: 0x2C2EF, size: 0x8, addend: 0x0, symName: __ZNSt3__116__hash_node_baseIPNS_11__hash_nodeINS_17__hash_value_typeIifEEPvEEE8__upcastB9nqe220108Ev, symObjAddr: 0x2ECC, symBinAddr: 0x100006278, symSize: 0x24 }
  - { offset: 0x2C315, size: 0x8, addend: 0x0, symName: __ZNSt3__111__hash_nodeINS_17__hash_value_typeIifEEPvE11__get_valueB9nqe220108Ev, symObjAddr: 0x2EF0, symBinAddr: 0x10000629C, symSize: 0x18 }
  - { offset: 0x2C33B, size: 0x8, addend: 0x0, symName: __ZNSt3__110unique_ptrINS_11__hash_nodeINS_17__hash_value_typeIifEEPvEENS_22__hash_node_destructorINS_9allocatorIS5_EEEEE7releaseB9nqe220108Ev, symObjAddr: 0x2F08, symBinAddr: 0x1000062B4, symSize: 0x24 }
  - { offset: 0x2C370, size: 0x8, addend: 0x0, symName: __ZNSt3__110unique_ptrINS_11__hash_nodeINS_17__hash_value_typeIifEEPvEENS_22__hash_node_destructorINS_9allocatorIS5_EEEEED1B9nqe220108Ev, symObjAddr: 0x2F2C, symBinAddr: 0x1000062D8, symSize: 0x2C }
  - { offset: 0x2C39E, size: 0x8, addend: 0x0, symName: __ZNKSt3__110unique_ptrIA_PNS_16__hash_node_baseIPNS_11__hash_nodeINS_17__hash_value_typeIifEEPvEEEENS_25__bucket_list_deallocatorINS_9allocatorIS9_EEEEEixB9nqe220108Em, symObjAddr: 0x2FE8, symBinAddr: 0x100006394, symSize: 0x24 }
  - { offset: 0x2C3D3, size: 0x8, addend: 0x0, symName: __ZNSt3__112__hash_tableINS_17__hash_value_typeIifEENS_22__unordered_map_hasherIiNS_4pairIKifEENS_4hashIiEENS_8equal_toIiEEEENS_21__unordered_map_equalIiS6_SA_S8_EENS_9allocatorIS6_EEE16__copy_constructB9nqe220108EPNS_16__hash_node_baseIPNS_11__hash_nodeIS2_PvEEEESN_m, symObjAddr: 0x300C, symBinAddr: 0x1000063B8, symSize: 0x10C }
  - { offset: 0x2C45F, size: 0x8, addend: 0x0, symName: __ZNSt3__114pointer_traitsIPNS_16__hash_node_baseIPNS_11__hash_nodeINS_17__hash_value_typeIifEEPvEEEEE10pointer_toB9nqe220108ERS8_, symObjAddr: 0x3118, symBinAddr: 0x1000064C4, symSize: 0x14 }
  - { offset: 0x2C482, size: 0x8, addend: 0x0, symName: __ZNSt3__112__hash_tableINS_17__hash_value_typeIifEENS_22__unordered_map_hasherIiNS_4pairIKifEENS_4hashIiEENS_8equal_toIiEEEENS_21__unordered_map_equalIiS6_SA_S8_EENS_9allocatorIS6_EEE12__node_allocB9nqe220108Ev, symObjAddr: 0x312C, symBinAddr: 0x1000064D8, symSize: 0x18 }
  - { offset: 0x2C4A8, size: 0x8, addend: 0x0, symName: __ZNSt3__116allocator_traitsINS_9allocatorINS_11__hash_nodeINS_17__hash_value_typeIifEEPvEEEEE8allocateB9nqe220108ERS7_m, symObjAddr: 0x3144, symBinAddr: 0x1000064F0, symSize: 0x2C }
  - { offset: 0x2C4DB, size: 0x8, addend: 0x0, symName: __ZNSt3__122__hash_node_destructorINS_9allocatorINS_11__hash_nodeINS_17__hash_value_typeIifEEPvEEEEEC1B9nqe220108ERS7_b, symObjAddr: 0x3170, symBinAddr: 0x10000651C, symSize: 0x40 }
  - { offset: 0x2C529, size: 0x8, addend: 0x0, symName: __ZNSt3__110unique_ptrINS_11__hash_nodeINS_17__hash_value_typeIifEEPvEENS_22__hash_node_destructorINS_9allocatorIS5_EEEEEC1B9nqe220108ILb1EvEEPS5_NS_16__dependent_typeINS_27__unique_ptr_deleter_sfinaeIS9_EEXT_EE20__good_rval_ref_typeE, symObjAddr: 0x31B0, symBinAddr: 0x10000655C, symSize: 0x3C }
  - { offset: 0x2C57A, size: 0x8, addend: 0x0, symName: __ZNKSt3__110unique_ptrINS_11__hash_nodeINS_17__hash_value_typeIifEEPvEENS_22__hash_node_destructorINS_9allocatorIS5_EEEEEdeB9nqe220108Ev, symObjAddr: 0x3234, symBinAddr: 0x1000065E0, symSize: 0x18 }
  - { offset: 0x2C5A0, size: 0x8, addend: 0x0, symName: __ZNSt3__110unique_ptrINS_11__hash_nodeINS_17__hash_value_typeIifEEPvEENS_22__hash_node_destructorINS_9allocatorIS5_EEEEE11get_deleterB9nqe220108Ev, symObjAddr: 0x324C, symBinAddr: 0x1000065F8, symSize: 0x18 }
  - { offset: 0x2C5C6, size: 0x8, addend: 0x0, symName: __ZNSt3__19allocatorINS_11__hash_nodeINS_17__hash_value_typeIifEEPvEEE8allocateB9nqe220108Em, symObjAddr: 0x3264, symBinAddr: 0x100006610, symSize: 0x50 }
  - { offset: 0x2C5FA, size: 0x8, addend: 0x0, symName: __ZNSt3__116allocator_traitsINS_9allocatorINS_11__hash_nodeINS_17__hash_value_typeIifEEPvEEEEE8max_sizeB9nqe220108IS7_TnNS_9enable_ifIX16__has_max_size_vIKT_EEiE4typeELi0EEEmRKS7_, symObjAddr: 0x32B4, symBinAddr: 0x100006660, symSize: 0x24 }
  - { offset: 0x2C62D, size: 0x8, addend: 0x0, symName: __ZNKSt3__19allocatorINS_11__hash_nodeINS_17__hash_value_typeIifEEPvEEE8max_sizeB9nqe220108Ev, symObjAddr: 0x3310, symBinAddr: 0x1000066BC, symSize: 0x18 }
  - { offset: 0x2C653, size: 0x8, addend: 0x0, symName: __ZNSt3__122__hash_node_destructorINS_9allocatorINS_11__hash_nodeINS_17__hash_value_typeIifEEPvEEEEEC2B9nqe220108ERS7_b, symObjAddr: 0x3328, symBinAddr: 0x1000066D4, symSize: 0x30 }
  - { offset: 0x2C69B, size: 0x8, addend: 0x0, symName: __ZNSt3__110unique_ptrINS_11__hash_nodeINS_17__hash_value_typeIifEEPvEENS_22__hash_node_destructorINS_9allocatorIS5_EEEEEC2B9nqe220108ILb1EvEEPS5_NS_16__dependent_typeINS_27__unique_ptr_deleter_sfinaeIS9_EEXT_EE20__good_rval_ref_typeE, symObjAddr: 0x3358, symBinAddr: 0x100006704, symSize: 0x4C }
  - { offset: 0x2C6F1, size: 0x8, addend: 0x0, symName: __ZNSt3__125__compressed_pair_paddingINS_22__hash_node_destructorINS_9allocatorINS_11__hash_nodeINS_17__hash_value_typeIifEEPvEEEEEELb0EEC1Ev, symObjAddr: 0x33A4, symBinAddr: 0x100006750, symSize: 0x2C }
  - { offset: 0x2C71D, size: 0x8, addend: 0x0, symName: __ZNSt3__125__compressed_pair_paddingINS_22__hash_node_destructorINS_9allocatorINS_11__hash_nodeINS_17__hash_value_typeIifEEPvEEEEEELb0EEC2Ev, symObjAddr: 0x33D0, symBinAddr: 0x10000677C, symSize: 0x4C }
  - { offset: 0x2C74F, size: 0x8, addend: 0x0, symName: __ZNSt3__111__hash_nodeINS_17__hash_value_typeIifEEPvEC1B9nqe220108INS_9allocatorIS4_EEJRNS_4pairIKifEEEEEmRT_DpOT0_, symObjAddr: 0x341C, symBinAddr: 0x1000067C8, symSize: 0x44 }
  - { offset: 0x2C7B7, size: 0x8, addend: 0x0, symName: __ZNSt3__111__hash_nodeINS_17__hash_value_typeIifEEPvEC2B9nqe220108INS_9allocatorIS4_EEJRNS_4pairIKifEEEEEmRT_DpOT0_, symObjAddr: 0x3460, symBinAddr: 0x10000680C, symSize: 0x64 }
  - { offset: 0x2C81F, size: 0x8, addend: 0x0, symName: __ZNSt3__116__hash_node_baseIPNS_11__hash_nodeINS_17__hash_value_typeIifEEPvEEEC2B9nqe220108EPS7_, symObjAddr: 0x34C4, symBinAddr: 0x100006870, symSize: 0x20 }
  - { offset: 0x2C857, size: 0x8, addend: 0x0, symName: __ZNSt3__116allocator_traitsINS_9allocatorINS_11__hash_nodeINS_17__hash_value_typeIifEEPvEEEEE9constructB9nqe220108INS_4pairIKifEEJRSC_ETnNS_9enable_ifIX17__has_construct_vIS7_PT_DpT0_EEiE4typeELi0EEEvRS7_SG_DpOSH_, symObjAddr: 0x34E4, symBinAddr: 0x100006890, symSize: 0x34 }
  - { offset: 0x2C8B3, size: 0x8, addend: 0x0, symName: __ZNSt3__19allocatorINS_11__hash_nodeINS_17__hash_value_typeIifEEPvEEE9constructB9nqe220108INS_4pairIKifEEJRSA_EEEvPT_DpOT0_, symObjAddr: 0x3518, symBinAddr: 0x1000068C4, symSize: 0x28 }
  - { offset: 0x2C909, size: 0x8, addend: 0x0, symName: __ZNSt3__110unique_ptrINS_11__hash_nodeINS_17__hash_value_typeIifEEPvEENS_22__hash_node_destructorINS_9allocatorIS5_EEEEED2B9nqe220108Ev, symObjAddr: 0x3540, symBinAddr: 0x1000068EC, symSize: 0x30 }
  - { offset: 0x2C937, size: 0x8, addend: 0x0, symName: __ZNSt3__110unique_ptrINS_11__hash_nodeINS_17__hash_value_typeIifEEPvEENS_22__hash_node_destructorINS_9allocatorIS5_EEEEE5resetB9nqe220108EPS5_, symObjAddr: 0x3570, symBinAddr: 0x10000691C, symSize: 0x58 }
  - { offset: 0x2C97B, size: 0x8, addend: 0x0, symName: __ZNSt3__122__hash_node_destructorINS_9allocatorINS_11__hash_nodeINS_17__hash_value_typeIifEEPvEEEEEclB9nqe220108EPS6_, symObjAddr: 0x35C8, symBinAddr: 0x100006974, symSize: 0x90 }
  - { offset: 0x2C9B0, size: 0x8, addend: 0x0, symName: __ZNSt3__116allocator_traitsINS_9allocatorINS_11__hash_nodeINS_17__hash_value_typeIifEEPvEEEEE7destroyB9nqe220108INS_4pairIKifEETnNS_9enable_ifIXnt15__has_destroy_vIS7_PT_EEiE4typeELi0EEEvRS7_SF_, symObjAddr: 0x3658, symBinAddr: 0x100006A04, symSize: 0x28 }
  - { offset: 0x2C9EE, size: 0x8, addend: 0x0, symName: __ZNSt3__116allocator_traitsINS_9allocatorINS_11__hash_nodeINS_17__hash_value_typeIifEEPvEEEEE10deallocateB9nqe220108ERS7_PS6_m, symObjAddr: 0x36B4, symBinAddr: 0x100006A60, symSize: 0x34 }
  - { offset: 0x2CA30, size: 0x8, addend: 0x0, symName: __ZNSt3__111__hash_nodeINS_17__hash_value_typeIifEEPvED1B9nqe220108Ev, symObjAddr: 0x36F8, symBinAddr: 0x100006AA4, symSize: 0x2C }
  - { offset: 0x2CA5E, size: 0x8, addend: 0x0, symName: __ZNSt3__111__hash_nodeINS_17__hash_value_typeIifEEPvED2B9nqe220108Ev, symObjAddr: 0x3724, symBinAddr: 0x100006AD0, symSize: 0x14 }
  - { offset: 0x2CA8C, size: 0x8, addend: 0x0, symName: __ZNSt3__19allocatorINS_11__hash_nodeINS_17__hash_value_typeIifEEPvEEE10deallocateB9nqe220108EPS5_m, symObjAddr: 0x3738, symBinAddr: 0x100006AE4, symSize: 0x34 }
  - { offset: 0x2CACE, size: 0x8, addend: 0x0, symName: __ZNKSt3__110unique_ptrINS_11__hash_nodeINS_17__hash_value_typeIifEEPvEENS_22__hash_node_destructorINS_9allocatorIS5_EEEEEptB9nqe220108Ev, symObjAddr: 0x37A8, symBinAddr: 0x100006B54, symSize: 0x18 }
  - { offset: 0x2CAF4, size: 0x8, addend: 0x0, symName: __ZNSt3__110unique_ptrIA_PNS_16__hash_node_baseIPNS_11__hash_nodeINS_17__hash_value_typeIifEEPvEEEENS_25__bucket_list_deallocatorINS_9allocatorIS9_EEEEED2B9nqe220108Ev, symObjAddr: 0x37C0, symBinAddr: 0x100006B6C, symSize: 0x30 }
  - { offset: 0x2CB22, size: 0x8, addend: 0x0, symName: __ZNSt3__110unique_ptrIA_PNS_16__hash_node_baseIPNS_11__hash_nodeINS_17__hash_value_typeIifEEPvEEEENS_25__bucket_list_deallocatorINS_9allocatorIS9_EEEEE5resetB9nqe220108EDn, symObjAddr: 0x37F0, symBinAddr: 0x100006B9C, symSize: 0x54 }
  - { offset: 0x2CB62, size: 0x8, addend: 0x0, symName: __ZN10opt_paramsD2Ev, symObjAddr: 0x3844, symBinAddr: 0x100006BF0, symSize: 0x30 }
  - { offset: 0x2CB92, size: 0x8, addend: 0x0, symName: __ZNSt3__113unordered_mapIifNS_4hashIiEENS_8equal_toIiEENS_9allocatorINS_4pairIKifEEEEED1B9nqe220108Ev, symObjAddr: 0x3874, symBinAddr: 0x100006C20, symSize: 0x2C }
  - { offset: 0x2CBC0, size: 0x8, addend: 0x0, symName: __ZNSt3__113unordered_mapIifNS_4hashIiEENS_8equal_toIiEENS_9allocatorINS_4pairIKifEEEEED2B9nqe220108Ev, symObjAddr: 0x38A0, symBinAddr: 0x100006C4C, symSize: 0x2C }
  - { offset: 0x2CBEE, size: 0x8, addend: 0x0, symName: __ZNSt3__112__hash_tableINS_17__hash_value_typeIifEENS_22__unordered_map_hasherIiNS_4pairIKifEENS_4hashIiEENS_8equal_toIiEEEENS_21__unordered_map_equalIiS6_SA_S8_EENS_9allocatorIS6_EEED1Ev, symObjAddr: 0x38CC, symBinAddr: 0x100006C78, symSize: 0x2C }
  - { offset: 0x2CC1E, size: 0x8, addend: 0x0, symName: __ZNSt3__112__hash_tableINS_17__hash_value_typeIifEENS_22__unordered_map_hasherIiNS_4pairIKifEENS_4hashIiEENS_8equal_toIiEEEENS_21__unordered_map_equalIiS6_SA_S8_EENS_9allocatorIS6_EEED2Ev, symObjAddr: 0x38F8, symBinAddr: 0x100006CA4, symSize: 0x38 }
  - { offset: 0x2CC4E, size: 0x8, addend: 0x0, symName: __ZNSt3__112__hash_tableINS_17__hash_value_typeIifEENS_22__unordered_map_hasherIiNS_4pairIKifEENS_4hashIiEENS_8equal_toIiEEEENS_21__unordered_map_equalIiS6_SA_S8_EENS_9allocatorIS6_EEE22__deallocate_node_listB9nqe220108EPNS_16__hash_node_baseIPNS_11__hash_nodeIS2_PvEEEE, symObjAddr: 0x3930, symBinAddr: 0x100006CDC, symSize: 0x64 }
  - { offset: 0x2CCA0, size: 0x8, addend: 0x0, symName: __ZNSt3__112__hash_tableINS_17__hash_value_typeIifEENS_22__unordered_map_hasherIiNS_4pairIKifEENS_4hashIiEENS_8equal_toIiEEEENS_21__unordered_map_equalIiS6_SA_S8_EENS_9allocatorIS6_EEE17__deallocate_nodeB9nqe220108EPNS_11__hash_nodeIS2_PvEE, symObjAddr: 0x3994, symBinAddr: 0x100006D40, symSize: 0x6C }
  - { offset: 0x2CCE4, size: 0x8, addend: 0x0, symName: __ZN20Fp32LlamaForCausalLMD2Ev, symObjAddr: 0x3A14, symBinAddr: 0x100006DC0, symSize: 0x44 }
  - { offset: 0x2CD14, size: 0x8, addend: 0x0, symName: __ZN9Linear_FPD1Ev, symObjAddr: 0x3A58, symBinAddr: 0x100006E04, symSize: 0x2C }
  - { offset: 0x2CD44, size: 0x8, addend: 0x0, symName: __ZN16Fp32llamaDecoderD1Ev, symObjAddr: 0x3A84, symBinAddr: 0x100006E30, symSize: 0x2C }
  - { offset: 0x2CD74, size: 0x8, addend: 0x0, symName: __ZN9Linear_FPD2Ev, symObjAddr: 0x3AB0, symBinAddr: 0x100006E5C, symSize: 0x30 }
  - { offset: 0x2CDA4, size: 0x8, addend: 0x0, symName: __ZN16Fp32llamaDecoderD2Ev, symObjAddr: 0x3AE0, symBinAddr: 0x100006E8C, symSize: 0x50 }
  - { offset: 0x2CDD4, size: 0x8, addend: 0x0, symName: __ZNSt3__16vectorI21Fp32llamaDecoderLayerNS_9allocatorIS1_EEED1B9nqe220108Ev, symObjAddr: 0x3B30, symBinAddr: 0x100006EDC, symSize: 0x2C }
  - { offset: 0x2CE02, size: 0x8, addend: 0x0, symName: __ZN12LlamaRMSNormD1Ev, symObjAddr: 0x3B5C, symBinAddr: 0x100006F08, symSize: 0x2C }
  - { offset: 0x2CE32, size: 0x8, addend: 0x0, symName: __ZN9EmbeddingD1Ev, symObjAddr: 0x3B88, symBinAddr: 0x100006F34, symSize: 0x2C }
  - { offset: 0x2CE62, size: 0x8, addend: 0x0, symName: __ZNSt3__16vectorI21Fp32llamaDecoderLayerNS_9allocatorIS1_EEED2B9nqe220108Ev, symObjAddr: 0x3BB4, symBinAddr: 0x100006F60, symSize: 0x44 }
  - { offset: 0x2CE90, size: 0x8, addend: 0x0, symName: __ZNSt3__16vectorI21Fp32llamaDecoderLayerNS_9allocatorIS1_EEE16__destroy_vectorC1B9nqe220108ERS4_, symObjAddr: 0x3BF8, symBinAddr: 0x100006FA4, symSize: 0x34 }
  - { offset: 0x2CEC8, size: 0x8, addend: 0x0, symName: __ZNSt3__16vectorI21Fp32llamaDecoderLayerNS_9allocatorIS1_EEE16__destroy_vectorclB9nqe220108Ev, symObjAddr: 0x3C2C, symBinAddr: 0x100006FD8, symSize: 0x84 }
  - { offset: 0x2CEEE, size: 0x8, addend: 0x0, symName: __ZNSt3__16vectorI21Fp32llamaDecoderLayerNS_9allocatorIS1_EEE16__destroy_vectorC2B9nqe220108ERS4_, symObjAddr: 0x3CB0, symBinAddr: 0x10000705C, symSize: 0x20 }
  - { offset: 0x2CF26, size: 0x8, addend: 0x0, symName: __ZNSt3__16vectorI21Fp32llamaDecoderLayerNS_9allocatorIS1_EEE5clearB9nqe220108Ev, symObjAddr: 0x3CD0, symBinAddr: 0x10000707C, symSize: 0x48 }
  - { offset: 0x2CF5B, size: 0x8, addend: 0x0, symName: __ZNKSt3__16vectorI21Fp32llamaDecoderLayerNS_9allocatorIS1_EEE17__annotate_deleteB9nqe220108Ev, symObjAddr: 0x3D18, symBinAddr: 0x1000070C4, symSize: 0x94 }
  - { offset: 0x2CF81, size: 0x8, addend: 0x0, symName: __ZNSt3__116allocator_traitsINS_9allocatorI21Fp32llamaDecoderLayerEEE10deallocateB9nqe220108ERS3_PS2_m, symObjAddr: 0x3DAC, symBinAddr: 0x100007158, symSize: 0x34 }
  - { offset: 0x2CFC3, size: 0x8, addend: 0x0, symName: __ZNKSt3__16vectorI21Fp32llamaDecoderLayerNS_9allocatorIS1_EEE8capacityB9nqe220108Ev, symObjAddr: 0x3DE0, symBinAddr: 0x10000718C, symSize: 0x28 }
  - { offset: 0x2CFE9, size: 0x8, addend: 0x0, symName: __ZNKSt3__16vectorI21Fp32llamaDecoderLayerNS_9allocatorIS1_EEE4sizeB9nqe220108Ev, symObjAddr: 0x3E08, symBinAddr: 0x1000071B4, symSize: 0x28 }
  - { offset: 0x2D00F, size: 0x8, addend: 0x0, symName: __ZNSt3__16vectorI21Fp32llamaDecoderLayerNS_9allocatorIS1_EEE22__base_destruct_at_endB9nqe220108EPS1_, symObjAddr: 0x3E30, symBinAddr: 0x1000071DC, symSize: 0x88 }
  - { offset: 0x2D053, size: 0x8, addend: 0x0, symName: __ZNKSt3__16vectorI21Fp32llamaDecoderLayerNS_9allocatorIS1_EEE17__annotate_shrinkB9nqe220108Em, symObjAddr: 0x3EB8, symBinAddr: 0x100007264, symSize: 0x90 }
  - { offset: 0x2D088, size: 0x8, addend: 0x0, symName: __ZNSt3__116allocator_traitsINS_9allocatorI21Fp32llamaDecoderLayerEEE7destroyB9nqe220108IS2_TnNS_9enable_ifIX15__has_destroy_vIS3_PT_EEiE4typeELi0EEEvRS3_S8_, symObjAddr: 0x3F48, symBinAddr: 0x1000072F4, symSize: 0x2C }
  - { offset: 0x2D0CA, size: 0x8, addend: 0x0, symName: __ZNSt3__19allocatorI21Fp32llamaDecoderLayerE7destroyB9nqe220108EPS1_, symObjAddr: 0x3F88, symBinAddr: 0x100007334, symSize: 0x28 }
  - { offset: 0x2D0FE, size: 0x8, addend: 0x0, symName: __ZN21Fp32llamaDecoderLayerD1Ev, symObjAddr: 0x3FB0, symBinAddr: 0x10000735C, symSize: 0x2C }
  - { offset: 0x2D12E, size: 0x8, addend: 0x0, symName: __ZN21Fp32llamaDecoderLayerD2Ev, symObjAddr: 0x3FDC, symBinAddr: 0x100007388, symSize: 0x78 }
  - { offset: 0x2D15E, size: 0x8, addend: 0x0, symName: __ZN18Fp32llamaAttentionD1Ev, symObjAddr: 0x4054, symBinAddr: 0x100007400, symSize: 0x2C }
  - { offset: 0x2D18E, size: 0x8, addend: 0x0, symName: __ZN18Fp32llamaAttentionD2Ev, symObjAddr: 0x4080, symBinAddr: 0x10000742C, symSize: 0x84 }
  - { offset: 0x2D1BE, size: 0x8, addend: 0x0, symName: __ZN8BMM_F32TD1Ev, symObjAddr: 0x4104, symBinAddr: 0x1000074B0, symSize: 0x2C }
  - { offset: 0x2D1EE, size: 0x8, addend: 0x0, symName: __ZN12RotaryPosEmbD1Ev, symObjAddr: 0x4130, symBinAddr: 0x1000074DC, symSize: 0x2C }
  - { offset: 0x2D21E, size: 0x8, addend: 0x0, symName: __ZN8BMM_F32TD2Ev, symObjAddr: 0x415C, symBinAddr: 0x100007508, symSize: 0x30 }
  - { offset: 0x2D24E, size: 0x8, addend: 0x0, symName: __ZN12RotaryPosEmbD2Ev, symObjAddr: 0x418C, symBinAddr: 0x100007538, symSize: 0x30 }
  - { offset: 0x2D27E, size: 0x8, addend: 0x0, symName: __ZNKSt3__16vectorI21Fp32llamaDecoderLayerNS_9allocatorIS1_EEE31__annotate_contiguous_containerB9nqe220108EPKvS6_, symObjAddr: 0x41BC, symBinAddr: 0x100007568, symSize: 0x74 }
  - { offset: 0x2D2C2, size: 0x8, addend: 0x0, symName: __ZNKSt3__16vectorI21Fp32llamaDecoderLayerNS_9allocatorIS1_EEE4dataB9nqe220108Ev, symObjAddr: 0x4230, symBinAddr: 0x1000075DC, symSize: 0x28 }
  - { offset: 0x2D2E8, size: 0x8, addend: 0x0, symName: __ZNSt3__19allocatorI21Fp32llamaDecoderLayerE10deallocateB9nqe220108EPS1_m, symObjAddr: 0x4274, symBinAddr: 0x100007620, symSize: 0x34 }
  - { offset: 0x2D32A, size: 0x8, addend: 0x0, symName: __ZN12LlamaRMSNormD2Ev, symObjAddr: 0x42E4, symBinAddr: 0x100007690, symSize: 0x30 }
  - { offset: 0x2D35A, size: 0x8, addend: 0x0, symName: __ZN9EmbeddingD2Ev, symObjAddr: 0x4314, symBinAddr: 0x1000076C0, symSize: 0x30 }
  - { offset: 0x2D38A, size: 0x8, addend: 0x0, symName: __ZN20Int4LlamaForCausalLMD2Ev, symObjAddr: 0x4344, symBinAddr: 0x1000076F0, symSize: 0x44 }
  - { offset: 0x2D3BA, size: 0x8, addend: 0x0, symName: __ZN14Linear_FP_int4D1Ev, symObjAddr: 0x4388, symBinAddr: 0x100007734, symSize: 0x2C }
  - { offset: 0x2D3EA, size: 0x8, addend: 0x0, symName: __ZN16Int4llamaDecoderD1Ev, symObjAddr: 0x43B4, symBinAddr: 0x100007760, symSize: 0x2C }
  - { offset: 0x2D41A, size: 0x8, addend: 0x0, symName: __ZN14Linear_FP_int4D2Ev, symObjAddr: 0x43E0, symBinAddr: 0x10000778C, symSize: 0x30 }
  - { offset: 0x2D44A, size: 0x8, addend: 0x0, symName: __ZN16Int4llamaDecoderD2Ev, symObjAddr: 0x4410, symBinAddr: 0x1000077BC, symSize: 0x50 }
  - { offset: 0x2D47A, size: 0x8, addend: 0x0, symName: __ZNSt3__16vectorI21Int4llamaDecoderLayerNS_9allocatorIS1_EEED1B9nqe220108Ev, symObjAddr: 0x4460, symBinAddr: 0x10000780C, symSize: 0x2C }
  - { offset: 0x2D4A8, size: 0x8, addend: 0x0, symName: __ZNSt3__16vectorI21Int4llamaDecoderLayerNS_9allocatorIS1_EEED2B9nqe220108Ev, symObjAddr: 0x448C, symBinAddr: 0x100007838, symSize: 0x44 }
  - { offset: 0x2D4D6, size: 0x8, addend: 0x0, symName: __ZNSt3__16vectorI21Int4llamaDecoderLayerNS_9allocatorIS1_EEE16__destroy_vectorC1B9nqe220108ERS4_, symObjAddr: 0x44D0, symBinAddr: 0x10000787C, symSize: 0x34 }
  - { offset: 0x2D50E, size: 0x8, addend: 0x0, symName: __ZNSt3__16vectorI21Int4llamaDecoderLayerNS_9allocatorIS1_EEE16__destroy_vectorclB9nqe220108Ev, symObjAddr: 0x4504, symBinAddr: 0x1000078B0, symSize: 0x84 }
  - { offset: 0x2D534, size: 0x8, addend: 0x0, symName: __ZNSt3__16vectorI21Int4llamaDecoderLayerNS_9allocatorIS1_EEE16__destroy_vectorC2B9nqe220108ERS4_, symObjAddr: 0x4588, symBinAddr: 0x100007934, symSize: 0x20 }
  - { offset: 0x2D56C, size: 0x8, addend: 0x0, symName: __ZNSt3__16vectorI21Int4llamaDecoderLayerNS_9allocatorIS1_EEE5clearB9nqe220108Ev, symObjAddr: 0x45A8, symBinAddr: 0x100007954, symSize: 0x48 }
  - { offset: 0x2D5A1, size: 0x8, addend: 0x0, symName: __ZNKSt3__16vectorI21Int4llamaDecoderLayerNS_9allocatorIS1_EEE17__annotate_deleteB9nqe220108Ev, symObjAddr: 0x45F0, symBinAddr: 0x10000799C, symSize: 0x94 }
  - { offset: 0x2D5C7, size: 0x8, addend: 0x0, symName: __ZNSt3__116allocator_traitsINS_9allocatorI21Int4llamaDecoderLayerEEE10deallocateB9nqe220108ERS3_PS2_m, symObjAddr: 0x4684, symBinAddr: 0x100007A30, symSize: 0x34 }
  - { offset: 0x2D609, size: 0x8, addend: 0x0, symName: __ZNKSt3__16vectorI21Int4llamaDecoderLayerNS_9allocatorIS1_EEE8capacityB9nqe220108Ev, symObjAddr: 0x46B8, symBinAddr: 0x100007A64, symSize: 0x28 }
  - { offset: 0x2D62F, size: 0x8, addend: 0x0, symName: __ZNKSt3__16vectorI21Int4llamaDecoderLayerNS_9allocatorIS1_EEE4sizeB9nqe220108Ev, symObjAddr: 0x46E0, symBinAddr: 0x100007A8C, symSize: 0x28 }
  - { offset: 0x2D655, size: 0x8, addend: 0x0, symName: __ZNSt3__16vectorI21Int4llamaDecoderLayerNS_9allocatorIS1_EEE22__base_destruct_at_endB9nqe220108EPS1_, symObjAddr: 0x4708, symBinAddr: 0x100007AB4, symSize: 0x88 }
  - { offset: 0x2D699, size: 0x8, addend: 0x0, symName: __ZNKSt3__16vectorI21Int4llamaDecoderLayerNS_9allocatorIS1_EEE17__annotate_shrinkB9nqe220108Em, symObjAddr: 0x4790, symBinAddr: 0x100007B3C, symSize: 0x90 }
  - { offset: 0x2D6CE, size: 0x8, addend: 0x0, symName: __ZNSt3__116allocator_traitsINS_9allocatorI21Int4llamaDecoderLayerEEE7destroyB9nqe220108IS2_TnNS_9enable_ifIX15__has_destroy_vIS3_PT_EEiE4typeELi0EEEvRS3_S8_, symObjAddr: 0x4820, symBinAddr: 0x100007BCC, symSize: 0x2C }
  - { offset: 0x2D710, size: 0x8, addend: 0x0, symName: __ZNSt3__19allocatorI21Int4llamaDecoderLayerE7destroyB9nqe220108EPS1_, symObjAddr: 0x4860, symBinAddr: 0x100007C0C, symSize: 0x28 }
  - { offset: 0x2D744, size: 0x8, addend: 0x0, symName: __ZN21Int4llamaDecoderLayerD1Ev, symObjAddr: 0x4888, symBinAddr: 0x100007C34, symSize: 0x2C }
  - { offset: 0x2D774, size: 0x8, addend: 0x0, symName: __ZN21Int4llamaDecoderLayerD2Ev, symObjAddr: 0x48B4, symBinAddr: 0x100007C60, symSize: 0x78 }
  - { offset: 0x2D7A4, size: 0x8, addend: 0x0, symName: __ZN18Int4llamaAttentionD1Ev, symObjAddr: 0x492C, symBinAddr: 0x100007CD8, symSize: 0x2C }
  - { offset: 0x2D7D4, size: 0x8, addend: 0x0, symName: __ZN18Int4llamaAttentionD2Ev, symObjAddr: 0x4958, symBinAddr: 0x100007D04, symSize: 0x84 }
  - { offset: 0x2D804, size: 0x8, addend: 0x0, symName: __ZNKSt3__16vectorI21Int4llamaDecoderLayerNS_9allocatorIS1_EEE31__annotate_contiguous_containerB9nqe220108EPKvS6_, symObjAddr: 0x49DC, symBinAddr: 0x100007D88, symSize: 0x74 }
  - { offset: 0x2D848, size: 0x8, addend: 0x0, symName: __ZNKSt3__16vectorI21Int4llamaDecoderLayerNS_9allocatorIS1_EEE4dataB9nqe220108Ev, symObjAddr: 0x4A50, symBinAddr: 0x100007DFC, symSize: 0x28 }
  - { offset: 0x2D86E, size: 0x8, addend: 0x0, symName: __ZNSt3__19allocatorI21Int4llamaDecoderLayerE10deallocateB9nqe220108EPS1_m, symObjAddr: 0x4A94, symBinAddr: 0x100007E40, symSize: 0x34 }
  - { offset: 0x2D8B0, size: 0x8, addend: 0x0, symName: __ZN14OPTForCausalLMC2ERKS_, symObjAddr: 0x4B04, symBinAddr: 0x100007EB0, symSize: 0xBC }
  - { offset: 0x2D8F0, size: 0x8, addend: 0x0, symName: __ZN14Int8OPTDecoderC1ERKS_, symObjAddr: 0x4BC0, symBinAddr: 0x100007F6C, symSize: 0x34 }
  - { offset: 0x2D930, size: 0x8, addend: 0x0, symName: __ZN9Linear_FPC1ERKS_, symObjAddr: 0x4BF4, symBinAddr: 0x100007FA0, symSize: 0x34 }
  - { offset: 0x2D965, size: 0x8, addend: 0x0, symName: __ZN14Int8OPTDecoderD1Ev, symObjAddr: 0x4C28, symBinAddr: 0x100007FD4, symSize: 0x2C }
  - { offset: 0x2D995, size: 0x8, addend: 0x0, symName: __ZN14Int8OPTDecoderC2ERKS_, symObjAddr: 0x4C54, symBinAddr: 0x100008000, symSize: 0x140 }
  - { offset: 0x2D9D5, size: 0x8, addend: 0x0, symName: __ZN9EmbeddingC1ERKS_, symObjAddr: 0x4D94, symBinAddr: 0x100008140, symSize: 0x34 }
  - { offset: 0x2DA0A, size: 0x8, addend: 0x0, symName: __ZNSt3__16vectorI19Int8OPTDecoderLayerNS_9allocatorIS1_EEEC1B9nqe220108ERKS4_, symObjAddr: 0x4DC8, symBinAddr: 0x100008174, symSize: 0x34 }
  - { offset: 0x2DA4E, size: 0x8, addend: 0x0, symName: __ZN9LayerNormC1ERKS_, symObjAddr: 0x4DFC, symBinAddr: 0x1000081A8, symSize: 0x34 }
  - { offset: 0x2DA83, size: 0x8, addend: 0x0, symName: __ZN9LayerNormD1Ev, symObjAddr: 0x4E30, symBinAddr: 0x1000081DC, symSize: 0x2C }
  - { offset: 0x2DAB3, size: 0x8, addend: 0x0, symName: __ZNSt3__16vectorI19Int8OPTDecoderLayerNS_9allocatorIS1_EEED1B9nqe220108Ev, symObjAddr: 0x4E5C, symBinAddr: 0x100008208, symSize: 0x2C }
  - { offset: 0x2DAE1, size: 0x8, addend: 0x0, symName: __ZN9EmbeddingC2ERKS_, symObjAddr: 0x4E88, symBinAddr: 0x100008234, symSize: 0x4C }
  - { offset: 0x2DB16, size: 0x8, addend: 0x0, symName: __ZNSt3__16vectorI19Int8OPTDecoderLayerNS_9allocatorIS1_EEEC2B9nqe220108ERKS4_, symObjAddr: 0x4ED4, symBinAddr: 0x100008280, symSize: 0x78 }
  - { offset: 0x2DB5A, size: 0x8, addend: 0x0, symName: __ZNSt3__116allocator_traitsINS_9allocatorI19Int8OPTDecoderLayerEEE37select_on_container_copy_constructionB9nqe220108IS3_TnNS_9enable_ifIXnt45__has_select_on_container_copy_construction_vIKT_EEiE4typeELi0EEES3_RKS3_, symObjAddr: 0x4F4C, symBinAddr: 0x1000082F8, symSize: 0x10 }
  - { offset: 0x2DB8D, size: 0x8, addend: 0x0, symName: __ZNSt3__16vectorI19Int8OPTDecoderLayerNS_9allocatorIS1_EEE16__init_with_sizeB9nqe220108IPS1_S6_EEvT_T0_m, symObjAddr: 0x4F5C, symBinAddr: 0x100008308, symSize: 0xB4 }
  - { offset: 0x2DC01, size: 0x8, addend: 0x0, symName: __ZNKSt3__16vectorI19Int8OPTDecoderLayerNS_9allocatorIS1_EEE4sizeB9nqe220108Ev, symObjAddr: 0x5010, symBinAddr: 0x1000083BC, symSize: 0x28 }
  - { offset: 0x2DC27, size: 0x8, addend: 0x0, symName: __ZNSt3__16vectorI19Int8OPTDecoderLayerNS_9allocatorIS1_EEE16__destroy_vectorC1B9nqe220108ERS4_, symObjAddr: 0x5078, symBinAddr: 0x100008424, symSize: 0x34 }
  - { offset: 0x2DC5F, size: 0x8, addend: 0x0, symName: __ZNSt3__16vectorI19Int8OPTDecoderLayerNS_9allocatorIS1_EEE11__vallocateB9nqe220108Em, symObjAddr: 0x50AC, symBinAddr: 0x100008458, symSize: 0x98 }
  - { offset: 0x2DCA3, size: 0x8, addend: 0x0, symName: __ZNSt3__16vectorI19Int8OPTDecoderLayerNS_9allocatorIS1_EEE18__construct_at_endIPS1_S6_EEvT_T0_m, symObjAddr: 0x5144, symBinAddr: 0x1000084F0, symSize: 0x8C }
  - { offset: 0x2DD17, size: 0x8, addend: 0x0, symName: __ZNSt3__128__exception_guard_exceptionsINS_6vectorI19Int8OPTDecoderLayerNS_9allocatorIS2_EEE16__destroy_vectorEE10__completeB9nqe220108Ev, symObjAddr: 0x51D0, symBinAddr: 0x10000857C, symSize: 0x1C }
  - { offset: 0x2DD3D, size: 0x8, addend: 0x0, symName: __ZNSt3__128__exception_guard_exceptionsINS_6vectorI19Int8OPTDecoderLayerNS_9allocatorIS2_EEE16__destroy_vectorEED1B9nqe220108Ev, symObjAddr: 0x51EC, symBinAddr: 0x100008598, symSize: 0x2C }
  - { offset: 0x2DD6B, size: 0x8, addend: 0x0, symName: __ZNSt3__128__exception_guard_exceptionsINS_6vectorI19Int8OPTDecoderLayerNS_9allocatorIS2_EEE16__destroy_vectorEEC1B9nqe220108ES6_, symObjAddr: 0x5218, symBinAddr: 0x1000085C4, symSize: 0x34 }
  - { offset: 0x2DDA3, size: 0x8, addend: 0x0, symName: __ZNSt3__128__exception_guard_exceptionsINS_6vectorI19Int8OPTDecoderLayerNS_9allocatorIS2_EEE16__destroy_vectorEEC2B9nqe220108ES6_, symObjAddr: 0x524C, symBinAddr: 0x1000085F8, symSize: 0x24 }
  - { offset: 0x2DDDB, size: 0x8, addend: 0x0, symName: __ZNSt3__16vectorI19Int8OPTDecoderLayerNS_9allocatorIS1_EEE16__destroy_vectorC2B9nqe220108ERS4_, symObjAddr: 0x5270, symBinAddr: 0x10000861C, symSize: 0x20 }
  - { offset: 0x2DE13, size: 0x8, addend: 0x0, symName: __ZNKSt3__16vectorI19Int8OPTDecoderLayerNS_9allocatorIS1_EEE8max_sizeB9nqe220108Ev, symObjAddr: 0x5290, symBinAddr: 0x10000863C, symSize: 0x60 }
  - { offset: 0x2DE39, size: 0x8, addend: 0x0, symName: __ZNSt3__16vectorI19Int8OPTDecoderLayerNS_9allocatorIS1_EEE20__throw_length_errorB9nqe220108Ev, symObjAddr: 0x52F0, symBinAddr: 0x10000869C, symSize: 0x14 }
  - { offset: 0x2DE4D, size: 0x8, addend: 0x0, symName: __ZNKSt3__16vectorI19Int8OPTDecoderLayerNS_9allocatorIS1_EEE14__annotate_newB9nqe220108Em, symObjAddr: 0x5348, symBinAddr: 0x1000086F4, symSize: 0x88 }
  - { offset: 0x2DE82, size: 0x8, addend: 0x0, symName: __ZNSt3__116allocator_traitsINS_9allocatorI19Int8OPTDecoderLayerEEE8max_sizeB9nqe220108IS3_TnNS_9enable_ifIX16__has_max_size_vIKT_EEiE4typeELi0EEEmRKS3_, symObjAddr: 0x53FC, symBinAddr: 0x1000087A8, symSize: 0x24 }
  - { offset: 0x2DEB5, size: 0x8, addend: 0x0, symName: __ZNSt3__114numeric_limitsIlE3maxB9nqe220108Ev, symObjAddr: 0x5420, symBinAddr: 0x1000087CC, symSize: 0x14 }
  - { offset: 0x2DEDE, size: 0x8, addend: 0x0, symName: __ZNKSt3__16__lessIvvEclB9nqe220108ImmEEbRKT_RKT0_, symObjAddr: 0x5488, symBinAddr: 0x100008834, symSize: 0x30 }
  - { offset: 0x2DF32, size: 0x8, addend: 0x0, symName: __ZNKSt3__19allocatorI19Int8OPTDecoderLayerE8max_sizeB9nqe220108Ev, symObjAddr: 0x54B8, symBinAddr: 0x100008864, symSize: 0x20 }
  - { offset: 0x2DF58, size: 0x8, addend: 0x0, symName: __ZNSt3__123__libcpp_numeric_limitsIlLb1EE3maxB9nqe220108Ev, symObjAddr: 0x54D8, symBinAddr: 0x100008884, symSize: 0x8 }
  - { offset: 0x2DF6C, size: 0x8, addend: 0x0, symName: __ZNSt12length_errorC1B9nqe220108EPKc, symObjAddr: 0x5544, symBinAddr: 0x1000088F0, symSize: 0x34 }
  - { offset: 0x2DFA4, size: 0x8, addend: 0x0, symName: __ZNSt12length_errorC2B9nqe220108EPKc, symObjAddr: 0x5578, symBinAddr: 0x100008924, symSize: 0x44 }
  - { offset: 0x2DFDC, size: 0x8, addend: 0x0, symName: __ZNSt3__19allocatorI19Int8OPTDecoderLayerE8allocateB9nqe220108Em, symObjAddr: 0x55BC, symBinAddr: 0x100008968, symSize: 0x50 }
  - { offset: 0x2E015, size: 0x8, addend: 0x0, symName: __ZNSt3__119__allocation_resultIP19Int8OPTDecoderLayermEC1B9nqe220108ES2_m, symObjAddr: 0x560C, symBinAddr: 0x1000089B8, symSize: 0x3C }
  - { offset: 0x2E05B, size: 0x8, addend: 0x0, symName: __ZNSt3__119__allocation_resultIP19Int8OPTDecoderLayermEC2B9nqe220108ES2_m, symObjAddr: 0x5680, symBinAddr: 0x100008A2C, symSize: 0x2C }
  - { offset: 0x2E0A1, size: 0x8, addend: 0x0, symName: __ZNKSt3__16vectorI19Int8OPTDecoderLayerNS_9allocatorIS1_EEE31__annotate_contiguous_containerB9nqe220108EPKvS6_, symObjAddr: 0x56AC, symBinAddr: 0x100008A58, symSize: 0x74 }
  - { offset: 0x2E0E5, size: 0x8, addend: 0x0, symName: __ZNKSt3__16vectorI19Int8OPTDecoderLayerNS_9allocatorIS1_EEE4dataB9nqe220108Ev, symObjAddr: 0x5720, symBinAddr: 0x100008ACC, symSize: 0x28 }
  - { offset: 0x2E10B, size: 0x8, addend: 0x0, symName: __ZNKSt3__16vectorI19Int8OPTDecoderLayerNS_9allocatorIS1_EEE8capacityB9nqe220108Ev, symObjAddr: 0x5748, symBinAddr: 0x100008AF4, symSize: 0x28 }
  - { offset: 0x2E14C, size: 0x8, addend: 0x0, symName: __ZNSt3__16vectorI19Int8OPTDecoderLayerNS_9allocatorIS1_EEE21_ConstructTransactionC1B9nqe220108ERS4_m, symObjAddr: 0x57A0, symBinAddr: 0x100008B4C, symSize: 0x3C }
  - { offset: 0x2E194, size: 0x8, addend: 0x0, symName: __ZNSt3__16vectorI19Int8OPTDecoderLayerNS_9allocatorIS1_EEE21_ConstructTransactionD1B9nqe220108Ev, symObjAddr: 0x585C, symBinAddr: 0x100008C08, symSize: 0x2C }
  - { offset: 0x2E1C2, size: 0x8, addend: 0x0, symName: __ZNSt3__16vectorI19Int8OPTDecoderLayerNS_9allocatorIS1_EEE21_ConstructTransactionC2B9nqe220108ERS4_m, symObjAddr: 0x5888, symBinAddr: 0x100008C34, symSize: 0x6C }
  - { offset: 0x2E20A, size: 0x8, addend: 0x0, symName: __ZNKSt3__16vectorI19Int8OPTDecoderLayerNS_9allocatorIS1_EEE19__annotate_increaseB9nqe220108Em, symObjAddr: 0x58F4, symBinAddr: 0x100008CA0, symSize: 0xA4 }
  - { offset: 0x2E261, size: 0x8, addend: 0x0, symName: __ZNSt3__14pairIP19Int8OPTDecoderLayerS2_EC1B9nqe220108IS2_S2_TnNS_9enable_ifIXclsr25__check_pair_constructionIS2_S2_EE23__is_pair_constructibleIT_T0_EEEiE4typeELi0EEEOS6_OS7_, symObjAddr: 0x5B80, symBinAddr: 0x100008F2C, symSize: 0x3C }
  - { offset: 0x2E2BF, size: 0x8, addend: 0x0, symName: __ZNSt3__14pairIP19Int8OPTDecoderLayerS2_EC2B9nqe220108IS2_S2_TnNS_9enable_ifIXclsr25__check_pair_constructionIS2_S2_EE23__is_pair_constructibleIT_T0_EEEiE4typeELi0EEEOS6_OS7_, symObjAddr: 0x5BBC, symBinAddr: 0x100008F68, symSize: 0x34 }
  - { offset: 0x2E31D, size: 0x8, addend: 0x0, symName: __ZNSt3__129_AllocatorDestroyRangeReverseINS_9allocatorI19Int8OPTDecoderLayerEEPS2_EC1B9nqe220108ERS3_RS4_S7_, symObjAddr: 0x5C3C, symBinAddr: 0x100008FE8, symSize: 0x44 }
  - { offset: 0x2E374, size: 0x8, addend: 0x0, symName: __ZNSt3__116allocator_traitsINS_9allocatorI19Int8OPTDecoderLayerEEE9constructB9nqe220108IS2_JRS2_ETnNS_9enable_ifIX17__has_construct_vIS3_PT_DpT0_EEiE4typeELi0EEEvRS3_S9_DpOSA_, symObjAddr: 0x5C80, symBinAddr: 0x10000902C, symSize: 0x34 }
  - { offset: 0x2E3D0, size: 0x8, addend: 0x0, symName: __ZNSt3__128__exception_guard_exceptionsINS_29_AllocatorDestroyRangeReverseINS_9allocatorI19Int8OPTDecoderLayerEEPS3_EEE10__completeB9nqe220108Ev, symObjAddr: 0x5CB4, symBinAddr: 0x100009060, symSize: 0x1C }
  - { offset: 0x2E3F6, size: 0x8, addend: 0x0, symName: __ZNSt3__128__exception_guard_exceptionsINS_29_AllocatorDestroyRangeReverseINS_9allocatorI19Int8OPTDecoderLayerEEPS3_EEED1B9nqe220108Ev, symObjAddr: 0x5CD0, symBinAddr: 0x10000907C, symSize: 0x2C }
  - { offset: 0x2E424, size: 0x8, addend: 0x0, symName: __ZNSt3__128__exception_guard_exceptionsINS_29_AllocatorDestroyRangeReverseINS_9allocatorI19Int8OPTDecoderLayerEEPS3_EEEC1B9nqe220108ES6_, symObjAddr: 0x5CFC, symBinAddr: 0x1000090A8, symSize: 0x34 }
  - { offset: 0x2E45D, size: 0x8, addend: 0x0, symName: __ZNSt3__128__exception_guard_exceptionsINS_29_AllocatorDestroyRangeReverseINS_9allocatorI19Int8OPTDecoderLayerEEPS3_EEEC2B9nqe220108ES6_, symObjAddr: 0x5D30, symBinAddr: 0x1000090DC, symSize: 0x30 }
  - { offset: 0x2E496, size: 0x8, addend: 0x0, symName: __ZNSt3__129_AllocatorDestroyRangeReverseINS_9allocatorI19Int8OPTDecoderLayerEEPS2_EC2B9nqe220108ERS3_RS4_S7_, symObjAddr: 0x5D60, symBinAddr: 0x10000910C, symSize: 0x38 }
  - { offset: 0x2E4ED, size: 0x8, addend: 0x0, symName: __ZNSt3__19allocatorI19Int8OPTDecoderLayerE9constructB9nqe220108IS1_JRS1_EEEvPT_DpOT0_, symObjAddr: 0x5D98, symBinAddr: 0x100009144, symSize: 0x30 }
  - { offset: 0x2E543, size: 0x8, addend: 0x0, symName: __ZN19Int8OPTDecoderLayerC1ERKS_, symObjAddr: 0x5DC8, symBinAddr: 0x100009174, symSize: 0x34 }
  - { offset: 0x2E578, size: 0x8, addend: 0x0, symName: __ZN19Int8OPTDecoderLayerC2ERKS_, symObjAddr: 0x5DFC, symBinAddr: 0x1000091A8, symSize: 0x168 }
  - { offset: 0x2E5B8, size: 0x8, addend: 0x0, symName: __ZN10LayerNormQC1ERKS_, symObjAddr: 0x5F64, symBinAddr: 0x100009310, symSize: 0x34 }
  - { offset: 0x2E5F8, size: 0x8, addend: 0x0, symName: __ZN18W8A8B8O8LinearReLUC1ERKS_, symObjAddr: 0x5F98, symBinAddr: 0x100009344, symSize: 0x34 }
  - { offset: 0x2E638, size: 0x8, addend: 0x0, symName: __ZN20W8A8BFP32OFP32LinearC1ERKS_, symObjAddr: 0x5FCC, symBinAddr: 0x100009378, symSize: 0x34 }
  - { offset: 0x2E678, size: 0x8, addend: 0x0, symName: __ZN16Int8OPTAttentionC1ERKS_, symObjAddr: 0x6000, symBinAddr: 0x1000093AC, symSize: 0x34 }
  - { offset: 0x2E6AD, size: 0x8, addend: 0x0, symName: __ZN16Int8OPTAttentionD1Ev, symObjAddr: 0x6034, symBinAddr: 0x1000093E0, symSize: 0x2C }
  - { offset: 0x2E6DD, size: 0x8, addend: 0x0, symName: __ZN20W8A8BFP32OFP32LinearD1Ev, symObjAddr: 0x6060, symBinAddr: 0x10000940C, symSize: 0x2C }
  - { offset: 0x2E70D, size: 0x8, addend: 0x0, symName: __ZN18W8A8B8O8LinearReLUD1Ev, symObjAddr: 0x608C, symBinAddr: 0x100009438, symSize: 0x2C }
  - { offset: 0x2E73D, size: 0x8, addend: 0x0, symName: __ZN10LayerNormQD1Ev, symObjAddr: 0x60B8, symBinAddr: 0x100009464, symSize: 0x2C }
  - { offset: 0x2E76D, size: 0x8, addend: 0x0, symName: __ZN10LayerNormQC2ERKS_, symObjAddr: 0x60E4, symBinAddr: 0x100009490, symSize: 0x4C }
  - { offset: 0x2E7A2, size: 0x8, addend: 0x0, symName: __ZN18W8A8B8O8LinearReLUC2ERKS_, symObjAddr: 0x6130, symBinAddr: 0x1000094DC, symSize: 0x4C }
  - { offset: 0x2E7D7, size: 0x8, addend: 0x0, symName: __ZN20W8A8BFP32OFP32LinearC2ERKS_, symObjAddr: 0x617C, symBinAddr: 0x100009528, symSize: 0x4C }
  - { offset: 0x2E80C, size: 0x8, addend: 0x0, symName: __ZN16Int8OPTAttentionC2ERKS_, symObjAddr: 0x61C8, symBinAddr: 0x100009574, symSize: 0x1A8 }
  - { offset: 0x2E84C, size: 0x8, addend: 0x0, symName: __ZN16BMM_S8T_S8N_F32TC1ERKS_, symObjAddr: 0x6370, symBinAddr: 0x10000971C, symSize: 0x34 }
  - { offset: 0x2E88C, size: 0x8, addend: 0x0, symName: __ZN15BMM_S8T_S8N_S8TC1ERKS_, symObjAddr: 0x63A4, symBinAddr: 0x100009750, symSize: 0x34 }
  - { offset: 0x2E8CC, size: 0x8, addend: 0x0, symName: __ZN14W8A8B8O8LinearC1ERKS_, symObjAddr: 0x63D8, symBinAddr: 0x100009784, symSize: 0x34 }
  - { offset: 0x2E901, size: 0x8, addend: 0x0, symName: __ZN14W8A8B8O8LinearD1Ev, symObjAddr: 0x640C, symBinAddr: 0x1000097B8, symSize: 0x2C }
  - { offset: 0x2E931, size: 0x8, addend: 0x0, symName: __ZN15BMM_S8T_S8N_S8TD1Ev, symObjAddr: 0x6438, symBinAddr: 0x1000097E4, symSize: 0x2C }
  - { offset: 0x2E961, size: 0x8, addend: 0x0, symName: __ZN16BMM_S8T_S8N_F32TD1Ev, symObjAddr: 0x6464, symBinAddr: 0x100009810, symSize: 0x2C }
  - { offset: 0x2E991, size: 0x8, addend: 0x0, symName: __ZN16BMM_S8T_S8N_F32TC2ERKS_, symObjAddr: 0x6490, symBinAddr: 0x10000983C, symSize: 0x4C }
  - { offset: 0x2E9C6, size: 0x8, addend: 0x0, symName: __ZN15BMM_S8T_S8N_S8TC2ERKS_, symObjAddr: 0x64DC, symBinAddr: 0x100009888, symSize: 0x4C }
  - { offset: 0x2E9FB, size: 0x8, addend: 0x0, symName: __ZN14W8A8B8O8LinearC2ERKS_, symObjAddr: 0x6528, symBinAddr: 0x1000098D4, symSize: 0x4C }
  - { offset: 0x2EA30, size: 0x8, addend: 0x0, symName: __ZN14W8A8B8O8LinearD2Ev, symObjAddr: 0x6574, symBinAddr: 0x100009920, symSize: 0x30 }
  - { offset: 0x2EA60, size: 0x8, addend: 0x0, symName: __ZN15BMM_S8T_S8N_S8TD2Ev, symObjAddr: 0x65A4, symBinAddr: 0x100009950, symSize: 0x30 }
  - { offset: 0x2EA90, size: 0x8, addend: 0x0, symName: __ZN16BMM_S8T_S8N_F32TD2Ev, symObjAddr: 0x65D4, symBinAddr: 0x100009980, symSize: 0x30 }
  - { offset: 0x2EAC0, size: 0x8, addend: 0x0, symName: __ZN16Int8OPTAttentionD2Ev, symObjAddr: 0x6604, symBinAddr: 0x1000099B0, symSize: 0x78 }
  - { offset: 0x2EAF0, size: 0x8, addend: 0x0, symName: __ZN20W8A8BFP32OFP32LinearD2Ev, symObjAddr: 0x667C, symBinAddr: 0x100009A28, symSize: 0x30 }
  - { offset: 0x2EB20, size: 0x8, addend: 0x0, symName: __ZN18W8A8B8O8LinearReLUD2Ev, symObjAddr: 0x66AC, symBinAddr: 0x100009A58, symSize: 0x30 }
  - { offset: 0x2EB50, size: 0x8, addend: 0x0, symName: __ZN10LayerNormQD2Ev, symObjAddr: 0x66DC, symBinAddr: 0x100009A88, symSize: 0x30 }
  - { offset: 0x2EB80, size: 0x8, addend: 0x0, symName: __ZNSt3__128__exception_guard_exceptionsINS_29_AllocatorDestroyRangeReverseINS_9allocatorI19Int8OPTDecoderLayerEEPS3_EEED2B9nqe220108Ev, symObjAddr: 0x670C, symBinAddr: 0x100009AB8, symSize: 0x50 }
  - { offset: 0x2EBAE, size: 0x8, addend: 0x0, symName: __ZNKSt3__129_AllocatorDestroyRangeReverseINS_9allocatorI19Int8OPTDecoderLayerEEPS2_EclB9nqe220108Ev, symObjAddr: 0x675C, symBinAddr: 0x100009B08, symSize: 0x68 }
  - { offset: 0x2EBD4, size: 0x8, addend: 0x0, symName: __ZNSt3__116reverse_iteratorIP19Int8OPTDecoderLayerEC1B9nqe220108ES2_, symObjAddr: 0x6834, symBinAddr: 0x100009BE0, symSize: 0x34 }
  - { offset: 0x2EC0C, size: 0x8, addend: 0x0, symName: __ZNSt3__116allocator_traitsINS_9allocatorI19Int8OPTDecoderLayerEEE7destroyB9nqe220108IS2_TnNS_9enable_ifIX15__has_destroy_vIS3_PT_EEiE4typeELi0EEEvRS3_S8_, symObjAddr: 0x68AC, symBinAddr: 0x100009C58, symSize: 0x2C }
  - { offset: 0x2EC4E, size: 0x8, addend: 0x0, symName: __ZNKSt3__116reverse_iteratorIP19Int8OPTDecoderLayerEdeB9nqe220108Ev, symObjAddr: 0x68D8, symBinAddr: 0x100009C84, symSize: 0x28 }
  - { offset: 0x2EC82, size: 0x8, addend: 0x0, symName: __ZNSt3__116reverse_iteratorIP19Int8OPTDecoderLayerEppB9nqe220108Ev, symObjAddr: 0x6900, symBinAddr: 0x100009CAC, symSize: 0x20 }
  - { offset: 0x2ECA8, size: 0x8, addend: 0x0, symName: __ZNKSt3__116reverse_iteratorIP19Int8OPTDecoderLayerE4baseB9nqe220108Ev, symObjAddr: 0x6920, symBinAddr: 0x100009CCC, symSize: 0x18 }
  - { offset: 0x2ECCE, size: 0x8, addend: 0x0, symName: __ZNSt3__19allocatorI19Int8OPTDecoderLayerE7destroyB9nqe220108EPS1_, symObjAddr: 0x6938, symBinAddr: 0x100009CE4, symSize: 0x28 }
  - { offset: 0x2ED02, size: 0x8, addend: 0x0, symName: __ZN19Int8OPTDecoderLayerD1Ev, symObjAddr: 0x6960, symBinAddr: 0x100009D0C, symSize: 0x2C }
  - { offset: 0x2ED32, size: 0x8, addend: 0x0, symName: __ZN19Int8OPTDecoderLayerD2Ev, symObjAddr: 0x698C, symBinAddr: 0x100009D38, symSize: 0x6C }
  - { offset: 0x2ED62, size: 0x8, addend: 0x0, symName: __ZNSt3__116reverse_iteratorIP19Int8OPTDecoderLayerEC2B9nqe220108ES2_, symObjAddr: 0x69F8, symBinAddr: 0x100009DA4, symSize: 0x28 }
  - { offset: 0x2ED9A, size: 0x8, addend: 0x0, symName: __ZNSt3__118__unwrap_iter_implIP19Int8OPTDecoderLayerLb1EE8__unwrapB9nqe220108ES2_, symObjAddr: 0x6A20, symBinAddr: 0x100009DCC, symSize: 0x24 }
  - { offset: 0x2EDBD, size: 0x8, addend: 0x0, symName: __ZNSt3__118__unwrap_iter_implIP19Int8OPTDecoderLayerLb1EE8__rewrapB9nqe220108ES2_S2_, symObjAddr: 0x6A44, symBinAddr: 0x100009DF0, symSize: 0x58 }
  - { offset: 0x2EDEE, size: 0x8, addend: 0x0, symName: __ZNSt3__16vectorI19Int8OPTDecoderLayerNS_9allocatorIS1_EEE21_ConstructTransactionD2B9nqe220108Ev, symObjAddr: 0x6A9C, symBinAddr: 0x100009E48, symSize: 0x78 }
  - { offset: 0x2EE1C, size: 0x8, addend: 0x0, symName: __ZNKSt3__16vectorI19Int8OPTDecoderLayerNS_9allocatorIS1_EEE17__annotate_shrinkB9nqe220108Em, symObjAddr: 0x6B14, symBinAddr: 0x100009EC0, symSize: 0x90 }
  - { offset: 0x2EE51, size: 0x8, addend: 0x0, symName: __ZNSt3__128__exception_guard_exceptionsINS_6vectorI19Int8OPTDecoderLayerNS_9allocatorIS2_EEE16__destroy_vectorEED2B9nqe220108Ev, symObjAddr: 0x6BA4, symBinAddr: 0x100009F50, symSize: 0x50 }
  - { offset: 0x2EE7F, size: 0x8, addend: 0x0, symName: __ZNSt3__16vectorI19Int8OPTDecoderLayerNS_9allocatorIS1_EEE16__destroy_vectorclB9nqe220108Ev, symObjAddr: 0x6BF4, symBinAddr: 0x100009FA0, symSize: 0x84 }
  - { offset: 0x2EEA5, size: 0x8, addend: 0x0, symName: __ZNSt3__16vectorI19Int8OPTDecoderLayerNS_9allocatorIS1_EEE5clearB9nqe220108Ev, symObjAddr: 0x6C78, symBinAddr: 0x10000A024, symSize: 0x48 }
  - { offset: 0x2EEDA, size: 0x8, addend: 0x0, symName: __ZNKSt3__16vectorI19Int8OPTDecoderLayerNS_9allocatorIS1_EEE17__annotate_deleteB9nqe220108Ev, symObjAddr: 0x6CC0, symBinAddr: 0x10000A06C, symSize: 0x94 }
  - { offset: 0x2EF00, size: 0x8, addend: 0x0, symName: __ZNSt3__116allocator_traitsINS_9allocatorI19Int8OPTDecoderLayerEEE10deallocateB9nqe220108ERS3_PS2_m, symObjAddr: 0x6D54, symBinAddr: 0x10000A100, symSize: 0x34 }
  - { offset: 0x2EF42, size: 0x8, addend: 0x0, symName: __ZNSt3__16vectorI19Int8OPTDecoderLayerNS_9allocatorIS1_EEE22__base_destruct_at_endB9nqe220108EPS1_, symObjAddr: 0x6D88, symBinAddr: 0x10000A134, symSize: 0x88 }
  - { offset: 0x2EF86, size: 0x8, addend: 0x0, symName: __ZNSt3__19allocatorI19Int8OPTDecoderLayerE10deallocateB9nqe220108EPS1_m, symObjAddr: 0x6E10, symBinAddr: 0x10000A1BC, symSize: 0x34 }
  - { offset: 0x2EFC8, size: 0x8, addend: 0x0, symName: __ZN9LayerNormC2ERKS_, symObjAddr: 0x6E80, symBinAddr: 0x10000A22C, symSize: 0x4C }
  - { offset: 0x2EFFD, size: 0x8, addend: 0x0, symName: __ZN9LayerNormD2Ev, symObjAddr: 0x6ECC, symBinAddr: 0x10000A278, symSize: 0x30 }
  - { offset: 0x2F02D, size: 0x8, addend: 0x0, symName: __ZNSt3__16vectorI19Int8OPTDecoderLayerNS_9allocatorIS1_EEED2B9nqe220108Ev, symObjAddr: 0x6EFC, symBinAddr: 0x10000A2A8, symSize: 0x40 }
  - { offset: 0x2F05B, size: 0x8, addend: 0x0, symName: __ZN9Linear_FPC2ERKS_, symObjAddr: 0x6F3C, symBinAddr: 0x10000A2E8, symSize: 0x50 }
  - { offset: 0x2F090, size: 0x8, addend: 0x0, symName: __ZN14Int8OPTDecoderD2Ev, symObjAddr: 0x6F8C, symBinAddr: 0x10000A338, symSize: 0x5C }
  - { offset: 0x2F0C0, size: 0x8, addend: 0x0, symName: __ZN14OPTForCausalLMD2Ev, symObjAddr: 0x6FE8, symBinAddr: 0x10000A394, symSize: 0x44 }
  - { offset: 0x2F0F0, size: 0x8, addend: 0x0, symName: __ZN7EncoderD2Ev, symObjAddr: 0x702C, symBinAddr: 0x10000A3D8, symSize: 0x68 }
  - { offset: 0x2F120, size: 0x8, addend: 0x0, symName: __ZNSt3__113unordered_mapINS_12basic_stringIcNS_11char_traitsIcEENS_9allocatorIcEEEES6_NS_4hashIS6_EENS_8equal_toIS6_EENS4_INS_4pairIKS6_S6_EEEEED1B9nqe220108Ev, symObjAddr: 0x7094, symBinAddr: 0x10000A440, symSize: 0x2C }
  - { offset: 0x2F14E, size: 0x8, addend: 0x0, symName: __ZNSt3__113unordered_mapINS_4pairINS_12basic_stringIcNS_11char_traitsIcEENS_9allocatorIcEEEES7_EEi9pair_hashNS_8equal_toIS8_EENS5_INS1_IKS8_iEEEEED1B9nqe220108Ev, symObjAddr: 0x70C0, symBinAddr: 0x10000A46C, symSize: 0x2C }
  - { offset: 0x2F17C, size: 0x8, addend: 0x0, symName: __ZNSt3__113unordered_mapINS_12basic_stringIcNS_11char_traitsIcEENS_9allocatorIcEEEEiNS_4hashIS6_EENS_8equal_toIS6_EENS4_INS_4pairIKS6_iEEEEED1B9nqe220108Ev, symObjAddr: 0x70EC, symBinAddr: 0x10000A498, symSize: 0x2C }
  - { offset: 0x2F1AA, size: 0x8, addend: 0x0, symName: __ZNSt3__113unordered_mapIiNS_12basic_stringIcNS_11char_traitsIcEENS_9allocatorIcEEEENS_4hashIiEENS_8equal_toIiEENS4_INS_4pairIKiS6_EEEEED1B9nqe220108Ev, symObjAddr: 0x7118, symBinAddr: 0x10000A4C4, symSize: 0x2C }
  - { offset: 0x2F1D8, size: 0x8, addend: 0x0, symName: __ZNSt3__13mapIiNS_12basic_stringIcNS_11char_traitsIcEENS_9allocatorIcEEEENS_4lessIiEENS4_INS_4pairIKiS6_EEEEED1B9nqe220108Ev, symObjAddr: 0x7144, symBinAddr: 0x10000A4F0, symSize: 0x2C }
  - { offset: 0x2F206, size: 0x8, addend: 0x0, symName: __ZNSt3__113unordered_mapINS_12basic_stringIcNS_11char_traitsIcEENS_9allocatorIcEEEES6_NS_4hashIS6_EENS_8equal_toIS6_EENS4_INS_4pairIKS6_S6_EEEEED2B9nqe220108Ev, symObjAddr: 0x7170, symBinAddr: 0x10000A51C, symSize: 0x2C }
  - { offset: 0x2F234, size: 0x8, addend: 0x0, symName: __ZNSt3__112__hash_tableINS_17__hash_value_typeINS_12basic_stringIcNS_11char_traitsIcEENS_9allocatorIcEEEES7_EENS_22__unordered_map_hasherIS7_NS_4pairIKS7_S7_EENS_4hashIS7_EENS_8equal_toIS7_EEEENS_21__unordered_map_equalIS7_SC_SG_SE_EENS5_ISC_EEED1Ev, symObjAddr: 0x719C, symBinAddr: 0x10000A548, symSize: 0x2C }
  - { offset: 0x2F264, size: 0x8, addend: 0x0, symName: __ZNSt3__112__hash_tableINS_17__hash_value_typeINS_12basic_stringIcNS_11char_traitsIcEENS_9allocatorIcEEEES7_EENS_22__unordered_map_hasherIS7_NS_4pairIKS7_S7_EENS_4hashIS7_EENS_8equal_toIS7_EEEENS_21__unordered_map_equalIS7_SC_SG_SE_EENS5_ISC_EEED2Ev, symObjAddr: 0x71C8, symBinAddr: 0x10000A574, symSize: 0x38 }
  - { offset: 0x2F294, size: 0x8, addend: 0x0, symName: __ZNSt3__112__hash_tableINS_17__hash_value_typeINS_12basic_stringIcNS_11char_traitsIcEENS_9allocatorIcEEEES7_EENS_22__unordered_map_hasherIS7_NS_4pairIKS7_S7_EENS_4hashIS7_EENS_8equal_toIS7_EEEENS_21__unordered_map_equalIS7_SC_SG_SE_EENS5_ISC_EEE22__deallocate_node_listB9nqe220108EPNS_16__hash_node_baseIPNS_11__hash_nodeIS8_PvEEEE, symObjAddr: 0x7200, symBinAddr: 0x10000A5AC, symSize: 0x64 }
  - { offset: 0x2F2E6, size: 0x8, addend: 0x0, symName: __ZNSt3__110unique_ptrIA_PNS_16__hash_node_baseIPNS_11__hash_nodeINS_17__hash_value_typeINS_12basic_stringIcNS_11char_traitsIcEENS_9allocatorIcEEEES9_EEPvEEEENS_25__bucket_list_deallocatorINS7_ISF_EEEEED1B9nqe220108Ev, symObjAddr: 0x7264, symBinAddr: 0x10000A610, symSize: 0x2C }
  - { offset: 0x2F314, size: 0x8, addend: 0x0, symName: __ZNSt3__112__hash_tableINS_17__hash_value_typeINS_12basic_stringIcNS_11char_traitsIcEENS_9allocatorIcEEEES7_EENS_22__unordered_map_hasherIS7_NS_4pairIKS7_S7_EENS_4hashIS7_EENS_8equal_toIS7_EEEENS_21__unordered_map_equalIS7_SC_SG_SE_EENS5_ISC_EEE17__deallocate_nodeB9nqe220108EPNS_11__hash_nodeIS8_PvEE, symObjAddr: 0x7290, symBinAddr: 0x10000A63C, symSize: 0x78 }
  - { offset: 0x2F358, size: 0x8, addend: 0x0, symName: __ZNSt3__116__hash_node_baseIPNS_11__hash_nodeINS_17__hash_value_typeINS_12basic_stringIcNS_11char_traitsIcEENS_9allocatorIcEEEES8_EEPvEEE8__upcastB9nqe220108Ev, symObjAddr: 0x7308, symBinAddr: 0x10000A6B4, symSize: 0x24 }
  - { offset: 0x2F37E, size: 0x8, addend: 0x0, symName: __ZNSt3__112__hash_tableINS_17__hash_value_typeINS_12basic_stringIcNS_11char_traitsIcEENS_9allocatorIcEEEES7_EENS_22__unordered_map_hasherIS7_NS_4pairIKS7_S7_EENS_4hashIS7_EENS_8equal_toIS7_EEEENS_21__unordered_map_equalIS7_SC_SG_SE_EENS5_ISC_EEE12__node_allocB9nqe220108Ev, symObjAddr: 0x732C, symBinAddr: 0x10000A6D8, symSize: 0x18 }
  - { offset: 0x2F3AA, size: 0x8, addend: 0x0, symName: __ZNSt3__116allocator_traitsINS_9allocatorINS_11__hash_nodeINS_17__hash_value_typeINS_12basic_stringIcNS_11char_traitsIcEENS1_IcEEEES8_EEPvEEEEE7destroyB9nqe220108INS_4pairIKS8_S8_EETnNS_9enable_ifIXnt15__has_destroy_vISC_PT_EEiE4typeELi0EEEvRSC_SK_, symObjAddr: 0x7344, symBinAddr: 0x10000A6F0, symSize: 0x28 }
  - { offset: 0x2F3E8, size: 0x8, addend: 0x0, symName: __ZNSt3__111__hash_nodeINS_17__hash_value_typeINS_12basic_stringIcNS_11char_traitsIcEENS_9allocatorIcEEEES7_EEPvE11__get_valueB9nqe220108Ev, symObjAddr: 0x736C, symBinAddr: 0x10000A718, symSize: 0x18 }
  - { offset: 0x2F40E, size: 0x8, addend: 0x0, symName: __ZNSt3__116allocator_traitsINS_9allocatorINS_11__hash_nodeINS_17__hash_value_typeINS_12basic_stringIcNS_11char_traitsIcEENS1_IcEEEES8_EEPvEEEEE10deallocateB9nqe220108ERSC_PSB_m, symObjAddr: 0x73BC, symBinAddr: 0x10000A768, symSize: 0x34 }
  - { offset: 0x2F450, size: 0x8, addend: 0x0, symName: __ZNSt3__111__hash_nodeINS_17__hash_value_typeINS_12basic_stringIcNS_11char_traitsIcEENS_9allocatorIcEEEES7_EEPvED1B9nqe220108Ev, symObjAddr: 0x7414, symBinAddr: 0x10000A7C0, symSize: 0x2C }
  - { offset: 0x2F47E, size: 0x8, addend: 0x0, symName: __ZNSt3__111__hash_nodeINS_17__hash_value_typeINS_12basic_stringIcNS_11char_traitsIcEENS_9allocatorIcEEEES7_EEPvED2B9nqe220108Ev, symObjAddr: 0x7440, symBinAddr: 0x10000A7EC, symSize: 0x14 }
  - { offset: 0x2F4AC, size: 0x8, addend: 0x0, symName: __ZNSt3__19allocatorINS_11__hash_nodeINS_17__hash_value_typeINS_12basic_stringIcNS_11char_traitsIcEENS0_IcEEEES7_EEPvEEE10deallocateB9nqe220108EPSA_m, symObjAddr: 0x7454, symBinAddr: 0x10000A800, symSize: 0x34 }
  - { offset: 0x2F4F4, size: 0x8, addend: 0x0, symName: __ZNSt3__114pointer_traitsIPNS_16__hash_node_baseIPNS_11__hash_nodeINS_17__hash_value_typeINS_12basic_stringIcNS_11char_traitsIcEENS_9allocatorIcEEEES9_EEPvEEEEE10pointer_toB9nqe220108ERSE_, symObjAddr: 0x74C0, symBinAddr: 0x10000A86C, symSize: 0x14 }
  - { offset: 0x2F517, size: 0x8, addend: 0x0, symName: __ZNSt3__110unique_ptrIA_PNS_16__hash_node_baseIPNS_11__hash_nodeINS_17__hash_value_typeINS_12basic_stringIcNS_11char_traitsIcEENS_9allocatorIcEEEES9_EEPvEEEENS_25__bucket_list_deallocatorINS7_ISF_EEEEED2B9nqe220108Ev, symObjAddr: 0x74D4, symBinAddr: 0x10000A880, symSize: 0x30 }
  - { offset: 0x2F545, size: 0x8, addend: 0x0, symName: __ZNSt3__110unique_ptrIA_PNS_16__hash_node_baseIPNS_11__hash_nodeINS_17__hash_value_typeINS_12basic_stringIcNS_11char_traitsIcEENS_9allocatorIcEEEES9_EEPvEEEENS_25__bucket_list_deallocatorINS7_ISF_EEEEE5resetB9nqe220108EDn, symObjAddr: 0x7504, symBinAddr: 0x10000A8B0, symSize: 0x54 }
  - { offset: 0x2F585, size: 0x8, addend: 0x0, symName: __ZNSt3__125__bucket_list_deallocatorINS_9allocatorIPNS_16__hash_node_baseIPNS_11__hash_nodeINS_17__hash_value_typeINS_12basic_stringIcNS_11char_traitsIcEENS1_IcEEEES9_EEPvEEEEEEEclB9nqe220108EPSF_, symObjAddr: 0x7558, symBinAddr: 0x10000A904, symSize: 0x58 }
  - { offset: 0x2F5BA, size: 0x8, addend: 0x0, symName: __ZNSt3__116allocator_traitsINS_9allocatorIPNS_16__hash_node_baseIPNS_11__hash_nodeINS_17__hash_value_typeINS_12basic_stringIcNS_11char_traitsIcEENS1_IcEEEES9_EEPvEEEEEEE10deallocateB9nqe220108ERSG_PSF_m, symObjAddr: 0x75B0, symBinAddr: 0x10000A95C, symSize: 0x34 }
  - { offset: 0x2F5FC, size: 0x8, addend: 0x0, symName: __ZNSt3__125__bucket_list_deallocatorINS_9allocatorIPNS_16__hash_node_baseIPNS_11__hash_nodeINS_17__hash_value_typeINS_12basic_stringIcNS_11char_traitsIcEENS1_IcEEEES9_EEPvEEEEEEE7__allocB9nqe220108Ev, symObjAddr: 0x75E4, symBinAddr: 0x10000A990, symSize: 0x14 }
  - { offset: 0x2F622, size: 0x8, addend: 0x0, symName: __ZNSt3__125__bucket_list_deallocatorINS_9allocatorIPNS_16__hash_node_baseIPNS_11__hash_nodeINS_17__hash_value_typeINS_12basic_stringIcNS_11char_traitsIcEENS1_IcEEEES9_EEPvEEEEEEE4sizeB9nqe220108Ev, symObjAddr: 0x75F8, symBinAddr: 0x10000A9A4, symSize: 0x14 }
  - { offset: 0x2F648, size: 0x8, addend: 0x0, symName: __ZNSt3__19allocatorIPNS_16__hash_node_baseIPNS_11__hash_nodeINS_17__hash_value_typeINS_12basic_stringIcNS_11char_traitsIcEENS0_IcEEEES8_EEPvEEEEE10deallocateB9nqe220108EPSE_m, symObjAddr: 0x760C, symBinAddr: 0x10000A9B8, symSize: 0x34 }
  - { offset: 0x2F68A, size: 0x8, addend: 0x0, symName: __ZNSt3__113unordered_mapINS_4pairINS_12basic_stringIcNS_11char_traitsIcEENS_9allocatorIcEEEES7_EEi9pair_hashNS_8equal_toIS8_EENS5_INS1_IKS8_iEEEEED2B9nqe220108Ev, symObjAddr: 0x7678, symBinAddr: 0x10000AA24, symSize: 0x2C }
  - { offset: 0x2F6B8, size: 0x8, addend: 0x0, symName: __ZNSt3__112__hash_tableINS_17__hash_value_typeINS_4pairINS_12basic_stringIcNS_11char_traitsIcEENS_9allocatorIcEEEES8_EEiEENS_22__unordered_map_hasherIS9_NS2_IKS9_iEE9pair_hashNS_8equal_toIS9_EEEENS_21__unordered_map_equalIS9_SD_SG_SE_EENS6_ISD_EEED1Ev, symObjAddr: 0x76A4, symBinAddr: 0x10000AA50, symSize: 0x2C }
  - { offset: 0x2F6E8, size: 0x8, addend: 0x0, symName: __ZNSt3__112__hash_tableINS_17__hash_value_typeINS_4pairINS_12basic_stringIcNS_11char_traitsIcEENS_9allocatorIcEEEES8_EEiEENS_22__unordered_map_hasherIS9_NS2_IKS9_iEE9pair_hashNS_8equal_toIS9_EEEENS_21__unordered_map_equalIS9_SD_SG_SE_EENS6_ISD_EEED2Ev, symObjAddr: 0x76D0, symBinAddr: 0x10000AA7C, symSize: 0x38 }
  - { offset: 0x2F718, size: 0x8, addend: 0x0, symName: __ZNSt3__112__hash_tableINS_17__hash_value_typeINS_4pairINS_12basic_stringIcNS_11char_traitsIcEENS_9allocatorIcEEEES8_EEiEENS_22__unordered_map_hasherIS9_NS2_IKS9_iEE9pair_hashNS_8equal_toIS9_EEEENS_21__unordered_map_equalIS9_SD_SG_SE_EENS6_ISD_EEE22__deallocate_node_listB9nqe220108EPNS_16__hash_node_baseIPNS_11__hash_nodeISA_PvEEEE, symObjAddr: 0x7708, symBinAddr: 0x10000AAB4, symSize: 0x64 }
  - { offset: 0x2F76A, size: 0x8, addend: 0x0, symName: __ZNSt3__110unique_ptrIA_PNS_16__hash_node_baseIPNS_11__hash_nodeINS_17__hash_value_typeINS_4pairINS_12basic_stringIcNS_11char_traitsIcEENS_9allocatorIcEEEESA_EEiEEPvEEEENS_25__bucket_list_deallocatorINS8_ISH_EEEEED1B9nqe220108Ev, symObjAddr: 0x776C, symBinAddr: 0x10000AB18, symSize: 0x2C }
  - { offset: 0x2F798, size: 0x8, addend: 0x0, symName: __ZNSt3__112__hash_tableINS_17__hash_value_typeINS_4pairINS_12basic_stringIcNS_11char_traitsIcEENS_9allocatorIcEEEES8_EEiEENS_22__unordered_map_hasherIS9_NS2_IKS9_iEE9pair_hashNS_8equal_toIS9_EEEENS_21__unordered_map_equalIS9_SD_SG_SE_EENS6_ISD_EEE17__deallocate_nodeB9nqe220108EPNS_11__hash_nodeISA_PvEE, symObjAddr: 0x7798, symBinAddr: 0x10000AB44, symSize: 0x78 }
  - { offset: 0x2F7DC, size: 0x8, addend: 0x0, symName: __ZNSt3__116__hash_node_baseIPNS_11__hash_nodeINS_17__hash_value_typeINS_4pairINS_12basic_stringIcNS_11char_traitsIcEENS_9allocatorIcEEEES9_EEiEEPvEEE8__upcastB9nqe220108Ev, symObjAddr: 0x7810, symBinAddr: 0x10000ABBC, symSize: 0x24 }
  - { offset: 0x2F802, size: 0x8, addend: 0x0, symName: __ZNSt3__112__hash_tableINS_17__hash_value_typeINS_4pairINS_12basic_stringIcNS_11char_traitsIcEENS_9allocatorIcEEEES8_EEiEENS_22__unordered_map_hasherIS9_NS2_IKS9_iEE9pair_hashNS_8equal_toIS9_EEEENS_21__unordered_map_equalIS9_SD_SG_SE_EENS6_ISD_EEE12__node_allocB9nqe220108Ev, symObjAddr: 0x7834, symBinAddr: 0x10000ABE0, symSize: 0x18 }
  - { offset: 0x2F82E, size: 0x8, addend: 0x0, symName: __ZNSt3__116allocator_traitsINS_9allocatorINS_11__hash_nodeINS_17__hash_value_typeINS_4pairINS_12basic_stringIcNS_11char_traitsIcEENS1_IcEEEES9_EEiEEPvEEEEE7destroyB9nqe220108INS4_IKSA_iEETnNS_9enable_ifIXnt15__has_destroy_vISE_PT_EEiE4typeELi0EEEvRSE_SL_, symObjAddr: 0x784C, symBinAddr: 0x10000ABF8, symSize: 0x28 }
  - { offset: 0x2F86C, size: 0x8, addend: 0x0, symName: __ZNSt3__111__hash_nodeINS_17__hash_value_typeINS_4pairINS_12basic_stringIcNS_11char_traitsIcEENS_9allocatorIcEEEES8_EEiEEPvE11__get_valueB9nqe220108Ev, symObjAddr: 0x7874, symBinAddr: 0x10000AC20, symSize: 0x18 }
  - { offset: 0x2F892, size: 0x8, addend: 0x0, symName: __ZNSt3__116allocator_traitsINS_9allocatorINS_11__hash_nodeINS_17__hash_value_typeINS_4pairINS_12basic_stringIcNS_11char_traitsIcEENS1_IcEEEES9_EEiEEPvEEEEE10deallocateB9nqe220108ERSE_PSD_m, symObjAddr: 0x78C4, symBinAddr: 0x10000AC70, symSize: 0x34 }
  - { offset: 0x2F8D4, size: 0x8, addend: 0x0, symName: __ZNSt3__14pairIKNS0_INS_12basic_stringIcNS_11char_traitsIcEENS_9allocatorIcEEEES6_EEiED1Ev, symObjAddr: 0x791C, symBinAddr: 0x10000ACC8, symSize: 0x2C }
  - { offset: 0x2F904, size: 0x8, addend: 0x0, symName: __ZNSt3__14pairIKNS0_INS_12basic_stringIcNS_11char_traitsIcEENS_9allocatorIcEEEES6_EEiED2Ev, symObjAddr: 0x7948, symBinAddr: 0x10000ACF4, symSize: 0x2C }
  - { offset: 0x2F934, size: 0x8, addend: 0x0, symName: __ZNSt3__14pairINS_12basic_stringIcNS_11char_traitsIcEENS_9allocatorIcEEEES6_ED1Ev, symObjAddr: 0x7974, symBinAddr: 0x10000AD20, symSize: 0x2C }
  - { offset: 0x2F964, size: 0x8, addend: 0x0, symName: __ZNSt3__14pairINS_12basic_stringIcNS_11char_traitsIcEENS_9allocatorIcEEEES6_ED2Ev, symObjAddr: 0x79A0, symBinAddr: 0x10000AD4C, symSize: 0x38 }
  - { offset: 0x2F994, size: 0x8, addend: 0x0, symName: __ZNSt3__111__hash_nodeINS_17__hash_value_typeINS_4pairINS_12basic_stringIcNS_11char_traitsIcEENS_9allocatorIcEEEES8_EEiEEPvED1B9nqe220108Ev, symObjAddr: 0x79D8, symBinAddr: 0x10000AD84, symSize: 0x2C }
  - { offset: 0x2F9C2, size: 0x8, addend: 0x0, symName: __ZNSt3__111__hash_nodeINS_17__hash_value_typeINS_4pairINS_12basic_stringIcNS_11char_traitsIcEENS_9allocatorIcEEEES8_EEiEEPvED2B9nqe220108Ev, symObjAddr: 0x7A04, symBinAddr: 0x10000ADB0, symSize: 0x14 }
  - { offset: 0x2F9F0, size: 0x8, addend: 0x0, symName: __ZNSt3__19allocatorINS_11__hash_nodeINS_17__hash_value_typeINS_4pairINS_12basic_stringIcNS_11char_traitsIcEENS0_IcEEEES8_EEiEEPvEEE10deallocateB9nqe220108EPSC_m, symObjAddr: 0x7A18, symBinAddr: 0x10000ADC4, symSize: 0x34 }
  - { offset: 0x2FA38, size: 0x8, addend: 0x0, symName: __ZNSt3__114pointer_traitsIPNS_16__hash_node_baseIPNS_11__hash_nodeINS_17__hash_value_typeINS_4pairINS_12basic_stringIcNS_11char_traitsIcEENS_9allocatorIcEEEESA_EEiEEPvEEEEE10pointer_toB9nqe220108ERSG_, symObjAddr: 0x7A88, symBinAddr: 0x10000AE34, symSize: 0x14 }
  - { offset: 0x2FA5B, size: 0x8, addend: 0x0, symName: __ZNSt3__110unique_ptrIA_PNS_16__hash_node_baseIPNS_11__hash_nodeINS_17__hash_value_typeINS_4pairINS_12basic_stringIcNS_11char_traitsIcEENS_9allocatorIcEEEESA_EEiEEPvEEEENS_25__bucket_list_deallocatorINS8_ISH_EEEEED2B9nqe220108Ev, symObjAddr: 0x7A9C, symBinAddr: 0x10000AE48, symSize: 0x30 }
  - { offset: 0x2FA89, size: 0x8, addend: 0x0, symName: __ZNSt3__110unique_ptrIA_PNS_16__hash_node_baseIPNS_11__hash_nodeINS_17__hash_value_typeINS_4pairINS_12basic_stringIcNS_11char_traitsIcEENS_9allocatorIcEEEESA_EEiEEPvEEEENS_25__bucket_list_deallocatorINS8_ISH_EEEEE5resetB9nqe220108EDn, symObjAddr: 0x7ACC, symBinAddr: 0x10000AE78, symSize: 0x54 }
  - { offset: 0x2FAC9, size: 0x8, addend: 0x0, symName: __ZNSt3__125__bucket_list_deallocatorINS_9allocatorIPNS_16__hash_node_baseIPNS_11__hash_nodeINS_17__hash_value_typeINS_4pairINS_12basic_stringIcNS_11char_traitsIcEENS1_IcEEEESA_EEiEEPvEEEEEEEclB9nqe220108EPSH_, symObjAddr: 0x7B20, symBinAddr: 0x10000AECC, symSize: 0x58 }
  - { offset: 0x2FAFE, size: 0x8, addend: 0x0, symName: __ZNSt3__116allocator_traitsINS_9allocatorIPNS_16__hash_node_baseIPNS_11__hash_nodeINS_17__hash_value_typeINS_4pairINS_12basic_stringIcNS_11char_traitsIcEENS1_IcEEEESA_EEiEEPvEEEEEEE10deallocateB9nqe220108ERSI_PSH_m, symObjAddr: 0x7B78, symBinAddr: 0x10000AF24, symSize: 0x34 }
  - { offset: 0x2FB40, size: 0x8, addend: 0x0, symName: __ZNSt3__125__bucket_list_deallocatorINS_9allocatorIPNS_16__hash_node_baseIPNS_11__hash_nodeINS_17__hash_value_typeINS_4pairINS_12basic_stringIcNS_11char_traitsIcEENS1_IcEEEESA_EEiEEPvEEEEEEE7__allocB9nqe220108Ev, symObjAddr: 0x7BAC, symBinAddr: 0x10000AF58, symSize: 0x14 }
  - { offset: 0x2FB66, size: 0x8, addend: 0x0, symName: __ZNSt3__125__bucket_list_deallocatorINS_9allocatorIPNS_16__hash_node_baseIPNS_11__hash_nodeINS_17__hash_value_typeINS_4pairINS_12basic_stringIcNS_11char_traitsIcEENS1_IcEEEESA_EEiEEPvEEEEEEE4sizeB9nqe220108Ev, symObjAddr: 0x7BC0, symBinAddr: 0x10000AF6C, symSize: 0x14 }
  - { offset: 0x2FB8C, size: 0x8, addend: 0x0, symName: __ZNSt3__19allocatorIPNS_16__hash_node_baseIPNS_11__hash_nodeINS_17__hash_value_typeINS_4pairINS_12basic_stringIcNS_11char_traitsIcEENS0_IcEEEES9_EEiEEPvEEEEE10deallocateB9nqe220108EPSG_m, symObjAddr: 0x7BD4, symBinAddr: 0x10000AF80, symSize: 0x34 }
  - { offset: 0x2FBCE, size: 0x8, addend: 0x0, symName: __ZNSt3__113unordered_mapINS_12basic_stringIcNS_11char_traitsIcEENS_9allocatorIcEEEEiNS_4hashIS6_EENS_8equal_toIS6_EENS4_INS_4pairIKS6_iEEEEED2B9nqe220108Ev, symObjAddr: 0x7C40, symBinAddr: 0x10000AFEC, symSize: 0x2C }
  - { offset: 0x2FBFC, size: 0x8, addend: 0x0, symName: __ZNSt3__112__hash_tableINS_17__hash_value_typeINS_12basic_stringIcNS_11char_traitsIcEENS_9allocatorIcEEEEiEENS_22__unordered_map_hasherIS7_NS_4pairIKS7_iEENS_4hashIS7_EENS_8equal_toIS7_EEEENS_21__unordered_map_equalIS7_SC_SG_SE_EENS5_ISC_EEED1Ev, symObjAddr: 0x7C6C, symBinAddr: 0x10000B018, symSize: 0x2C }
  - { offset: 0x2FC2C, size: 0x8, addend: 0x0, symName: __ZNSt3__112__hash_tableINS_17__hash_value_typeINS_12basic_stringIcNS_11char_traitsIcEENS_9allocatorIcEEEEiEENS_22__unordered_map_hasherIS7_NS_4pairIKS7_iEENS_4hashIS7_EENS_8equal_toIS7_EEEENS_21__unordered_map_equalIS7_SC_SG_SE_EENS5_ISC_EEED2Ev, symObjAddr: 0x7C98, symBinAddr: 0x10000B044, symSize: 0x38 }
  - { offset: 0x2FC5C, size: 0x8, addend: 0x0, symName: __ZNSt3__112__hash_tableINS_17__hash_value_typeINS_12basic_stringIcNS_11char_traitsIcEENS_9allocatorIcEEEEiEENS_22__unordered_map_hasherIS7_NS_4pairIKS7_iEENS_4hashIS7_EENS_8equal_toIS7_EEEENS_21__unordered_map_equalIS7_SC_SG_SE_EENS5_ISC_EEE22__deallocate_node_listB9nqe220108EPNS_16__hash_node_baseIPNS_11__hash_nodeIS8_PvEEEE, symObjAddr: 0x7CD0, symBinAddr: 0x10000B07C, symSize: 0x64 }
  - { offset: 0x2FCAE, size: 0x8, addend: 0x0, symName: __ZNSt3__110unique_ptrIA_PNS_16__hash_node_baseIPNS_11__hash_nodeINS_17__hash_value_typeINS_12basic_stringIcNS_11char_traitsIcEENS_9allocatorIcEEEEiEEPvEEEENS_25__bucket_list_deallocatorINS7_ISF_EEEEED1B9nqe220108Ev, symObjAddr: 0x7D34, symBinAddr: 0x10000B0E0, symSize: 0x2C }
  - { offset: 0x2FCDC, size: 0x8, addend: 0x0, symName: __ZNSt3__112__hash_tableINS_17__hash_value_typeINS_12basic_stringIcNS_11char_traitsIcEENS_9allocatorIcEEEEiEENS_22__unordered_map_hasherIS7_NS_4pairIKS7_iEENS_4hashIS7_EENS_8equal_toIS7_EEEENS_21__unordered_map_equalIS7_SC_SG_SE_EENS5_ISC_EEE17__deallocate_nodeB9nqe220108EPNS_11__hash_nodeIS8_PvEE, symObjAddr: 0x7D60, symBinAddr: 0x10000B10C, symSize: 0x78 }
  - { offset: 0x2FD20, size: 0x8, addend: 0x0, symName: __ZNSt3__116__hash_node_baseIPNS_11__hash_nodeINS_17__hash_value_typeINS_12basic_stringIcNS_11char_traitsIcEENS_9allocatorIcEEEEiEEPvEEE8__upcastB9nqe220108Ev, symObjAddr: 0x7DD8, symBinAddr: 0x10000B184, symSize: 0x24 }
  - { offset: 0x2FD46, size: 0x8, addend: 0x0, symName: __ZNSt3__112__hash_tableINS_17__hash_value_typeINS_12basic_stringIcNS_11char_traitsIcEENS_9allocatorIcEEEEiEENS_22__unordered_map_hasherIS7_NS_4pairIKS7_iEENS_4hashIS7_EENS_8equal_toIS7_EEEENS_21__unordered_map_equalIS7_SC_SG_SE_EENS5_ISC_EEE12__node_allocB9nqe220108Ev, symObjAddr: 0x7DFC, symBinAddr: 0x10000B1A8, symSize: 0x18 }
  - { offset: 0x2FD72, size: 0x8, addend: 0x0, symName: __ZNSt3__116allocator_traitsINS_9allocatorINS_11__hash_nodeINS_17__hash_value_typeINS_12basic_stringIcNS_11char_traitsIcEENS1_IcEEEEiEEPvEEEEE7destroyB9nqe220108INS_4pairIKS8_iEETnNS_9enable_ifIXnt15__has_destroy_vISC_PT_EEiE4typeELi0EEEvRSC_SK_, symObjAddr: 0x7E14, symBinAddr: 0x10000B1C0, symSize: 0x28 }
  - { offset: 0x2FDB0, size: 0x8, addend: 0x0, symName: __ZNSt3__111__hash_nodeINS_17__hash_value_typeINS_12basic_stringIcNS_11char_traitsIcEENS_9allocatorIcEEEEiEEPvE11__get_valueB9nqe220108Ev, symObjAddr: 0x7E3C, symBinAddr: 0x10000B1E8, symSize: 0x18 }
  - { offset: 0x2FDD6, size: 0x8, addend: 0x0, symName: __ZNSt3__116allocator_traitsINS_9allocatorINS_11__hash_nodeINS_17__hash_value_typeINS_12basic_stringIcNS_11char_traitsIcEENS1_IcEEEEiEEPvEEEEE10deallocateB9nqe220108ERSC_PSB_m, symObjAddr: 0x7E8C, symBinAddr: 0x10000B238, symSize: 0x34 }
  - { offset: 0x2FE18, size: 0x8, addend: 0x0, symName: __ZNSt3__111__hash_nodeINS_17__hash_value_typeINS_12basic_stringIcNS_11char_traitsIcEENS_9allocatorIcEEEEiEEPvED1B9nqe220108Ev, symObjAddr: 0x7EE4, symBinAddr: 0x10000B290, symSize: 0x2C }
  - { offset: 0x2FE46, size: 0x8, addend: 0x0, symName: __ZNSt3__111__hash_nodeINS_17__hash_value_typeINS_12basic_stringIcNS_11char_traitsIcEENS_9allocatorIcEEEEiEEPvED2B9nqe220108Ev, symObjAddr: 0x7F10, symBinAddr: 0x10000B2BC, symSize: 0x14 }
  - { offset: 0x2FE74, size: 0x8, addend: 0x0, symName: __ZNSt3__19allocatorINS_11__hash_nodeINS_17__hash_value_typeINS_12basic_stringIcNS_11char_traitsIcEENS0_IcEEEEiEEPvEEE10deallocateB9nqe220108EPSA_m, symObjAddr: 0x7F24, symBinAddr: 0x10000B2D0, symSize: 0x34 }
  - { offset: 0x2FEBC, size: 0x8, addend: 0x0, symName: __ZNSt3__114pointer_traitsIPNS_16__hash_node_baseIPNS_11__hash_nodeINS_17__hash_value_typeINS_12basic_stringIcNS_11char_traitsIcEENS_9allocatorIcEEEEiEEPvEEEEE10pointer_toB9nqe220108ERSE_, symObjAddr: 0x7F94, symBinAddr: 0x10000B340, symSize: 0x14 }
  - { offset: 0x2FEDF, size: 0x8, addend: 0x0, symName: __ZNSt3__110unique_ptrIA_PNS_16__hash_node_baseIPNS_11__hash_nodeINS_17__hash_value_typeINS_12basic_stringIcNS_11char_traitsIcEENS_9allocatorIcEEEEiEEPvEEEENS_25__bucket_list_deallocatorINS7_ISF_EEEEED2B9nqe220108Ev, symObjAddr: 0x7FA8, symBinAddr: 0x10000B354, symSize: 0x30 }
  - { offset: 0x2FF0D, size: 0x8, addend: 0x0, symName: __ZNSt3__110unique_ptrIA_PNS_16__hash_node_baseIPNS_11__hash_nodeINS_17__hash_value_typeINS_12basic_stringIcNS_11char_traitsIcEENS_9allocatorIcEEEEiEEPvEEEENS_25__bucket_list_deallocatorINS7_ISF_EEEEE5resetB9nqe220108EDn, symObjAddr: 0x7FD8, symBinAddr: 0x10000B384, symSize: 0x54 }
  - { offset: 0x2FF4D, size: 0x8, addend: 0x0, symName: __ZNSt3__125__bucket_list_deallocatorINS_9allocatorIPNS_16__hash_node_baseIPNS_11__hash_nodeINS_17__hash_value_typeINS_12basic_stringIcNS_11char_traitsIcEENS1_IcEEEEiEEPvEEEEEEEclB9nqe220108EPSF_, symObjAddr: 0x802C, symBinAddr: 0x10000B3D8, symSize: 0x58 }
  - { offset: 0x2FF82, size: 0x8, addend: 0x0, symName: __ZNSt3__116allocator_traitsINS_9allocatorIPNS_16__hash_node_baseIPNS_11__hash_nodeINS_17__hash_value_typeINS_12basic_stringIcNS_11char_traitsIcEENS1_IcEEEEiEEPvEEEEEEE10deallocateB9nqe220108ERSG_PSF_m, symObjAddr: 0x8084, symBinAddr: 0x10000B430, symSize: 0x34 }
  - { offset: 0x2FFC4, size: 0x8, addend: 0x0, symName: __ZNSt3__125__bucket_list_deallocatorINS_9allocatorIPNS_16__hash_node_baseIPNS_11__hash_nodeINS_17__hash_value_typeINS_12basic_stringIcNS_11char_traitsIcEENS1_IcEEEEiEEPvEEEEEEE7__allocB9nqe220108Ev, symObjAddr: 0x80B8, symBinAddr: 0x10000B464, symSize: 0x14 }
  - { offset: 0x2FFEA, size: 0x8, addend: 0x0, symName: __ZNSt3__125__bucket_list_deallocatorINS_9allocatorIPNS_16__hash_node_baseIPNS_11__hash_nodeINS_17__hash_value_typeINS_12basic_stringIcNS_11char_traitsIcEENS1_IcEEEEiEEPvEEEEEEE4sizeB9nqe220108Ev, symObjAddr: 0x80CC, symBinAddr: 0x10000B478, symSize: 0x14 }
  - { offset: 0x30010, size: 0x8, addend: 0x0, symName: __ZNSt3__19allocatorIPNS_16__hash_node_baseIPNS_11__hash_nodeINS_17__hash_value_typeINS_12basic_stringIcNS_11char_traitsIcEENS0_IcEEEEiEEPvEEEEE10deallocateB9nqe220108EPSE_m, symObjAddr: 0x80E0, symBinAddr: 0x10000B48C, symSize: 0x34 }
  - { offset: 0x30052, size: 0x8, addend: 0x0, symName: __ZNSt3__113unordered_mapIiNS_12basic_stringIcNS_11char_traitsIcEENS_9allocatorIcEEEENS_4hashIiEENS_8equal_toIiEENS4_INS_4pairIKiS6_EEEEED2B9nqe220108Ev, symObjAddr: 0x814C, symBinAddr: 0x10000B4F8, symSize: 0x2C }
  - { offset: 0x30080, size: 0x8, addend: 0x0, symName: __ZNSt3__112__hash_tableINS_17__hash_value_typeIiNS_12basic_stringIcNS_11char_traitsIcEENS_9allocatorIcEEEEEENS_22__unordered_map_hasherIiNS_4pairIKiS7_EENS_4hashIiEENS_8equal_toIiEEEENS_21__unordered_map_equalIiSC_SG_SE_EENS5_ISC_EEED1Ev, symObjAddr: 0x8178, symBinAddr: 0x10000B524, symSize: 0x2C }
  - { offset: 0x300B0, size: 0x8, addend: 0x0, symName: __ZNSt3__112__hash_tableINS_17__hash_value_typeIiNS_12basic_stringIcNS_11char_traitsIcEENS_9allocatorIcEEEEEENS_22__unordered_map_hasherIiNS_4pairIKiS7_EENS_4hashIiEENS_8equal_toIiEEEENS_21__unordered_map_equalIiSC_SG_SE_EENS5_ISC_EEED2Ev, symObjAddr: 0x81A4, symBinAddr: 0x10000B550, symSize: 0x38 }
  - { offset: 0x300E0, size: 0x8, addend: 0x0, symName: __ZNSt3__112__hash_tableINS_17__hash_value_typeIiNS_12basic_stringIcNS_11char_traitsIcEENS_9allocatorIcEEEEEENS_22__unordered_map_hasherIiNS_4pairIKiS7_EENS_4hashIiEENS_8equal_toIiEEEENS_21__unordered_map_equalIiSC_SG_SE_EENS5_ISC_EEE22__deallocate_node_listB9nqe220108EPNS_16__hash_node_baseIPNS_11__hash_nodeIS8_PvEEEE, symObjAddr: 0x81DC, symBinAddr: 0x10000B588, symSize: 0x64 }
  - { offset: 0x30132, size: 0x8, addend: 0x0, symName: __ZNSt3__110unique_ptrIA_PNS_16__hash_node_baseIPNS_11__hash_nodeINS_17__hash_value_typeIiNS_12basic_stringIcNS_11char_traitsIcEENS_9allocatorIcEEEEEEPvEEEENS_25__bucket_list_deallocatorINS7_ISF_EEEEED1B9nqe220108Ev, symObjAddr: 0x8240, symBinAddr: 0x10000B5EC, symSize: 0x2C }
  - { offset: 0x30160, size: 0x8, addend: 0x0, symName: __ZNSt3__112__hash_tableINS_17__hash_value_typeIiNS_12basic_stringIcNS_11char_traitsIcEENS_9allocatorIcEEEEEENS_22__unordered_map_hasherIiNS_4pairIKiS7_EENS_4hashIiEENS_8equal_toIiEEEENS_21__unordered_map_equalIiSC_SG_SE_EENS5_ISC_EEE17__deallocate_nodeB9nqe220108EPNS_11__hash_nodeIS8_PvEE, symObjAddr: 0x826C, symBinAddr: 0x10000B618, symSize: 0x78 }
  - { offset: 0x301A4, size: 0x8, addend: 0x0, symName: __ZNSt3__116__hash_node_baseIPNS_11__hash_nodeINS_17__hash_value_typeIiNS_12basic_stringIcNS_11char_traitsIcEENS_9allocatorIcEEEEEEPvEEE8__upcastB9nqe220108Ev, symObjAddr: 0x82E4, symBinAddr: 0x10000B690, symSize: 0x24 }
  - { offset: 0x301CA, size: 0x8, addend: 0x0, symName: __ZNSt3__112__hash_tableINS_17__hash_value_typeIiNS_12basic_stringIcNS_11char_traitsIcEENS_9allocatorIcEEEEEENS_22__unordered_map_hasherIiNS_4pairIKiS7_EENS_4hashIiEENS_8equal_toIiEEEENS_21__unordered_map_equalIiSC_SG_SE_EENS5_ISC_EEE12__node_allocB9nqe220108Ev, symObjAddr: 0x8308, symBinAddr: 0x10000B6B4, symSize: 0x18 }
  - { offset: 0x301F6, size: 0x8, addend: 0x0, symName: __ZNSt3__116allocator_traitsINS_9allocatorINS_11__hash_nodeINS_17__hash_value_typeIiNS_12basic_stringIcNS_11char_traitsIcEENS1_IcEEEEEEPvEEEEE7destroyB9nqe220108INS_4pairIKiS8_EETnNS_9enable_ifIXnt15__has_destroy_vISC_PT_EEiE4typeELi0EEEvRSC_SK_, symObjAddr: 0x8320, symBinAddr: 0x10000B6CC, symSize: 0x28 }
  - { offset: 0x30234, size: 0x8, addend: 0x0, symName: __ZNSt3__111__hash_nodeINS_17__hash_value_typeIiNS_12basic_stringIcNS_11char_traitsIcEENS_9allocatorIcEEEEEEPvE11__get_valueB9nqe220108Ev, symObjAddr: 0x8348, symBinAddr: 0x10000B6F4, symSize: 0x18 }
  - { offset: 0x3025A, size: 0x8, addend: 0x0, symName: __ZNSt3__116allocator_traitsINS_9allocatorINS_11__hash_nodeINS_17__hash_value_typeIiNS_12basic_stringIcNS_11char_traitsIcEENS1_IcEEEEEEPvEEEEE10deallocateB9nqe220108ERSC_PSB_m, symObjAddr: 0x8398, symBinAddr: 0x10000B744, symSize: 0x34 }
  - { offset: 0x3029C, size: 0x8, addend: 0x0, symName: __ZNSt3__14pairIKiNS_12basic_stringIcNS_11char_traitsIcEENS_9allocatorIcEEEEED1Ev, symObjAddr: 0x83F0, symBinAddr: 0x10000B79C, symSize: 0x2C }
  - { offset: 0x302CC, size: 0x8, addend: 0x0, symName: __ZNSt3__14pairIKiNS_12basic_stringIcNS_11char_traitsIcEENS_9allocatorIcEEEEED2Ev, symObjAddr: 0x841C, symBinAddr: 0x10000B7C8, symSize: 0x30 }
  - { offset: 0x302FC, size: 0x8, addend: 0x0, symName: __ZNSt3__111__hash_nodeINS_17__hash_value_typeIiNS_12basic_stringIcNS_11char_traitsIcEENS_9allocatorIcEEEEEEPvED1B9nqe220108Ev, symObjAddr: 0x844C, symBinAddr: 0x10000B7F8, symSize: 0x2C }
  - { offset: 0x3032A, size: 0x8, addend: 0x0, symName: __ZNSt3__111__hash_nodeINS_17__hash_value_typeIiNS_12basic_stringIcNS_11char_traitsIcEENS_9allocatorIcEEEEEEPvED2B9nqe220108Ev, symObjAddr: 0x8478, symBinAddr: 0x10000B824, symSize: 0x14 }
  - { offset: 0x30358, size: 0x8, addend: 0x0, symName: __ZNSt3__19allocatorINS_11__hash_nodeINS_17__hash_value_typeIiNS_12basic_stringIcNS_11char_traitsIcEENS0_IcEEEEEEPvEEE10deallocateB9nqe220108EPSA_m, symObjAddr: 0x848C, symBinAddr: 0x10000B838, symSize: 0x34 }
  - { offset: 0x303A0, size: 0x8, addend: 0x0, symName: __ZNSt3__114pointer_traitsIPNS_16__hash_node_baseIPNS_11__hash_nodeINS_17__hash_value_typeIiNS_12basic_stringIcNS_11char_traitsIcEENS_9allocatorIcEEEEEEPvEEEEE10pointer_toB9nqe220108ERSE_, symObjAddr: 0x84FC, symBinAddr: 0x10000B8A8, symSize: 0x14 }
  - { offset: 0x303C3, size: 0x8, addend: 0x0, symName: __ZNSt3__110unique_ptrIA_PNS_16__hash_node_baseIPNS_11__hash_nodeINS_17__hash_value_typeIiNS_12basic_stringIcNS_11char_traitsIcEENS_9allocatorIcEEEEEEPvEEEENS_25__bucket_list_deallocatorINS7_ISF_EEEEED2B9nqe220108Ev, symObjAddr: 0x8510, symBinAddr: 0x10000B8BC, symSize: 0x30 }
  - { offset: 0x303F1, size: 0x8, addend: 0x0, symName: __ZNSt3__110unique_ptrIA_PNS_16__hash_node_baseIPNS_11__hash_nodeINS_17__hash_value_typeIiNS_12basic_stringIcNS_11char_traitsIcEENS_9allocatorIcEEEEEEPvEEEENS_25__bucket_list_deallocatorINS7_ISF_EEEEE5resetB9nqe220108EDn, symObjAddr: 0x8540, symBinAddr: 0x10000B8EC, symSize: 0x54 }
  - { offset: 0x30431, size: 0x8, addend: 0x0, symName: __ZNSt3__125__bucket_list_deallocatorINS_9allocatorIPNS_16__hash_node_baseIPNS_11__hash_nodeINS_17__hash_value_typeIiNS_12basic_stringIcNS_11char_traitsIcEENS1_IcEEEEEEPvEEEEEEEclB9nqe220108EPSF_, symObjAddr: 0x8594, symBinAddr: 0x10000B940, symSize: 0x58 }
  - { offset: 0x30466, size: 0x8, addend: 0x0, symName: __ZNSt3__116allocator_traitsINS_9allocatorIPNS_16__hash_node_baseIPNS_11__hash_nodeINS_17__hash_value_typeIiNS_12basic_stringIcNS_11char_traitsIcEENS1_IcEEEEEEPvEEEEEEE10deallocateB9nqe220108ERSG_PSF_m, symObjAddr: 0x85EC, symBinAddr: 0x10000B998, symSize: 0x34 }
  - { offset: 0x304A8, size: 0x8, addend: 0x0, symName: __ZNSt3__125__bucket_list_deallocatorINS_9allocatorIPNS_16__hash_node_baseIPNS_11__hash_nodeINS_17__hash_value_typeIiNS_12basic_stringIcNS_11char_traitsIcEENS1_IcEEEEEEPvEEEEEEE7__allocB9nqe220108Ev, symObjAddr: 0x8620, symBinAddr: 0x10000B9CC, symSize: 0x14 }
  - { offset: 0x304CE, size: 0x8, addend: 0x0, symName: __ZNSt3__125__bucket_list_deallocatorINS_9allocatorIPNS_16__hash_node_baseIPNS_11__hash_nodeINS_17__hash_value_typeIiNS_12basic_stringIcNS_11char_traitsIcEENS1_IcEEEEEEPvEEEEEEE4sizeB9nqe220108Ev, symObjAddr: 0x8634, symBinAddr: 0x10000B9E0, symSize: 0x14 }
  - { offset: 0x304F4, size: 0x8, addend: 0x0, symName: __ZNSt3__19allocatorIPNS_16__hash_node_baseIPNS_11__hash_nodeINS_17__hash_value_typeIiNS_12basic_stringIcNS_11char_traitsIcEENS0_IcEEEEEEPvEEEEE10deallocateB9nqe220108EPSE_m, symObjAddr: 0x8648, symBinAddr: 0x10000B9F4, symSize: 0x34 }
  - { offset: 0x30536, size: 0x8, addend: 0x0, symName: __ZNSt3__13mapIiNS_12basic_stringIcNS_11char_traitsIcEENS_9allocatorIcEEEENS_4lessIiEENS4_INS_4pairIKiS6_EEEEED2B9nqe220108Ev, symObjAddr: 0x86B4, symBinAddr: 0x10000BA60, symSize: 0x2C }
  - { offset: 0x30564, size: 0x8, addend: 0x0, symName: __ZNSt3__16__treeINS_12__value_typeIiNS_12basic_stringIcNS_11char_traitsIcEENS_9allocatorIcEEEEEENS_19__map_value_compareIiNS_4pairIKiS7_EENS_4lessIiEEEENS5_ISC_EEED1B9nqe220108Ev, symObjAddr: 0x86E0, symBinAddr: 0x10000BA8C, symSize: 0x2C }
  - { offset: 0x30592, size: 0x8, addend: 0x0, symName: __ZNSt3__16__treeINS_12__value_typeIiNS_12basic_stringIcNS_11char_traitsIcEENS_9allocatorIcEEEEEENS_19__map_value_compareIiNS_4pairIKiS7_EENS_4lessIiEEEENS5_ISC_EEED2B9nqe220108Ev, symObjAddr: 0x870C, symBinAddr: 0x10000BAB8, symSize: 0x38 }
  - { offset: 0x305C0, size: 0x8, addend: 0x0, symName: __ZNSt3__16__treeINS_12__value_typeIiNS_12basic_stringIcNS_11char_traitsIcEENS_9allocatorIcEEEEEENS_19__map_value_compareIiNS_4pairIKiS7_EENS_4lessIiEEEENS5_ISC_EEE7destroyEPNS_11__tree_nodeIS8_PvEE, symObjAddr: 0x8744, symBinAddr: 0x10000BAF0, symSize: 0x48 }
  - { offset: 0x305F5, size: 0x8, addend: 0x0, symName: __ZNKSt3__16__treeINS_12__value_typeIiNS_12basic_stringIcNS_11char_traitsIcEENS_9allocatorIcEEEEEENS_19__map_value_compareIiNS_4pairIKiS7_EENS_4lessIiEEEENS5_ISC_EEE6__rootB9nqe220108Ev, symObjAddr: 0x878C, symBinAddr: 0x10000BB38, symSize: 0x28 }
  - { offset: 0x3061B, size: 0x8, addend: 0x0, symName: __ZNSt3__16__treeINS_12__value_typeIiNS_12basic_stringIcNS_11char_traitsIcEENS_9allocatorIcEEEEEENS_19__map_value_compareIiNS_4pairIKiS7_EENS_4lessIiEEEENS5_ISC_EEE14__tree_deleterC1B9nqe220108ERNS5_INS_11__tree_nodeIS8_PvEEEE, symObjAddr: 0x87B4, symBinAddr: 0x10000BB60, symSize: 0x34 }
  - { offset: 0x30654, size: 0x8, addend: 0x0, symName: __ZNSt3__16__treeINS_12__value_typeIiNS_12basic_stringIcNS_11char_traitsIcEENS_9allocatorIcEEEEEENS_19__map_value_compareIiNS_4pairIKiS7_EENS_4lessIiEEEENS5_ISC_EEE14__tree_deleterclB9nqe220108EPNS_11__tree_nodeIS8_PvEE, symObjAddr: 0x87E8, symBinAddr: 0x10000BB94, symSize: 0x98 }
  - { offset: 0x30698, size: 0x8, addend: 0x0, symName: __ZNSt3__16__treeINS_12__value_typeIiNS_12basic_stringIcNS_11char_traitsIcEENS_9allocatorIcEEEEEENS_19__map_value_compareIiNS_4pairIKiS7_EENS_4lessIiEEEENS5_ISC_EEE14__tree_deleterC2B9nqe220108ERNS5_INS_11__tree_nodeIS8_PvEEEE, symObjAddr: 0x8880, symBinAddr: 0x10000BC2C, symSize: 0x20 }
  - { offset: 0x306D7, size: 0x8, addend: 0x0, symName: __ZNSt3__116allocator_traitsINS_9allocatorINS_11__tree_nodeINS_12__value_typeIiNS_12basic_stringIcNS_11char_traitsIcEENS1_IcEEEEEEPvEEEEE7destroyB9nqe220108INS_4pairIKiS8_EETnNS_9enable_ifIXnt15__has_destroy_vISC_PT_EEiE4typeELi0EEEvRSC_SK_, symObjAddr: 0x88A0, symBinAddr: 0x10000BC4C, symSize: 0x28 }
  - { offset: 0x30715, size: 0x8, addend: 0x0, symName: __ZNSt3__111__tree_nodeINS_12__value_typeIiNS_12basic_stringIcNS_11char_traitsIcEENS_9allocatorIcEEEEEEPvE11__get_valueB9nqe220108Ev, symObjAddr: 0x88C8, symBinAddr: 0x10000BC74, symSize: 0x18 }
  - { offset: 0x3073B, size: 0x8, addend: 0x0, symName: __ZNSt3__116allocator_traitsINS_9allocatorINS_11__tree_nodeINS_12__value_typeIiNS_12basic_stringIcNS_11char_traitsIcEENS1_IcEEEEEEPvEEEEE10deallocateB9nqe220108ERSC_PSB_m, symObjAddr: 0x88E0, symBinAddr: 0x10000BC8C, symSize: 0x34 }
  - { offset: 0x3077D, size: 0x8, addend: 0x0, symName: __ZNSt3__19allocatorINS_11__tree_nodeINS_12__value_typeIiNS_12basic_stringIcNS_11char_traitsIcEENS0_IcEEEEEEPvEEE10deallocateB9nqe220108EPSA_m, symObjAddr: 0x8914, symBinAddr: 0x10000BCC0, symSize: 0x34 }
  - { offset: 0x307BF, size: 0x8, addend: 0x0, symName: __ZNKSt3__16__treeINS_12__value_typeIiNS_12basic_stringIcNS_11char_traitsIcEENS_9allocatorIcEEEEEENS_19__map_value_compareIiNS_4pairIKiS7_EENS_4lessIiEEEENS5_ISC_EEE10__end_nodeB9nqe220108Ev, symObjAddr: 0x8980, symBinAddr: 0x10000BD2C, symSize: 0x28 }
  - { offset: 0x307EB, size: 0x8, addend: 0x0, symName: __ZNSt3__114pointer_traitsIPNS_15__tree_end_nodeIPNS_16__tree_node_baseIPvEEEEE10pointer_toB9nqe220108ERS6_, symObjAddr: 0x89A8, symBinAddr: 0x10000BD54, symSize: 0x14 }
  - { offset: 0x3080E, size: 0x8, addend: 0x0, symName: __ZNSt3__112basic_stringIcNS_11char_traitsIcEENS_9allocatorIcEEEC2B9nqe220108ILi0EEEPKc, symObjAddr: 0x89BC, symBinAddr: 0x10000BD68, symSize: 0x4C }
  - { offset: 0x3084D, size: 0x8, addend: 0x0, symName: __ZNSt3__111char_traitsIcE6lengthB9nqe220108EPKc, symObjAddr: 0x8A08, symBinAddr: 0x10000BDB4, symSize: 0x24 }
  - { offset: 0x30870, size: 0x8, addend: 0x0, symName: __ZNKSt3__112basic_stringIcNS_11char_traitsIcEENS_9allocatorIcEEE4dataB9nqe220108Ev, symObjAddr: 0x8C34, symBinAddr: 0x10000BFE0, symSize: 0x28 }
  - { offset: 0x308B7, size: 0x8, addend: 0x0, symName: __ZNKSt3__113basic_ostreamIcNS_11char_traitsIcEEE6sentrycvbB9nqe220108Ev, symObjAddr: 0x8C5C, symBinAddr: 0x10000C008, symSize: 0x1C }
  - { offset: 0x308DD, size: 0x8, addend: 0x0, symName: __ZNSt3__119ostreambuf_iteratorIcNS_11char_traitsIcEEEC1B9nqe220108ERNS_13basic_ostreamIcS2_EE, symObjAddr: 0x8E8C, symBinAddr: 0x10000C238, symSize: 0x34 }
  - { offset: 0x30915, size: 0x8, addend: 0x0, symName: __ZNKSt3__18ios_base5flagsB9nqe220108Ev, symObjAddr: 0x8EC0, symBinAddr: 0x10000C26C, symSize: 0x18 }
  - { offset: 0x3093D, size: 0x8, addend: 0x0, symName: __ZNKSt3__19basic_iosIcNS_11char_traitsIcEEE4fillB9nqe220108Ev, symObjAddr: 0x8ED8, symBinAddr: 0x10000C284, symSize: 0x64 }
  - { offset: 0x30965, size: 0x8, addend: 0x0, symName: __ZNKSt3__119ostreambuf_iteratorIcNS_11char_traitsIcEEE6failedB9nqe220108Ev, symObjAddr: 0x8F3C, symBinAddr: 0x10000C2E8, symSize: 0x20 }
  - { offset: 0x3098B, size: 0x8, addend: 0x0, symName: __ZNSt3__19basic_iosIcNS_11char_traitsIcEEE8setstateB9nqe220108Ej, symObjAddr: 0x8F5C, symBinAddr: 0x10000C308, symSize: 0x2C }
  - { offset: 0x309C0, size: 0x8, addend: 0x0, symName: __ZNKSt3__18ios_base5widthB9nqe220108Ev, symObjAddr: 0x8F88, symBinAddr: 0x10000C334, symSize: 0x18 }
  - { offset: 0x309E8, size: 0x8, addend: 0x0, symName: __ZNSt3__115basic_streambufIcNS_11char_traitsIcEEE5sputnB9nqe220108EPKcl, symObjAddr: 0x8FA0, symBinAddr: 0x10000C34C, symSize: 0x3C }
  - { offset: 0x30A2A, size: 0x8, addend: 0x0, symName: __ZNSt3__112basic_stringIcNS_11char_traitsIcEENS_9allocatorIcEEEC1B9nqe220108Emc, symObjAddr: 0x8FDC, symBinAddr: 0x10000C388, symSize: 0x3C }
  - { offset: 0x30A72, size: 0x8, addend: 0x0, symName: __ZNSt3__18ios_base5widthB9nqe220108El, symObjAddr: 0x9018, symBinAddr: 0x10000C3C4, symSize: 0x2C }
  - { offset: 0x30AB8, size: 0x8, addend: 0x0, symName: __ZNSt3__112basic_stringIcNS_11char_traitsIcEENS_9allocatorIcEEEC2B9nqe220108Emc, symObjAddr: 0x9044, symBinAddr: 0x10000C3F0, symSize: 0x3C }
  - { offset: 0x30B00, size: 0x8, addend: 0x0, symName: __ZNSt3__119ostreambuf_iteratorIcNS_11char_traitsIcEEEC2B9nqe220108ERNS_13basic_ostreamIcS2_EE, symObjAddr: 0x9080, symBinAddr: 0x10000C42C, symSize: 0x54 }
  - { offset: 0x30B38, size: 0x8, addend: 0x0, symName: __ZNKSt3__19basic_iosIcNS_11char_traitsIcEEE5rdbufB9nqe220108Ev, symObjAddr: 0x90D4, symBinAddr: 0x10000C480, symSize: 0x24 }
  - { offset: 0x30B60, size: 0x8, addend: 0x0, symName: __ZNKSt3__18ios_base5rdbufB9nqe220108Ev, symObjAddr: 0x90F8, symBinAddr: 0x10000C4A4, symSize: 0x18 }
  - { offset: 0x30B86, size: 0x8, addend: 0x0, symName: __ZNKSt3__118_SentinelValueFillINS_11char_traitsIcEEE8__is_setB9nqe220108Ev, symObjAddr: 0x9110, symBinAddr: 0x10000C4BC, symSize: 0x38 }
  - { offset: 0x30BAC, size: 0x8, addend: 0x0, symName: __ZNKSt3__19basic_iosIcNS_11char_traitsIcEEE5widenB9nqe220108Ec, symObjAddr: 0x9148, symBinAddr: 0x10000C4F4, symSize: 0x80 }
  - { offset: 0x30BE3, size: 0x8, addend: 0x0, symName: __ZNSt3__118_SentinelValueFillINS_11char_traitsIcEEEaSB9nqe220108Ei, symObjAddr: 0x91C8, symBinAddr: 0x10000C574, symSize: 0x20 }
  - { offset: 0x30C18, size: 0x8, addend: 0x0, symName: __ZNKSt3__118_SentinelValueFillINS_11char_traitsIcEEE5__getB9nqe220108Ev, symObjAddr: 0x91E8, symBinAddr: 0x10000C594, symSize: 0x18 }
  - { offset: 0x30C3E, size: 0x8, addend: 0x0, symName: __ZNSt3__111char_traitsIcE3eofB9nqe220108Ev, symObjAddr: 0x9200, symBinAddr: 0x10000C5AC, symSize: 0x8 }
  - { offset: 0x30C8F, size: 0x8, addend: 0x0, symName: __ZNKSt3__15ctypeIcE5widenB9nqe220108Ec, symObjAddr: 0x9234, symBinAddr: 0x10000C5E0, symSize: 0x34 }
  - { offset: 0x30CC4, size: 0x8, addend: 0x0, symName: __ZNSt3__18ios_base8setstateB9nqe220108Ej, symObjAddr: 0x9268, symBinAddr: 0x10000C614, symSize: 0x34 }
  - { offset: 0x30CFB, size: 0x8, addend: 0x0, symName: __ZNKSt3__112basic_stringIcNS_11char_traitsIcEENS_9allocatorIcEEE13__get_pointerB9nqe220108Ev, symObjAddr: 0x92B0, symBinAddr: 0x10000C65C, symSize: 0x54 }
  - { offset: 0x30D21, size: 0x8, addend: 0x0, symName: __ZNKSt3__112basic_stringIcNS_11char_traitsIcEENS_9allocatorIcEEE9__is_longB9nqe220108Ev, symObjAddr: 0x9304, symBinAddr: 0x10000C6B0, symSize: 0x24 }
  - { offset: 0x30D47, size: 0x8, addend: 0x0, symName: __ZNKSt3__112basic_stringIcNS_11char_traitsIcEENS_9allocatorIcEEE18__get_long_pointerB9nqe220108Ev, symObjAddr: 0x9328, symBinAddr: 0x10000C6D4, symSize: 0x18 }
  - { offset: 0x30D6D, size: 0x8, addend: 0x0, symName: __ZNKSt3__112basic_stringIcNS_11char_traitsIcEENS_9allocatorIcEEE19__get_short_pointerB9nqe220108Ev, symObjAddr: 0x9340, symBinAddr: 0x10000C6EC, symSize: 0x24 }
  - { offset: 0x30D93, size: 0x8, addend: 0x0, symName: __ZNSt3__114pointer_traitsIPKcE10pointer_toB9nqe220108ERS1_, symObjAddr: 0x9364, symBinAddr: 0x10000C710, symSize: 0x14 }
  - { offset: 0x30DB6, size: 0x8, addend: 0x0, symName: __ZNSt3__13mapINS_12basic_stringIcNS_11char_traitsIcEENS_9allocatorIcEEEEiNS_4lessIS6_EENS4_INS_4pairIKS6_iEEEEED2B9nqe220108Ev, symObjAddr: 0x9378, symBinAddr: 0x10000C724, symSize: 0x2C }
  - { offset: 0x30DE4, size: 0x8, addend: 0x0, symName: __ZNSt3__16__treeINS_12__value_typeINS_12basic_stringIcNS_11char_traitsIcEENS_9allocatorIcEEEEiEENS_19__map_value_compareIS7_NS_4pairIKS7_iEENS_4lessIS7_EEEENS5_ISC_EEED1B9nqe220108Ev, symObjAddr: 0x93A4, symBinAddr: 0x10000C750, symSize: 0x2C }
  - { offset: 0x30E12, size: 0x8, addend: 0x0, symName: __ZNSt3__16__treeINS_12__value_typeINS_12basic_stringIcNS_11char_traitsIcEENS_9allocatorIcEEEEiEENS_19__map_value_compareIS7_NS_4pairIKS7_iEENS_4lessIS7_EEEENS5_ISC_EEED2B9nqe220108Ev, symObjAddr: 0x93D0, symBinAddr: 0x10000C77C, symSize: 0x38 }
  - { offset: 0x30E40, size: 0x8, addend: 0x0, symName: __ZNSt3__16__treeINS_12__value_typeINS_12basic_stringIcNS_11char_traitsIcEENS_9allocatorIcEEEEiEENS_19__map_value_compareIS7_NS_4pairIKS7_iEENS_4lessIS7_EEEENS5_ISC_EEE7destroyEPNS_11__tree_nodeIS8_PvEE, symObjAddr: 0x9408, symBinAddr: 0x10000C7B4, symSize: 0x48 }
  - { offset: 0x30E75, size: 0x8, addend: 0x0, symName: __ZNKSt3__16__treeINS_12__value_typeINS_12basic_stringIcNS_11char_traitsIcEENS_9allocatorIcEEEEiEENS_19__map_value_compareIS7_NS_4pairIKS7_iEENS_4lessIS7_EEEENS5_ISC_EEE6__rootB9nqe220108Ev, symObjAddr: 0x9450, symBinAddr: 0x10000C7FC, symSize: 0x28 }
  - { offset: 0x30E9B, size: 0x8, addend: 0x0, symName: __ZNSt3__16__treeINS_12__value_typeINS_12basic_stringIcNS_11char_traitsIcEENS_9allocatorIcEEEEiEENS_19__map_value_compareIS7_NS_4pairIKS7_iEENS_4lessIS7_EEEENS5_ISC_EEE14__tree_deleterC1B9nqe220108ERNS5_INS_11__tree_nodeIS8_PvEEEE, symObjAddr: 0x9478, symBinAddr: 0x10000C824, symSize: 0x34 }
  - { offset: 0x30ED4, size: 0x8, addend: 0x0, symName: __ZNSt3__16__treeINS_12__value_typeINS_12basic_stringIcNS_11char_traitsIcEENS_9allocatorIcEEEEiEENS_19__map_value_compareIS7_NS_4pairIKS7_iEENS_4lessIS7_EEEENS5_ISC_EEE14__tree_deleterclB9nqe220108EPNS_11__tree_nodeIS8_PvEE, symObjAddr: 0x94AC, symBinAddr: 0x10000C858, symSize: 0x98 }
  - { offset: 0x30F18, size: 0x8, addend: 0x0, symName: __ZNSt3__16__treeINS_12__value_typeINS_12basic_stringIcNS_11char_traitsIcEENS_9allocatorIcEEEEiEENS_19__map_value_compareIS7_NS_4pairIKS7_iEENS_4lessIS7_EEEENS5_ISC_EEE14__tree_deleterC2B9nqe220108ERNS5_INS_11__tree_nodeIS8_PvEEEE, symObjAddr: 0x9544, symBinAddr: 0x10000C8F0, symSize: 0x20 }
  - { offset: 0x30F51, size: 0x8, addend: 0x0, symName: __ZNSt3__116allocator_traitsINS_9allocatorINS_11__tree_nodeINS_12__value_typeINS_12basic_stringIcNS_11char_traitsIcEENS1_IcEEEEiEEPvEEEEE7destroyB9nqe220108INS_4pairIKS8_iEETnNS_9enable_ifIXnt15__has_destroy_vISC_PT_EEiE4typeELi0EEEvRSC_SK_, symObjAddr: 0x9564, symBinAddr: 0x10000C910, symSize: 0x28 }
  - { offset: 0x30F8F, size: 0x8, addend: 0x0, symName: __ZNSt3__111__tree_nodeINS_12__value_typeINS_12basic_stringIcNS_11char_traitsIcEENS_9allocatorIcEEEEiEEPvE11__get_valueB9nqe220108Ev, symObjAddr: 0x958C, symBinAddr: 0x10000C938, symSize: 0x18 }
  - { offset: 0x30FB5, size: 0x8, addend: 0x0, symName: __ZNSt3__116allocator_traitsINS_9allocatorINS_11__tree_nodeINS_12__value_typeINS_12basic_stringIcNS_11char_traitsIcEENS1_IcEEEEiEEPvEEEEE10deallocateB9nqe220108ERSC_PSB_m, symObjAddr: 0x95A4, symBinAddr: 0x10000C950, symSize: 0x34 }
  - { offset: 0x30FF7, size: 0x8, addend: 0x0, symName: __ZNSt3__19allocatorINS_11__tree_nodeINS_12__value_typeINS_12basic_stringIcNS_11char_traitsIcEENS0_IcEEEEiEEPvEEE10deallocateB9nqe220108EPSA_m, symObjAddr: 0x95D8, symBinAddr: 0x10000C984, symSize: 0x34 }
  - { offset: 0x31039, size: 0x8, addend: 0x0, symName: __ZNKSt3__16__treeINS_12__value_typeINS_12basic_stringIcNS_11char_traitsIcEENS_9allocatorIcEEEEiEENS_19__map_value_compareIS7_NS_4pairIKS7_iEENS_4lessIS7_EEEENS5_ISC_EEE10__end_nodeB9nqe220108Ev, symObjAddr: 0x9644, symBinAddr: 0x10000C9F0, symSize: 0x28 }
  - { offset: 0x31092, size: 0x8, addend: 0x0, symName: __ZNSt3__16__treeINS_12__value_typeINS_12basic_stringIcNS_11char_traitsIcEENS_9allocatorIcEEEEiEENS_19__map_value_compareIS7_NS_4pairIKS7_iEENS_4lessIS7_EEEENS5_ISC_EEE16__emplace_uniqueB9nqe220108IJRKNS_21piecewise_construct_tENS_5tupleIJRSB_EEENSM_IJEEEEEENSA_INS_15__tree_iteratorIS8_PNS_11__tree_nodeIS8_PvEElEEbEEDpOT_, symObjAddr: 0x966C, symBinAddr: 0x10000CA18, symSize: 0xAC }
  - { offset: 0x3116D, size: 0x8, addend: 0x0, symName: __ZNKSt3__115__tree_iteratorINS_12__value_typeINS_12basic_stringIcNS_11char_traitsIcEENS_9allocatorIcEEEEiEEPNS_11__tree_nodeIS8_PvEElEptB9nqe220108Ev, symObjAddr: 0x9748, symBinAddr: 0x10000CAF4, symSize: 0x2C }
  - { offset: 0x311AD, size: 0x8, addend: 0x0, symName: __ZZNSt3__16__treeINS_12__value_typeINS_12basic_stringIcNS_11char_traitsIcEENS_9allocatorIcEEEEiEENS_19__map_value_compareIS7_NS_4pairIKS7_iEENS_4lessIS7_EEEENS5_ISC_EEE16__emplace_uniqueB9nqe220108IJRKNS_21piecewise_construct_tENS_5tupleIJRSB_EEENSM_IJEEEEEENSA_INS_15__tree_iteratorIS8_PNS_11__tree_nodeIS8_PvEElEEbEEDpOT_ENKUlSN_SL_OSO_OSP_E_clESN_SL_S10_S11_, symObjAddr: 0x98DC, symBinAddr: 0x10000CC88, symSize: 0x124 }
  - { offset: 0x3128B, size: 0x8, addend: 0x0, symName: __ZNSt3__16__treeINS_12__value_typeINS_12basic_stringIcNS_11char_traitsIcEENS_9allocatorIcEEEEiEENS_19__map_value_compareIS7_NS_4pairIKS7_iEENS_4lessIS7_EEEENS5_ISC_EEE12__find_equalB9nqe220108IS7_EENSA_IPNS_15__tree_end_nodeIPNS_16__tree_node_baseIPvEEEERSN_EERKT_, symObjAddr: 0x9A24, symBinAddr: 0x10000CDD0, symSize: 0x190 }
  - { offset: 0x31340, size: 0x8, addend: 0x0, symName: __ZNSt3__16__treeINS_12__value_typeINS_12basic_stringIcNS_11char_traitsIcEENS_9allocatorIcEEEEiEENS_19__map_value_compareIS7_NS_4pairIKS7_iEENS_4lessIS7_EEEENS5_ISC_EEE16__construct_nodeIJRKNS_21piecewise_construct_tENS_5tupleIJRSB_EEENSM_IJEEEEEENS_10unique_ptrINS_11__tree_nodeIS8_PvEENS_22__tree_node_destructorINS5_IST_EEEEEEDpOT_, symObjAddr: 0x9BFC, symBinAddr: 0x10000CFA8, symSize: 0x104 }
  - { offset: 0x313C7, size: 0x8, addend: 0x0, symName: __ZNSt3__16__treeINS_12__value_typeINS_12basic_stringIcNS_11char_traitsIcEENS_9allocatorIcEEEEiEENS_19__map_value_compareIS7_NS_4pairIKS7_iEENS_4lessIS7_EEEENS5_ISC_EEE16__insert_node_atEPNS_15__tree_end_nodeIPNS_16__tree_node_baseIPvEEEERSM_SM_, symObjAddr: 0x9D00, symBinAddr: 0x10000D0AC, symSize: 0xA4 }
  - { offset: 0x3141C, size: 0x8, addend: 0x0, symName: __ZNKSt3__110unique_ptrINS_11__tree_nodeINS_12__value_typeINS_12basic_stringIcNS_11char_traitsIcEENS_9allocatorIcEEEEiEEPvEENS_22__tree_node_destructorINS6_ISB_EEEEE3getB9nqe220108Ev, symObjAddr: 0x9DA4, symBinAddr: 0x10000D150, symSize: 0x18 }
  - { offset: 0x31442, size: 0x8, addend: 0x0, symName: __ZNSt3__110unique_ptrINS_11__tree_nodeINS_12__value_typeINS_12basic_stringIcNS_11char_traitsIcEENS_9allocatorIcEEEEiEEPvEENS_22__tree_node_destructorINS6_ISB_EEEEE7releaseB9nqe220108Ev, symObjAddr: 0x9DBC, symBinAddr: 0x10000D168, symSize: 0x24 }
  - { offset: 0x31477, size: 0x8, addend: 0x0, symName: __ZNSt3__110unique_ptrINS_11__tree_nodeINS_12__value_typeINS_12basic_stringIcNS_11char_traitsIcEENS_9allocatorIcEEEEiEEPvEENS_22__tree_node_destructorINS6_ISB_EEEEED1B9nqe220108Ev, symObjAddr: 0x9DE0, symBinAddr: 0x10000D18C, symSize: 0x2C }
  - { offset: 0x314A5, size: 0x8, addend: 0x0, symName: __ZNSt3__115__tree_iteratorINS_12__value_typeINS_12basic_stringIcNS_11char_traitsIcEENS_9allocatorIcEEEEiEEPNS_11__tree_nodeIS8_PvEElEC1B9nqe220108ESC_, symObjAddr: 0x9E0C, symBinAddr: 0x10000D1B8, symSize: 0x34 }
  - { offset: 0x314EA, size: 0x8, addend: 0x0, symName: __ZNSt3__14pairINS_15__tree_iteratorINS_12__value_typeINS_12basic_stringIcNS_11char_traitsIcEENS_9allocatorIcEEEEiEEPNS_11__tree_nodeIS9_PvEElEEbEC1B9nqe220108ISE_RbTnNS_9enable_ifIXclsr25__check_pair_constructionISE_bEE23__is_pair_constructibleIT_T0_EEEiE4typeELi0EEEOSJ_OSK_, symObjAddr: 0x9E40, symBinAddr: 0x10000D1EC, symSize: 0x3C }
  - { offset: 0x31548, size: 0x8, addend: 0x0, symName: __ZNSt3__16__treeINS_12__value_typeINS_12basic_stringIcNS_11char_traitsIcEENS_9allocatorIcEEEEiEENS_19__map_value_compareIS7_NS_4pairIKS7_iEENS_4lessIS7_EEEENS5_ISC_EEE10__end_nodeB9nqe220108Ev, symObjAddr: 0x9E7C, symBinAddr: 0x10000D228, symSize: 0x28 }
  - { offset: 0x31574, size: 0x8, addend: 0x0, symName: __ZNSt3__14pairIPNS_15__tree_end_nodeIPNS_16__tree_node_baseIPvEEEERS5_EC1B9nqe220108IRS7_S8_TnNS_9enable_ifIXclsr25__check_pair_constructionIS7_S8_EE23__is_pair_constructibleIT_T0_EEEiE4typeELi0EEEOSD_OSE_, symObjAddr: 0x9EA4, symBinAddr: 0x10000D250, symSize: 0x3C }
  - { offset: 0x315D2, size: 0x8, addend: 0x0, symName: __ZNKSt3__16__treeINS_12__value_typeINS_12basic_stringIcNS_11char_traitsIcEENS_9allocatorIcEEEEiEENS_19__map_value_compareIS7_NS_4pairIKS7_iEENS_4lessIS7_EEEENS5_ISC_EEE10__root_ptrB9nqe220108Ev, symObjAddr: 0x9EE0, symBinAddr: 0x10000D28C, symSize: 0x24 }
  - { offset: 0x315F8, size: 0x8, addend: 0x0, symName: __ZNSt3__16__treeINS_12__value_typeINS_12basic_stringIcNS_11char_traitsIcEENS_9allocatorIcEEEEiEENS_19__map_value_compareIS7_NS_4pairIKS7_iEENS_4lessIS7_EEEENS5_ISC_EEE10value_compB9nqe220108Ev, symObjAddr: 0x9F18, symBinAddr: 0x10000D2C4, symSize: 0x18 }
  - { offset: 0x3161E, size: 0x8, addend: 0x0, symName: __ZNSt3__133__lazy_synth_three_way_comparatorINS_19__map_value_compareINS_12basic_stringIcNS_11char_traitsIcEENS_9allocatorIcEEEENS_4pairIKS7_iEENS_4lessIS7_EEEES7_SA_vEC1B9nqe220108ERKSD_, symObjAddr: 0x9F30, symBinAddr: 0x10000D2DC, symSize: 0x34 }
  - { offset: 0x31656, size: 0x8, addend: 0x0, symName: __ZNKSt3__133__lazy_synth_three_way_comparatorINS_19__map_value_compareINS_12basic_stringIcNS_11char_traitsIcEENS_9allocatorIcEEEENS_4pairIKS7_iEENS_4lessIS7_EEEES7_SA_vEclB9nqe220108ERS9_RKSA_, symObjAddr: 0x9F64, symBinAddr: 0x10000D310, symSize: 0x44 }
  - { offset: 0x31698, size: 0x8, addend: 0x0, symName: __ZNKSt3__121__lazy_compare_resultINS_19__map_value_compareINS_12basic_stringIcNS_11char_traitsIcEENS_9allocatorIcEEEENS_4pairIKS7_iEENS_4lessIS7_EEEES7_SA_E6__lessB9nqe220108Ev, symObjAddr: 0x9FA8, symBinAddr: 0x10000D354, symSize: 0x3C }
  - { offset: 0x316D2, size: 0x8, addend: 0x0, symName: __ZNSt3__14pairIPNS_15__tree_end_nodeIPNS_16__tree_node_baseIPvEEEERS5_EC1B9nqe220108IS7_S8_TnNS_9enable_ifIXclsr25__check_pair_constructionIS7_S8_EE23__is_pair_constructibleIT_T0_EEEiE4typeELi0EEEOSC_OSD_, symObjAddr: 0x9FE4, symBinAddr: 0x10000D390, symSize: 0x3C }
  - { offset: 0x31730, size: 0x8, addend: 0x0, symName: __ZNKSt3__121__lazy_compare_resultINS_19__map_value_compareINS_12basic_stringIcNS_11char_traitsIcEENS_9allocatorIcEEEENS_4pairIKS7_iEENS_4lessIS7_EEEES7_SA_E9__greaterB9nqe220108Ev, symObjAddr: 0xA020, symBinAddr: 0x10000D3CC, symSize: 0x3C }
  - { offset: 0x31764, size: 0x8, addend: 0x0, symName: __ZNSt3__14pairIPNS_15__tree_end_nodeIPNS_16__tree_node_baseIPvEEEERS5_EC2B9nqe220108IRS7_S8_TnNS_9enable_ifIXclsr25__check_pair_constructionIS7_S8_EE23__is_pair_constructibleIT_T0_EEEiE4typeELi0EEEOSD_OSE_, symObjAddr: 0xA05C, symBinAddr: 0x10000D408, symSize: 0x30 }
  - { offset: 0x317C2, size: 0x8, addend: 0x0, symName: __ZNSt3__133__lazy_synth_three_way_comparatorINS_19__map_value_compareINS_12basic_stringIcNS_11char_traitsIcEENS_9allocatorIcEEEENS_4pairIKS7_iEENS_4lessIS7_EEEES7_SA_vEC2B9nqe220108ERKSD_, symObjAddr: 0xA08C, symBinAddr: 0x10000D438, symSize: 0x20 }
  - { offset: 0x317FA, size: 0x8, addend: 0x0, symName: __ZNSt3__121__lazy_compare_resultINS_19__map_value_compareINS_12basic_stringIcNS_11char_traitsIcEENS_9allocatorIcEEEENS_4pairIKS7_iEENS_4lessIS7_EEEES7_SA_EC1B9nqe220108ERKSD_RS9_RKSA_, symObjAddr: 0xA0AC, symBinAddr: 0x10000D458, symSize: 0x44 }
  - { offset: 0x3184E, size: 0x8, addend: 0x0, symName: __ZNSt3__121__lazy_compare_resultINS_19__map_value_compareINS_12basic_stringIcNS_11char_traitsIcEENS_9allocatorIcEEEENS_4pairIKS7_iEENS_4lessIS7_EEEES7_SA_EC2B9nqe220108ERKSD_RS9_RKSA_, symObjAddr: 0xA0F0, symBinAddr: 0x10000D49C, symSize: 0x38 }
  - { offset: 0x318A2, size: 0x8, addend: 0x0, symName: __ZNKSt3__119__map_value_compareINS_12basic_stringIcNS_11char_traitsIcEENS_9allocatorIcEEEENS_4pairIKS6_iEENS_4lessIS6_EEEclB9nqe220108ERS8_RKS9_, symObjAddr: 0xA128, symBinAddr: 0x10000D4D4, symSize: 0x34 }
  - { offset: 0x318E6, size: 0x8, addend: 0x0, symName: __ZNKSt3__14lessINS_12basic_stringIcNS_11char_traitsIcEENS_9allocatorIcEEEEEclB9nqe220108ERKS6_S9_, symObjAddr: 0xA15C, symBinAddr: 0x10000D508, symSize: 0x30 }
  - { offset: 0x3192A, size: 0x8, addend: 0x0, symName: __ZNKSt3__112basic_stringIcNS_11char_traitsIcEENS_9allocatorIcEEE7compareB9nqe220108ERKS5_, symObjAddr: 0xA1C0, symBinAddr: 0x10000D56C, symSize: 0x4C }
  - { offset: 0x3195F, size: 0x8, addend: 0x0, symName: __ZNKSt3__112basic_stringIcNS_11char_traitsIcEENS_9allocatorIcEEE7compareB9nqe220108INS_17basic_string_viewIcS2_EETnNS_9enable_ifIX35__can_be_converted_to_string_view_vIcS2_T_EEiE4typeELi0EEEiRKSA_, symObjAddr: 0xA20C, symBinAddr: 0x10000D5B8, symSize: 0x11C }
  - { offset: 0x319E0, size: 0x8, addend: 0x0, symName: __ZNKSt3__112basic_stringIcNS_11char_traitsIcEENS_9allocatorIcEEEcvNS_17basic_string_viewIcS2_EEB9nqe220108Ev, symObjAddr: 0xA328, symBinAddr: 0x10000D6D4, symSize: 0x50 }
  - { offset: 0x31A06, size: 0x8, addend: 0x0, symName: __ZNKSt3__117basic_string_viewIcNS_11char_traitsIcEEE4sizeB9nqe220108Ev, symObjAddr: 0xA378, symBinAddr: 0x10000D724, symSize: 0x18 }
  - { offset: 0x31A2C, size: 0x8, addend: 0x0, symName: __ZNSt3__111char_traitsIcE7compareB9nqe220108EPKcS3_m, symObjAddr: 0xA390, symBinAddr: 0x10000D73C, symSize: 0x34 }
  - { offset: 0x31A6B, size: 0x8, addend: 0x0, symName: __ZNKSt3__117basic_string_viewIcNS_11char_traitsIcEEE4dataB9nqe220108Ev, symObjAddr: 0xA3C4, symBinAddr: 0x10000D770, symSize: 0x18 }
  - { offset: 0x31A91, size: 0x8, addend: 0x0, symName: __ZNSt3__117basic_string_viewIcNS_11char_traitsIcEEEC1B9nqe220108ENS3_14__assume_validEPKcm, symObjAddr: 0xA3DC, symBinAddr: 0x10000D788, symSize: 0x3C }
  - { offset: 0x31AE4, size: 0x8, addend: 0x0, symName: __ZNSt3__117basic_string_viewIcNS_11char_traitsIcEEEC2B9nqe220108ENS3_14__assume_validEPKcm, symObjAddr: 0xA418, symBinAddr: 0x10000D7C4, symSize: 0x2C }
  - { offset: 0x31B37, size: 0x8, addend: 0x0, symName: __ZNSt3__14pairIPNS_15__tree_end_nodeIPNS_16__tree_node_baseIPvEEEERS5_EC2B9nqe220108IS7_S8_TnNS_9enable_ifIXclsr25__check_pair_constructionIS7_S8_EE23__is_pair_constructibleIT_T0_EEEiE4typeELi0EEEOSC_OSD_, symObjAddr: 0xA444, symBinAddr: 0x10000D7F0, symSize: 0x30 }
  - { offset: 0x31B95, size: 0x8, addend: 0x0, symName: __ZNKSt3__119__map_value_compareINS_12basic_stringIcNS_11char_traitsIcEENS_9allocatorIcEEEENS_4pairIKS6_iEENS_4lessIS6_EEEclB9nqe220108ERKS9_RS8_, symObjAddr: 0xA474, symBinAddr: 0x10000D820, symSize: 0x34 }
  - { offset: 0x31BD9, size: 0x8, addend: 0x0, symName: __ZNSt3__110__get_pairILm0EE3getB9nqe220108IPNS_15__tree_end_nodeIPNS_16__tree_node_baseIPvEEEERS7_EEOT_ONS_4pairISB_T0_EE, symObjAddr: 0xA4A8, symBinAddr: 0x10000D854, symSize: 0x14 }
  - { offset: 0x31C0F, size: 0x8, addend: 0x0, symName: __ZNSt3__110__get_pairILm1EE3getB9nqe220108IPNS_15__tree_end_nodeIPNS_16__tree_node_baseIPvEEEERS7_EEOT0_ONS_4pairIT_SB_EE, symObjAddr: 0xA4BC, symBinAddr: 0x10000D868, symSize: 0x18 }
  - { offset: 0x31C45, size: 0x8, addend: 0x0, symName: __ZNSt3__16__treeINS_12__value_typeINS_12basic_stringIcNS_11char_traitsIcEENS_9allocatorIcEEEEiEENS_19__map_value_compareIS7_NS_4pairIKS7_iEENS_4lessIS7_EEEENS5_ISC_EEE12__node_allocB9nqe220108Ev, symObjAddr: 0xA4D4, symBinAddr: 0x10000D880, symSize: 0x18 }
  - { offset: 0x31C6B, size: 0x8, addend: 0x0, symName: __ZNSt3__116allocator_traitsINS_9allocatorINS_11__tree_nodeINS_12__value_typeINS_12basic_stringIcNS_11char_traitsIcEENS1_IcEEEEiEEPvEEEEE8allocateB9nqe220108ERSC_m, symObjAddr: 0xA4EC, symBinAddr: 0x10000D898, symSize: 0x2C }
  - { offset: 0x31C9E, size: 0x8, addend: 0x0, symName: __ZNSt3__122__tree_node_destructorINS_9allocatorINS_11__tree_nodeINS_12__value_typeINS_12basic_stringIcNS_11char_traitsIcEENS1_IcEEEEiEEPvEEEEEC1B9nqe220108ERSC_b, symObjAddr: 0xA518, symBinAddr: 0x10000D8C4, symSize: 0x40 }
  - { offset: 0x31CEC, size: 0x8, addend: 0x0, symName: __ZNSt3__110unique_ptrINS_11__tree_nodeINS_12__value_typeINS_12basic_stringIcNS_11char_traitsIcEENS_9allocatorIcEEEEiEEPvEENS_22__tree_node_destructorINS6_ISB_EEEEEC1B9nqe220108ILb1EvEEPSB_NS_16__dependent_typeINS_27__unique_ptr_deleter_sfinaeISE_EEXT_EE20__good_rval_ref_typeE, symObjAddr: 0xA558, symBinAddr: 0x10000D904, symSize: 0x3C }
  - { offset: 0x31D3D, size: 0x8, addend: 0x0, symName: __ZNKSt3__110unique_ptrINS_11__tree_nodeINS_12__value_typeINS_12basic_stringIcNS_11char_traitsIcEENS_9allocatorIcEEEEiEEPvEENS_22__tree_node_destructorINS6_ISB_EEEEEdeB9nqe220108Ev, symObjAddr: 0xA5E0, symBinAddr: 0x10000D98C, symSize: 0x18 }
  - { offset: 0x31D63, size: 0x8, addend: 0x0, symName: __ZNSt3__110unique_ptrINS_11__tree_nodeINS_12__value_typeINS_12basic_stringIcNS_11char_traitsIcEENS_9allocatorIcEEEEiEEPvEENS_22__tree_node_destructorINS6_ISB_EEEEE11get_deleterB9nqe220108Ev, symObjAddr: 0xA5F8, symBinAddr: 0x10000D9A4, symSize: 0x18 }
  - { offset: 0x31D89, size: 0x8, addend: 0x0, symName: __ZNSt3__19allocatorINS_11__tree_nodeINS_12__value_typeINS_12basic_stringIcNS_11char_traitsIcEENS0_IcEEEEiEEPvEEE8allocateB9nqe220108Em, symObjAddr: 0xA610, symBinAddr: 0x10000D9BC, symSize: 0x50 }
  - { offset: 0x31DC8, size: 0x8, addend: 0x0, symName: __ZNSt3__116allocator_traitsINS_9allocatorINS_11__tree_nodeINS_12__value_typeINS_12basic_stringIcNS_11char_traitsIcEENS1_IcEEEEiEEPvEEEEE8max_sizeB9nqe220108ISC_TnNS_9enable_ifIX16__has_max_size_vIKT_EEiE4typeELi0EEEmRKSC_, symObjAddr: 0xA660, symBinAddr: 0x10000DA0C, symSize: 0x24 }
  - { offset: 0x31DFB, size: 0x8, addend: 0x0, symName: __ZNKSt3__19allocatorINS_11__tree_nodeINS_12__value_typeINS_12basic_stringIcNS_11char_traitsIcEENS0_IcEEEEiEEPvEEE8max_sizeB9nqe220108Ev, symObjAddr: 0xA6B8, symBinAddr: 0x10000DA64, symSize: 0x14 }
  - { offset: 0x31E21, size: 0x8, addend: 0x0, symName: __ZNSt3__122__tree_node_destructorINS_9allocatorINS_11__tree_nodeINS_12__value_typeINS_12basic_stringIcNS_11char_traitsIcEENS1_IcEEEEiEEPvEEEEEC2B9nqe220108ERSC_b, symObjAddr: 0xA6CC, symBinAddr: 0x10000DA78, symSize: 0x30 }
  - { offset: 0x31E69, size: 0x8, addend: 0x0, symName: __ZNSt3__110unique_ptrINS_11__tree_nodeINS_12__value_typeINS_12basic_stringIcNS_11char_traitsIcEENS_9allocatorIcEEEEiEEPvEENS_22__tree_node_destructorINS6_ISB_EEEEEC2B9nqe220108ILb1EvEEPSB_NS_16__dependent_typeINS_27__unique_ptr_deleter_sfinaeISE_EEXT_EE20__good_rval_ref_typeE, symObjAddr: 0xA6FC, symBinAddr: 0x10000DAA8, symSize: 0x4C }
  - { offset: 0x31EBF, size: 0x8, addend: 0x0, symName: __ZNSt3__125__compressed_pair_paddingINS_22__tree_node_destructorINS_9allocatorINS_11__tree_nodeINS_12__value_typeINS_12basic_stringIcNS_11char_traitsIcEENS2_IcEEEEiEEPvEEEEEELb0EEC1Ev, symObjAddr: 0xA748, symBinAddr: 0x10000DAF4, symSize: 0x2C }
  - { offset: 0x31EEB, size: 0x8, addend: 0x0, symName: __ZNSt3__125__compressed_pair_paddingINS_22__tree_node_destructorINS_9allocatorINS_11__tree_nodeINS_12__value_typeINS_12basic_stringIcNS_11char_traitsIcEENS2_IcEEEEiEEPvEEEEEELb0EEC2Ev, symObjAddr: 0xA774, symBinAddr: 0x10000DB20, symSize: 0x4C }
  - { offset: 0x31F1D, size: 0x8, addend: 0x0, symName: __ZNSt3__111__tree_nodeINS_12__value_typeINS_12basic_stringIcNS_11char_traitsIcEENS_9allocatorIcEEEEiEEPvEC1B9nqe220108INS5_ISA_EEJRKNS_21piecewise_construct_tENS_5tupleIJRKS7_EEENSG_IJEEEEEERT_DpOT0_, symObjAddr: 0xA7C0, symBinAddr: 0x10000DB6C, symSize: 0x4C }
  - { offset: 0x31FA1, size: 0x8, addend: 0x0, symName: __ZNSt3__111__tree_nodeINS_12__value_typeINS_12basic_stringIcNS_11char_traitsIcEENS_9allocatorIcEEEEiEEPvEC2B9nqe220108INS5_ISA_EEJRKNS_21piecewise_construct_tENS_5tupleIJRKS7_EEENSG_IJEEEEEERT_DpOT0_, symObjAddr: 0xA80C, symBinAddr: 0x10000DBB8, symSize: 0x64 }
  - { offset: 0x32025, size: 0x8, addend: 0x0, symName: __ZNSt3__116__tree_node_baseIPvEC2B9nqe220108Ev, symObjAddr: 0xA870, symBinAddr: 0x10000DC1C, symSize: 0x2C }
  - { offset: 0x3204F, size: 0x8, addend: 0x0, symName: __ZNSt3__116allocator_traitsINS_9allocatorINS_11__tree_nodeINS_12__value_typeINS_12basic_stringIcNS_11char_traitsIcEENS1_IcEEEEiEEPvEEEEE9constructB9nqe220108INS_4pairIKS8_iEEJRKNS_21piecewise_construct_tENS_5tupleIJRSG_EEENSL_IJEEEETnNS_9enable_ifIX17__has_construct_vISC_PT_DpT0_EEiE4typeELi0EEEvRSC_SR_DpOSS_, symObjAddr: 0xA89C, symBinAddr: 0x10000DC48, symSize: 0x44 }
  - { offset: 0x320D3, size: 0x8, addend: 0x0, symName: __ZNSt3__115__tree_end_nodeIPNS_16__tree_node_baseIPvEEEC2B9nqe220108Ev, symObjAddr: 0xA8E0, symBinAddr: 0x10000DC8C, symSize: 0x18 }
  - { offset: 0x320FD, size: 0x8, addend: 0x0, symName: __ZNSt3__19allocatorINS_11__tree_nodeINS_12__value_typeINS_12basic_stringIcNS_11char_traitsIcEENS0_IcEEEEiEEPvEEE9constructB9nqe220108INS_4pairIKS7_iEEJRKNS_21piecewise_construct_tENS_5tupleIJRSE_EEENSJ_IJEEEEEEvPT_DpOT0_, symObjAddr: 0xA8F8, symBinAddr: 0x10000DCA4, symSize: 0x44 }
  - { offset: 0x32179, size: 0x8, addend: 0x0, symName: __ZNSt3__14pairIKNS_12basic_stringIcNS_11char_traitsIcEENS_9allocatorIcEEEEiEC1B9nqe220108IJRS7_EJEEENS_21piecewise_construct_tENS_5tupleIJDpT_EEENSC_IJDpT0_EEE, symObjAddr: 0xA93C, symBinAddr: 0x10000DCE8, symSize: 0x3C }
  - { offset: 0x321DD, size: 0x8, addend: 0x0, symName: __ZNSt3__14pairIKNS_12basic_stringIcNS_11char_traitsIcEENS_9allocatorIcEEEEiEC1B9nqe220108IJRS7_EJEJLm0EETpTnmJEEENS_21piecewise_construct_tERNS_5tupleIJDpT_EEERNSC_IJDpT0_EEENS_18__integer_sequenceImJXspT1_EEEENSL_ImJXspT2_EEEE, symObjAddr: 0xA978, symBinAddr: 0x10000DD24, symSize: 0x3C }
  - { offset: 0x32267, size: 0x8, addend: 0x0, symName: __ZNSt3__14pairIKNS_12basic_stringIcNS_11char_traitsIcEENS_9allocatorIcEEEEiEC2B9nqe220108IJRS7_EJEJLm0EETpTnmJEEENS_21piecewise_construct_tERNS_5tupleIJDpT_EEERNSC_IJDpT0_EEENS_18__integer_sequenceImJXspT1_EEEENSL_ImJXspT2_EEEE, symObjAddr: 0xA9B4, symBinAddr: 0x10000DD60, symSize: 0x48 }
  - { offset: 0x322F1, size: 0x8, addend: 0x0, symName: __ZNKSt3__116__tree_node_baseIPvE15__parent_unsafeB9nqe220108Ev, symObjAddr: 0xAD08, symBinAddr: 0x10000E0B4, symSize: 0x18 }
  - { offset: 0x32317, size: 0x8, addend: 0x0, symName: __ZNSt3__116__tree_node_baseIPvE12__set_parentB9nqe220108EPS2_, symObjAddr: 0xAEDC, symBinAddr: 0x10000E288, symSize: 0x20 }
  - { offset: 0x3234C, size: 0x8, addend: 0x0, symName: __ZNSt3__110unique_ptrINS_11__tree_nodeINS_12__value_typeINS_12basic_stringIcNS_11char_traitsIcEENS_9allocatorIcEEEEiEEPvEENS_22__tree_node_destructorINS6_ISB_EEEEED2B9nqe220108Ev, symObjAddr: 0xAEFC, symBinAddr: 0x10000E2A8, symSize: 0x30 }
  - { offset: 0x3237A, size: 0x8, addend: 0x0, symName: __ZNSt3__110unique_ptrINS_11__tree_nodeINS_12__value_typeINS_12basic_stringIcNS_11char_traitsIcEENS_9allocatorIcEEEEiEEPvEENS_22__tree_node_destructorINS6_ISB_EEEEE5resetB9nqe220108EPSB_, symObjAddr: 0xAF2C, symBinAddr: 0x10000E2D8, symSize: 0x58 }
  - { offset: 0x323BE, size: 0x8, addend: 0x0, symName: __ZNSt3__122__tree_node_destructorINS_9allocatorINS_11__tree_nodeINS_12__value_typeINS_12basic_stringIcNS_11char_traitsIcEENS1_IcEEEEiEEPvEEEEEclB9nqe220108EPSB_, symObjAddr: 0xAF84, symBinAddr: 0x10000E330, symSize: 0x7C }
  - { offset: 0x323F3, size: 0x8, addend: 0x0, symName: __ZNSt3__115__tree_iteratorINS_12__value_typeINS_12basic_stringIcNS_11char_traitsIcEENS_9allocatorIcEEEEiEEPNS_11__tree_nodeIS8_PvEElEC2B9nqe220108ESC_, symObjAddr: 0xB000, symBinAddr: 0x10000E3AC, symSize: 0x20 }
  - { offset: 0x3242C, size: 0x8, addend: 0x0, symName: __ZNSt3__14pairINS_15__tree_iteratorINS_12__value_typeINS_12basic_stringIcNS_11char_traitsIcEENS_9allocatorIcEEEEiEEPNS_11__tree_nodeIS9_PvEElEEbEC2B9nqe220108ISE_RbTnNS_9enable_ifIXclsr25__check_pair_constructionISE_bEE23__is_pair_constructibleIT_T0_EEEiE4typeELi0EEEOSJ_OSK_, symObjAddr: 0xB020, symBinAddr: 0x10000E3CC, symSize: 0x38 }
  - { offset: 0x3248A, size: 0x8, addend: 0x0, symName: __ZNSt3__112__tuple_leafILm0ERKNS_12basic_stringIcNS_11char_traitsIcEENS_9allocatorIcEEEELb0EE3getB9nqe220108Ev, symObjAddr: 0xB058, symBinAddr: 0x10000E404, symSize: 0x18 }
  - { offset: 0x324B0, size: 0x8, addend: 0x0, symName: __ZNSt3__15tupleIJRKNS_12basic_stringIcNS_11char_traitsIcEENS_9allocatorIcEEEEEEC1B9nqe220108INS_4_AndETnNS_9enable_ifIXsrT_IJNS_17integral_constantIbLb1EEENS_21is_copy_constructibleIS8_EEEE5valueEiE4typeELi0EEES8_, symObjAddr: 0xB070, symBinAddr: 0x10000E41C, symSize: 0x34 }
  - { offset: 0x324F8, size: 0x8, addend: 0x0, symName: __ZNSt3__15tupleIJRKNS_12basic_stringIcNS_11char_traitsIcEENS_9allocatorIcEEEEEEC2B9nqe220108INS_4_AndETnNS_9enable_ifIXsrT_IJNS_17integral_constantIbLb1EEENS_21is_copy_constructibleIS8_EEEE5valueEiE4typeELi0EEES8_, symObjAddr: 0xB0A4, symBinAddr: 0x10000E450, symSize: 0x3C }
  - { offset: 0x32540, size: 0x8, addend: 0x0, symName: __ZNSt3__112__tuple_implINS_18__integer_sequenceImJLm0EEEEJRKNS_12basic_stringIcNS_11char_traitsIcEENS_9allocatorIcEEEEEEC1B9nqe220108IJSA_EEENS_14__forward_argsEDpOT_, symObjAddr: 0xB0E0, symBinAddr: 0x10000E48C, symSize: 0x34 }
  - { offset: 0x3258F, size: 0x8, addend: 0x0, symName: __ZNSt3__112__tuple_implINS_18__integer_sequenceImJLm0EEEEJRKNS_12basic_stringIcNS_11char_traitsIcEENS_9allocatorIcEEEEEEC2B9nqe220108IJSA_EEENS_14__forward_argsEDpOT_, symObjAddr: 0xB114, symBinAddr: 0x10000E4C0, symSize: 0x34 }
  - { offset: 0x325DE, size: 0x8, addend: 0x0, symName: __ZNSt3__112__tuple_leafILm0ERKNS_12basic_stringIcNS_11char_traitsIcEENS_9allocatorIcEEEELb0EEC2B9nqe220108IS8_TnNS_9enable_ifIXsr4_AndINS_17integral_constantIbXntu9__is_sameu14__remove_cvrefIT_ES9_EEEENS_16is_constructibleIS8_JSD_EEEEE5valueEiE4typeELi0EEEOSD_, symObjAddr: 0xB148, symBinAddr: 0x10000E4F4, symSize: 0x20 }
  - { offset: 0x32626, size: 0x8, addend: 0x0, symName: __ZNSt3__114pointer_traitsIPNS_4pairIKNS_12basic_stringIcNS_11char_traitsIcEENS_9allocatorIcEEEEiEEE10pointer_toB9nqe220108ERS9_, symObjAddr: 0xB168, symBinAddr: 0x10000E514, symSize: 0x14 }
  - { offset: 0x32649, size: 0x8, addend: 0x0, symName: __ZNKSt3__115__tree_iteratorINS_12__value_typeINS_12basic_stringIcNS_11char_traitsIcEENS_9allocatorIcEEEEiEEPNS_11__tree_nodeIS8_PvEElE8__get_npB9nqe220108Ev, symObjAddr: 0xB17C, symBinAddr: 0x10000E528, symSize: 0x18 }
  - { offset: 0x3266F, size: 0x8, addend: 0x0, symName: __ZNSt3__112basic_stringIcNS_11char_traitsIcEENS_9allocatorIcEEEC2B9nqe220108Ev, symObjAddr: 0xB194, symBinAddr: 0x10000E540, symSize: 0x3C }
  - { offset: 0x32699, size: 0x8, addend: 0x0, symName: __ZNKSt3__112basic_stringIcNS_11char_traitsIcEENS_9allocatorIcEEE14__annotate_newB9nqe220108Em, symObjAddr: 0xB1D0, symBinAddr: 0x10000E57C, symSize: 0x7C }
  - { offset: 0x326CE, size: 0x8, addend: 0x0, symName: __ZNKSt3__112basic_stringIcNS_11char_traitsIcEENS_9allocatorIcEEE31__annotate_contiguous_containerB9nqe220108EPKvS7_, symObjAddr: 0xB24C, symBinAddr: 0x10000E5F8, symSize: 0x18 }
  - { offset: 0x32712, size: 0x8, addend: 0x0, symName: __ZNKSt3__112basic_stringIcNS_11char_traitsIcEENS_9allocatorIcEEE8capacityB9nqe220108Ev, symObjAddr: 0xB264, symBinAddr: 0x10000E610, symSize: 0x54 }
  - { offset: 0x32738, size: 0x8, addend: 0x0, symName: __ZNKSt3__112basic_stringIcNS_11char_traitsIcEENS_9allocatorIcEEE14__get_long_capB9nqe220108Ev, symObjAddr: 0xB2B8, symBinAddr: 0x10000E664, symSize: 0x20 }
  - { offset: 0x3275E, size: 0x8, addend: 0x0, symName: __ZNSt3__112basic_stringIcNS_11char_traitsIcEENS_9allocatorIcEEEC1B9nqe220108EOS5_, symObjAddr: 0xB2D8, symBinAddr: 0x10000E684, symSize: 0x34 }
  - { offset: 0x32797, size: 0x8, addend: 0x0, symName: __ZNSt3__112basic_stringIcNS_11char_traitsIcEENS_9allocatorIcEEEC2B9nqe220108EOS5_, symObjAddr: 0xB30C, symBinAddr: 0x10000E6B8, symSize: 0xB4 }
  - { offset: 0x32800, size: 0x8, addend: 0x0, symName: __ZZNSt3__112basic_stringIcNS_11char_traitsIcEENS_9allocatorIcEEEC1B9nqe220108EOS5_ENKUlRS5_E_clES7_, symObjAddr: 0xB3C0, symBinAddr: 0x10000E76C, symSize: 0x40 }
  - { offset: 0x32839, size: 0x8, addend: 0x0, symName: __ZNKSt3__112basic_stringIcNS_11char_traitsIcEENS_9allocatorIcEEE17__annotate_deleteB9nqe220108Ev, symObjAddr: 0xB400, symBinAddr: 0x10000E7AC, symSize: 0x80 }
  - { offset: 0x3285F, size: 0x8, addend: 0x0, symName: __ZNSt3__123mersenne_twister_engineIjLm32ELm624ELm397ELm31ELj2567483615ELm11ELj4294967295ELm7ELj2636928640ELm15ELj4022730752ELm18ELj1812433253EEC1B9nqe220108Ej, symObjAddr: 0xB480, symBinAddr: 0x10000E82C, symSize: 0x34 }
  - { offset: 0x32897, size: 0x8, addend: 0x0, symName: __ZNSt3__123mersenne_twister_engineIjLm32ELm624ELm397ELm31ELj2567483615ELm11ELj4294967295ELm7ELj2636928640ELm15ELj4022730752ELm18ELj1812433253EEC2B9nqe220108Ej, symObjAddr: 0xB4B4, symBinAddr: 0x10000E860, symSize: 0x34 }
  - { offset: 0x328CF, size: 0x8, addend: 0x0, symName: __ZNSt3__123mersenne_twister_engineIjLm32ELm624ELm397ELm31ELj2567483615ELm11ELj4294967295ELm7ELj2636928640ELm15ELj4022730752ELm18ELj1812433253EE4seedB9nqe220108Ej, symObjAddr: 0xB4E8, symBinAddr: 0x10000E894, symSize: 0xC4 }
  - { offset: 0x3291F, size: 0x8, addend: 0x0, symName: __ZNSt3__123mersenne_twister_engineIjLm32ELm624ELm397ELm31ELj2567483615ELm11ELj4294967295ELm7ELj2636928640ELm15ELj4022730752ELm18ELj1812433253EE8__rshiftB9nqe220108ILm30ETnNS_9enable_ifIXltT_L_ZNS1_3_DtEEEiE4typeELi0EEEjj, symObjAddr: 0xB5AC, symBinAddr: 0x10000E958, symSize: 0x18 }
  - { offset: 0x32953, size: 0x8, addend: 0x0, symName: '__ZNSt3__14pairIKNS_12basic_stringIcNS_11char_traitsIcEENS_9allocatorIcEEEEiEC2B9nqe220108IRA9_Kc3$_0TnNS_9enable_ifIXclsr25__check_pair_constructionIS7_iEE23__is_pair_constructibleIT_T0_EEEiE4typeELi0EEEOSF_OSG_', symObjAddr: 0xB5C4, symBinAddr: 0x10000E970, symSize: 0x44 }
  - { offset: 0x329B1, size: 0x8, addend: 0x0, symName: '__ZNSt3__14pairIKNS_12basic_stringIcNS_11char_traitsIcEENS_9allocatorIcEEEEiEC2B9nqe220108IRA13_Kc3$_0TnNS_9enable_ifIXclsr25__check_pair_constructionIS7_iEE23__is_pair_constructibleIT_T0_EEEiE4typeELi0EEEOSF_OSG_', symObjAddr: 0xB608, symBinAddr: 0x10000E9B4, symSize: 0x44 }
  - { offset: 0x32A0F, size: 0x8, addend: 0x0, symName: '__ZNSt3__14pairIKNS_12basic_stringIcNS_11char_traitsIcEENS_9allocatorIcEEEEiEC2B9nqe220108IRA16_Kc3$_0TnNS_9enable_ifIXclsr25__check_pair_constructionIS7_iEE23__is_pair_constructibleIT_T0_EEEiE4typeELi0EEEOSF_OSG_', symObjAddr: 0xB64C, symBinAddr: 0x10000E9F8, symSize: 0x44 }
  - { offset: 0x32A6D, size: 0x8, addend: 0x0, symName: __ZNSt3__13mapINS_12basic_stringIcNS_11char_traitsIcEENS_9allocatorIcEEEEiNS_4lessIS6_EENS4_INS_4pairIKS6_iEEEEEC2B9nqe220108ESt16initializer_listISB_ERKS8_, symObjAddr: 0xB690, symBinAddr: 0x10000EA3C, symSize: 0xA4 }
  - { offset: 0x32AB5, size: 0x8, addend: 0x0, symName: __ZNSt3__119__map_value_compareINS_12basic_stringIcNS_11char_traitsIcEENS_9allocatorIcEEEENS_4pairIKS6_iEENS_4lessIS6_EEEC1B9nqe220108ESB_, symObjAddr: 0xB734, symBinAddr: 0x10000EAE0, symSize: 0x2C }
  - { offset: 0x32AEE, size: 0x8, addend: 0x0, symName: __ZNSt3__16__treeINS_12__value_typeINS_12basic_stringIcNS_11char_traitsIcEENS_9allocatorIcEEEEiEENS_19__map_value_compareIS7_NS_4pairIKS7_iEENS_4lessIS7_EEEENS5_ISC_EEEC1B9nqe220108ERKSF_, symObjAddr: 0xB760, symBinAddr: 0x10000EB0C, symSize: 0x34 }
  - { offset: 0x32B27, size: 0x8, addend: 0x0, symName: __ZNSt3__13mapINS_12basic_stringIcNS_11char_traitsIcEENS_9allocatorIcEEEEiNS_4lessIS6_EENS4_INS_4pairIKS6_iEEEEE6insertB9nqe220108IPKSB_EEvT_SH_, symObjAddr: 0xB794, symBinAddr: 0x10000EB40, symSize: 0x34 }
  - { offset: 0x32B74, size: 0x8, addend: 0x0, symName: __ZNKSt16initializer_listINSt3__14pairIKNS0_12basic_stringIcNS0_11char_traitsIcEENS0_9allocatorIcEEEEiEEE5beginB9nqe220108Ev, symObjAddr: 0xB7C8, symBinAddr: 0x10000EB74, symSize: 0x18 }
  - { offset: 0x32B9A, size: 0x8, addend: 0x0, symName: __ZNKSt16initializer_listINSt3__14pairIKNS0_12basic_stringIcNS0_11char_traitsIcEENS0_9allocatorIcEEEEiEEE3endB9nqe220108Ev, symObjAddr: 0xB7E0, symBinAddr: 0x10000EB8C, symSize: 0x20 }
  - { offset: 0x32BC0, size: 0x8, addend: 0x0, symName: __ZNSt3__119__map_value_compareINS_12basic_stringIcNS_11char_traitsIcEENS_9allocatorIcEEEENS_4pairIKS6_iEENS_4lessIS6_EEEC2B9nqe220108ESB_, symObjAddr: 0xB800, symBinAddr: 0x10000EBAC, symSize: 0x14 }
  - { offset: 0x32BF9, size: 0x8, addend: 0x0, symName: __ZNSt3__16__treeINS_12__value_typeINS_12basic_stringIcNS_11char_traitsIcEENS_9allocatorIcEEEEiEENS_19__map_value_compareIS7_NS_4pairIKS7_iEENS_4lessIS7_EEEENS5_ISC_EEEC2B9nqe220108ERKSF_, symObjAddr: 0xB814, symBinAddr: 0x10000EBC0, symSize: 0x48 }
  - { offset: 0x32C32, size: 0x8, addend: 0x0, symName: __ZNSt3__115__tree_end_nodeIPNS_16__tree_node_baseIPvEEEC1B9nqe220108Ev, symObjAddr: 0xB85C, symBinAddr: 0x10000EC08, symSize: 0x2C }
  - { offset: 0x32C5C, size: 0x8, addend: 0x0, symName: __ZNSt3__16__treeINS_12__value_typeINS_12basic_stringIcNS_11char_traitsIcEENS_9allocatorIcEEEEiEENS_19__map_value_compareIS7_NS_4pairIKS7_iEENS_4lessIS7_EEEENS5_ISC_EEE21__insert_range_uniqueB9nqe220108IPKSC_SK_EEvT_T0_, symObjAddr: 0xB888, symBinAddr: 0x10000EC34, symSize: 0x12C }
  - { offset: 0x32D30, size: 0x8, addend: 0x0, symName: __ZNSt3__16__treeINS_12__value_typeINS_12basic_stringIcNS_11char_traitsIcEENS_9allocatorIcEEEEiEENS_19__map_value_compareIS7_NS_4pairIKS7_iEENS_4lessIS7_EEEENS5_ISC_EEE16__construct_nodeIJRKSC_EEENS_10unique_ptrINS_11__tree_nodeIS8_PvEENS_22__tree_node_destructorINS5_ISO_EEEEEEDpOT_, symObjAddr: 0xB9B4, symBinAddr: 0x10000ED60, symSize: 0xF4 }
  - { offset: 0x32D8F, size: 0x8, addend: 0x0, symName: __ZNSt3__111__tree_nodeINS_12__value_typeINS_12basic_stringIcNS_11char_traitsIcEENS_9allocatorIcEEEEiEEPvEC1B9nqe220108INS5_ISA_EEJRKNS_4pairIKS7_iEEEEERT_DpOT0_, symObjAddr: 0xBB70, symBinAddr: 0x10000EF1C, symSize: 0x3C }
  - { offset: 0x32DEB, size: 0x8, addend: 0x0, symName: __ZNSt3__111__tree_nodeINS_12__value_typeINS_12basic_stringIcNS_11char_traitsIcEENS_9allocatorIcEEEEiEEPvEC2B9nqe220108INS5_ISA_EEJRKNS_4pairIKS7_iEEEEERT_DpOT0_, symObjAddr: 0xBBAC, symBinAddr: 0x10000EF58, symSize: 0x54 }
  - { offset: 0x32E47, size: 0x8, addend: 0x0, symName: __ZNSt3__116allocator_traitsINS_9allocatorINS_11__tree_nodeINS_12__value_typeINS_12basic_stringIcNS_11char_traitsIcEENS1_IcEEEEiEEPvEEEEE9constructB9nqe220108INS_4pairIKS8_iEEJRKSH_ETnNS_9enable_ifIX17__has_construct_vISC_PT_DpT0_EEiE4typeELi0EEEvRSC_SM_DpOSN_, symObjAddr: 0xBC00, symBinAddr: 0x10000EFAC, symSize: 0x34 }
  - { offset: 0x32EA3, size: 0x8, addend: 0x0, symName: __ZNSt3__19allocatorINS_11__tree_nodeINS_12__value_typeINS_12basic_stringIcNS_11char_traitsIcEENS0_IcEEEEiEEPvEEE9constructB9nqe220108INS_4pairIKS7_iEEJRKSF_EEEvPT_DpOT0_, symObjAddr: 0xBC34, symBinAddr: 0x10000EFE0, symSize: 0x30 }
  - { offset: 0x32EF9, size: 0x8, addend: 0x0, symName: __ZNSt3__14pairIKNS_12basic_stringIcNS_11char_traitsIcEENS_9allocatorIcEEEEiEC1B9nqe220108ERKS8_, symObjAddr: 0xBC64, symBinAddr: 0x10000F010, symSize: 0x34 }
  - { offset: 0x32F2D, size: 0x8, addend: 0x0, symName: __ZNSt3__14pairIKNS_12basic_stringIcNS_11char_traitsIcEENS_9allocatorIcEEEEiEC2B9nqe220108ERKS8_, symObjAddr: 0xBC98, symBinAddr: 0x10000F044, symSize: 0x40 }
  - { offset: 0x32F71, size: 0x8, addend: 0x0, symName: __ZZNSt3__16__treeINS_12__value_typeINS_12basic_stringIcNS_11char_traitsIcEENS_9allocatorIcEEEEiEENS_19__map_value_compareIS7_NS_4pairIKS7_iEENS_4lessIS7_EEEENS5_ISC_EEE21__insert_range_uniqueB9nqe220108IPKSC_SK_EEvT_T0_ENKUlRSB_RSJ_E_clESN_SO_, symObjAddr: 0xBD18, symBinAddr: 0x10000F0C4, symSize: 0x174 }
  - { offset: 0x33012, size: 0x8, addend: 0x0, symName: __ZNSt3__14pairIKNS_12basic_stringIcNS_11char_traitsIcEENS_9allocatorIcEEEES6_EC2B9nqe220108IRA9_KcRA16_SA_TnNS_9enable_ifIXclsr25__check_pair_constructionIS7_S6_EE23__is_pair_constructibleIT_T0_EEEiE4typeELi0EEEOSG_OSH_, symObjAddr: 0xBE8C, symBinAddr: 0x10000F238, symSize: 0x70 }
  - { offset: 0x33070, size: 0x8, addend: 0x0, symName: __ZNSt3__14pairIKNS_12basic_stringIcNS_11char_traitsIcEENS_9allocatorIcEEEES6_EC2B9nqe220108IRA13_KcRA20_SA_TnNS_9enable_ifIXclsr25__check_pair_constructionIS7_S6_EE23__is_pair_constructibleIT_T0_EEEiE4typeELi0EEEOSG_OSH_, symObjAddr: 0xBEFC, symBinAddr: 0x10000F2A8, symSize: 0x70 }
  - { offset: 0x330CE, size: 0x8, addend: 0x0, symName: __ZNSt3__14pairIKNS_12basic_stringIcNS_11char_traitsIcEENS_9allocatorIcEEEES6_EC2B9nqe220108IRA16_KcRA23_SA_TnNS_9enable_ifIXclsr25__check_pair_constructionIS7_S6_EE23__is_pair_constructibleIT_T0_EEEiE4typeELi0EEEOSG_OSH_, symObjAddr: 0xBF6C, symBinAddr: 0x10000F318, symSize: 0x70 }
  - { offset: 0x3312C, size: 0x8, addend: 0x0, symName: __ZNSt3__13mapINS_12basic_stringIcNS_11char_traitsIcEENS_9allocatorIcEEEES6_NS_4lessIS6_EENS4_INS_4pairIKS6_S6_EEEEEC2B9nqe220108ESt16initializer_listISB_ERKS8_, symObjAddr: 0xBFDC, symBinAddr: 0x10000F388, symSize: 0xA4 }
  - { offset: 0x33174, size: 0x8, addend: 0x0, symName: __ZNSt3__119__map_value_compareINS_12basic_stringIcNS_11char_traitsIcEENS_9allocatorIcEEEENS_4pairIKS6_S6_EENS_4lessIS6_EEEC1B9nqe220108ESB_, symObjAddr: 0xC080, symBinAddr: 0x10000F42C, symSize: 0x2C }
  - { offset: 0x331AD, size: 0x8, addend: 0x0, symName: __ZNSt3__16__treeINS_12__value_typeINS_12basic_stringIcNS_11char_traitsIcEENS_9allocatorIcEEEES7_EENS_19__map_value_compareIS7_NS_4pairIKS7_S7_EENS_4lessIS7_EEEENS5_ISC_EEEC1B9nqe220108ERKSF_, symObjAddr: 0xC0AC, symBinAddr: 0x10000F458, symSize: 0x34 }
  - { offset: 0x331E6, size: 0x8, addend: 0x0, symName: __ZNSt3__13mapINS_12basic_stringIcNS_11char_traitsIcEENS_9allocatorIcEEEES6_NS_4lessIS6_EENS4_INS_4pairIKS6_S6_EEEEE6insertB9nqe220108IPKSB_EEvT_SH_, symObjAddr: 0xC0E0, symBinAddr: 0x10000F48C, symSize: 0x34 }
  - { offset: 0x33233, size: 0x8, addend: 0x0, symName: __ZNKSt16initializer_listINSt3__14pairIKNS0_12basic_stringIcNS0_11char_traitsIcEENS0_9allocatorIcEEEES7_EEE5beginB9nqe220108Ev, symObjAddr: 0xC114, symBinAddr: 0x10000F4C0, symSize: 0x18 }
  - { offset: 0x33259, size: 0x8, addend: 0x0, symName: __ZNKSt16initializer_listINSt3__14pairIKNS0_12basic_stringIcNS0_11char_traitsIcEENS0_9allocatorIcEEEES7_EEE3endB9nqe220108Ev, symObjAddr: 0xC12C, symBinAddr: 0x10000F4D8, symSize: 0x28 }
  - { offset: 0x3327F, size: 0x8, addend: 0x0, symName: __ZNSt3__16__treeINS_12__value_typeINS_12basic_stringIcNS_11char_traitsIcEENS_9allocatorIcEEEES7_EENS_19__map_value_compareIS7_NS_4pairIKS7_S7_EENS_4lessIS7_EEEENS5_ISC_EEED1B9nqe220108Ev, symObjAddr: 0xC154, symBinAddr: 0x10000F500, symSize: 0x2C }
  - { offset: 0x332AD, size: 0x8, addend: 0x0, symName: __ZNSt3__119__map_value_compareINS_12basic_stringIcNS_11char_traitsIcEENS_9allocatorIcEEEENS_4pairIKS6_S6_EENS_4lessIS6_EEEC2B9nqe220108ESB_, symObjAddr: 0xC180, symBinAddr: 0x10000F52C, symSize: 0x14 }
  - { offset: 0x332E6, size: 0x8, addend: 0x0, symName: __ZNSt3__16__treeINS_12__value_typeINS_12basic_stringIcNS_11char_traitsIcEENS_9allocatorIcEEEES7_EENS_19__map_value_compareIS7_NS_4pairIKS7_S7_EENS_4lessIS7_EEEENS5_ISC_EEEC2B9nqe220108ERKSF_, symObjAddr: 0xC194, symBinAddr: 0x10000F540, symSize: 0x48 }
  - { offset: 0x3331F, size: 0x8, addend: 0x0, symName: __ZNSt3__16__treeINS_12__value_typeINS_12basic_stringIcNS_11char_traitsIcEENS_9allocatorIcEEEES7_EENS_19__map_value_compareIS7_NS_4pairIKS7_S7_EENS_4lessIS7_EEEENS5_ISC_EEE10__end_nodeB9nqe220108Ev, symObjAddr: 0xC1DC, symBinAddr: 0x10000F588, symSize: 0x28 }
  - { offset: 0x33345, size: 0x8, addend: 0x0, symName: __ZNSt3__16__treeINS_12__value_typeINS_12basic_stringIcNS_11char_traitsIcEENS_9allocatorIcEEEES7_EENS_19__map_value_compareIS7_NS_4pairIKS7_S7_EENS_4lessIS7_EEEENS5_ISC_EEE21__insert_range_uniqueB9nqe220108IPKSC_SK_EEvT_T0_, symObjAddr: 0xC204, symBinAddr: 0x10000F5B0, symSize: 0x12C }
  - { offset: 0x33419, size: 0x8, addend: 0x0, symName: __ZNKSt3__16__treeINS_12__value_typeINS_12basic_stringIcNS_11char_traitsIcEENS_9allocatorIcEEEES7_EENS_19__map_value_compareIS7_NS_4pairIKS7_S7_EENS_4lessIS7_EEEENS5_ISC_EEE6__rootB9nqe220108Ev, symObjAddr: 0xC330, symBinAddr: 0x10000F6DC, symSize: 0x28 }
  - { offset: 0x3343F, size: 0x8, addend: 0x0, symName: __ZNSt3__16__treeINS_12__value_typeINS_12basic_stringIcNS_11char_traitsIcEENS_9allocatorIcEEEES7_EENS_19__map_value_compareIS7_NS_4pairIKS7_S7_EENS_4lessIS7_EEEENS5_ISC_EEE16__insert_node_atEPNS_15__tree_end_nodeIPNS_16__tree_node_baseIPvEEEERSM_SM_, symObjAddr: 0xC358, symBinAddr: 0x10000F704, symSize: 0xA4 }
  - { offset: 0x33494, size: 0x8, addend: 0x0, symName: __ZNSt3__16__treeINS_12__value_typeINS_12basic_stringIcNS_11char_traitsIcEENS_9allocatorIcEEEES7_EENS_19__map_value_compareIS7_NS_4pairIKS7_S7_EENS_4lessIS7_EEEENS5_ISC_EEE16__construct_nodeIJRKSC_EEENS_10unique_ptrINS_11__tree_nodeIS8_PvEENS_22__tree_node_destructorINS5_ISO_EEEEEEDpOT_, symObjAddr: 0xC3FC, symBinAddr: 0x10000F7A8, symSize: 0xF4 }
  - { offset: 0x334F3, size: 0x8, addend: 0x0, symName: __ZNSt3__110unique_ptrINS_11__tree_nodeINS_12__value_typeINS_12basic_stringIcNS_11char_traitsIcEENS_9allocatorIcEEEES8_EEPvEENS_22__tree_node_destructorINS6_ISB_EEEEE7releaseB9nqe220108Ev, symObjAddr: 0xC4F0, symBinAddr: 0x10000F89C, symSize: 0x24 }
  - { offset: 0x33528, size: 0x8, addend: 0x0, symName: __ZNSt3__110unique_ptrINS_11__tree_nodeINS_12__value_typeINS_12basic_stringIcNS_11char_traitsIcEENS_9allocatorIcEEEES8_EEPvEENS_22__tree_node_destructorINS6_ISB_EEEEED1B9nqe220108Ev, symObjAddr: 0xC514, symBinAddr: 0x10000F8C0, symSize: 0x2C }
  - { offset: 0x33556, size: 0x8, addend: 0x0, symName: __ZNKSt3__16__treeINS_12__value_typeINS_12basic_stringIcNS_11char_traitsIcEENS_9allocatorIcEEEES7_EENS_19__map_value_compareIS7_NS_4pairIKS7_S7_EENS_4lessIS7_EEEENS5_ISC_EEE10__end_nodeB9nqe220108Ev, symObjAddr: 0xC594, symBinAddr: 0x10000F940, symSize: 0x28 }
  - { offset: 0x3357C, size: 0x8, addend: 0x0, symName: __ZNSt3__16__treeINS_12__value_typeINS_12basic_stringIcNS_11char_traitsIcEENS_9allocatorIcEEEES7_EENS_19__map_value_compareIS7_NS_4pairIKS7_S7_EENS_4lessIS7_EEEENS5_ISC_EEE12__node_allocB9nqe220108Ev, symObjAddr: 0xC5BC, symBinAddr: 0x10000F968, symSize: 0x18 }
  - { offset: 0x335A2, size: 0x8, addend: 0x0, symName: __ZNSt3__116allocator_traitsINS_9allocatorINS_11__tree_nodeINS_12__value_typeINS_12basic_stringIcNS_11char_traitsIcEENS1_IcEEEES8_EEPvEEEEE8allocateB9nqe220108ERSC_m, symObjAddr: 0xC5D4, symBinAddr: 0x10000F980, symSize: 0x2C }
  - { offset: 0x335D5, size: 0x8, addend: 0x0, symName: __ZNSt3__122__tree_node_destructorINS_9allocatorINS_11__tree_nodeINS_12__value_typeINS_12basic_stringIcNS_11char_traitsIcEENS1_IcEEEES8_EEPvEEEEEC1B9nqe220108ERSC_b, symObjAddr: 0xC600, symBinAddr: 0x10000F9AC, symSize: 0x40 }
  - { offset: 0x33623, size: 0x8, addend: 0x0, symName: __ZNSt3__110unique_ptrINS_11__tree_nodeINS_12__value_typeINS_12basic_stringIcNS_11char_traitsIcEENS_9allocatorIcEEEES8_EEPvEENS_22__tree_node_destructorINS6_ISB_EEEEEC1B9nqe220108ILb1EvEEPSB_NS_16__dependent_typeINS_27__unique_ptr_deleter_sfinaeISE_EEXT_EE20__good_rval_ref_typeE, symObjAddr: 0xC640, symBinAddr: 0x10000F9EC, symSize: 0x3C }
  - { offset: 0x33674, size: 0x8, addend: 0x0, symName: __ZNKSt3__110unique_ptrINS_11__tree_nodeINS_12__value_typeINS_12basic_stringIcNS_11char_traitsIcEENS_9allocatorIcEEEES8_EEPvEENS_22__tree_node_destructorINS6_ISB_EEEEEdeB9nqe220108Ev, symObjAddr: 0xC6B8, symBinAddr: 0x10000FA64, symSize: 0x18 }
  - { offset: 0x3369A, size: 0x8, addend: 0x0, symName: __ZNSt3__110unique_ptrINS_11__tree_nodeINS_12__value_typeINS_12basic_stringIcNS_11char_traitsIcEENS_9allocatorIcEEEES8_EEPvEENS_22__tree_node_destructorINS6_ISB_EEEEE11get_deleterB9nqe220108Ev, symObjAddr: 0xC6D0, symBinAddr: 0x10000FA7C, symSize: 0x18 }
  - { offset: 0x336C0, size: 0x8, addend: 0x0, symName: __ZNSt3__19allocatorINS_11__tree_nodeINS_12__value_typeINS_12basic_stringIcNS_11char_traitsIcEENS0_IcEEEES7_EEPvEEE8allocateB9nqe220108Em, symObjAddr: 0xC6E8, symBinAddr: 0x10000FA94, symSize: 0x50 }
  - { offset: 0x336FF, size: 0x8, addend: 0x0, symName: __ZNSt3__116allocator_traitsINS_9allocatorINS_11__tree_nodeINS_12__value_typeINS_12basic_stringIcNS_11char_traitsIcEENS1_IcEEEES8_EEPvEEEEE8max_sizeB9nqe220108ISC_TnNS_9enable_ifIX16__has_max_size_vIKT_EEiE4typeELi0EEEmRKSC_, symObjAddr: 0xC738, symBinAddr: 0x10000FAE4, symSize: 0x24 }
  - { offset: 0x33732, size: 0x8, addend: 0x0, symName: __ZNKSt3__19allocatorINS_11__tree_nodeINS_12__value_typeINS_12basic_stringIcNS_11char_traitsIcEENS0_IcEEEES7_EEPvEEE8max_sizeB9nqe220108Ev, symObjAddr: 0xC794, symBinAddr: 0x10000FB40, symSize: 0x18 }
  - { offset: 0x33758, size: 0x8, addend: 0x0, symName: __ZNSt3__122__tree_node_destructorINS_9allocatorINS_11__tree_nodeINS_12__value_typeINS_12basic_stringIcNS_11char_traitsIcEENS1_IcEEEES8_EEPvEEEEEC2B9nqe220108ERSC_b, symObjAddr: 0xC7AC, symBinAddr: 0x10000FB58, symSize: 0x30 }
  - { offset: 0x337A0, size: 0x8, addend: 0x0, symName: __ZNSt3__110unique_ptrINS_11__tree_nodeINS_12__value_typeINS_12basic_stringIcNS_11char_traitsIcEENS_9allocatorIcEEEES8_EEPvEENS_22__tree_node_destructorINS6_ISB_EEEEEC2B9nqe220108ILb1EvEEPSB_NS_16__dependent_typeINS_27__unique_ptr_deleter_sfinaeISE_EEXT_EE20__good_rval_ref_typeE, symObjAddr: 0xC7DC, symBinAddr: 0x10000FB88, symSize: 0x4C }
  - { offset: 0x337F6, size: 0x8, addend: 0x0, symName: __ZNSt3__125__compressed_pair_paddingINS_22__tree_node_destructorINS_9allocatorINS_11__tree_nodeINS_12__value_typeINS_12basic_stringIcNS_11char_traitsIcEENS2_IcEEEES9_EEPvEEEEEELb0EEC1Ev, symObjAddr: 0xC828, symBinAddr: 0x10000FBD4, symSize: 0x2C }
  - { offset: 0x33822, size: 0x8, addend: 0x0, symName: __ZNSt3__125__compressed_pair_paddingINS_22__tree_node_destructorINS_9allocatorINS_11__tree_nodeINS_12__value_typeINS_12basic_stringIcNS_11char_traitsIcEENS2_IcEEEES9_EEPvEEEEEELb0EEC2Ev, symObjAddr: 0xC854, symBinAddr: 0x10000FC00, symSize: 0x4C }
  - { offset: 0x33854, size: 0x8, addend: 0x0, symName: __ZNSt3__111__tree_nodeINS_12__value_typeINS_12basic_stringIcNS_11char_traitsIcEENS_9allocatorIcEEEES7_EEPvEC1B9nqe220108INS5_ISA_EEJRKNS_4pairIKS7_S7_EEEEERT_DpOT0_, symObjAddr: 0xC8A0, symBinAddr: 0x10000FC4C, symSize: 0x3C }
  - { offset: 0x338B0, size: 0x8, addend: 0x0, symName: __ZNSt3__111__tree_nodeINS_12__value_typeINS_12basic_stringIcNS_11char_traitsIcEENS_9allocatorIcEEEES7_EEPvEC2B9nqe220108INS5_ISA_EEJRKNS_4pairIKS7_S7_EEEEERT_DpOT0_, symObjAddr: 0xC8DC, symBinAddr: 0x10000FC88, symSize: 0x54 }
  - { offset: 0x3390C, size: 0x8, addend: 0x0, symName: __ZNSt3__116allocator_traitsINS_9allocatorINS_11__tree_nodeINS_12__value_typeINS_12basic_stringIcNS_11char_traitsIcEENS1_IcEEEES8_EEPvEEEEE9constructB9nqe220108INS_4pairIKS8_S8_EEJRKSH_ETnNS_9enable_ifIX17__has_construct_vISC_PT_DpT0_EEiE4typeELi0EEEvRSC_SM_DpOSN_, symObjAddr: 0xC930, symBinAddr: 0x10000FCDC, symSize: 0x34 }
  - { offset: 0x33968, size: 0x8, addend: 0x0, symName: __ZNSt3__111__tree_nodeINS_12__value_typeINS_12basic_stringIcNS_11char_traitsIcEENS_9allocatorIcEEEES7_EEPvE11__get_valueB9nqe220108Ev, symObjAddr: 0xC964, symBinAddr: 0x10000FD10, symSize: 0x18 }
  - { offset: 0x3398E, size: 0x8, addend: 0x0, symName: __ZNSt3__19allocatorINS_11__tree_nodeINS_12__value_typeINS_12basic_stringIcNS_11char_traitsIcEENS0_IcEEEES7_EEPvEEE9constructB9nqe220108INS_4pairIKS7_S7_EEJRKSF_EEEvPT_DpOT0_, symObjAddr: 0xC97C, symBinAddr: 0x10000FD28, symSize: 0x30 }
  - { offset: 0x339E4, size: 0x8, addend: 0x0, symName: __ZNSt3__14pairIKNS_12basic_stringIcNS_11char_traitsIcEENS_9allocatorIcEEEES6_EC1B9nqe220108ERKS8_, symObjAddr: 0xC9AC, symBinAddr: 0x10000FD58, symSize: 0x34 }
  - { offset: 0x33A18, size: 0x8, addend: 0x0, symName: __ZNSt3__14pairIKNS_12basic_stringIcNS_11char_traitsIcEENS_9allocatorIcEEEES6_EC2B9nqe220108ERKS8_, symObjAddr: 0xC9E0, symBinAddr: 0x10000FD8C, symSize: 0x70 }
  - { offset: 0x33A4C, size: 0x8, addend: 0x0, symName: __ZNSt3__110unique_ptrINS_11__tree_nodeINS_12__value_typeINS_12basic_stringIcNS_11char_traitsIcEENS_9allocatorIcEEEES8_EEPvEENS_22__tree_node_destructorINS6_ISB_EEEEED2B9nqe220108Ev, symObjAddr: 0xCA50, symBinAddr: 0x10000FDFC, symSize: 0x30 }
  - { offset: 0x33A7A, size: 0x8, addend: 0x0, symName: __ZNSt3__110unique_ptrINS_11__tree_nodeINS_12__value_typeINS_12basic_stringIcNS_11char_traitsIcEENS_9allocatorIcEEEES8_EEPvEENS_22__tree_node_destructorINS6_ISB_EEEEE5resetB9nqe220108EPSB_, symObjAddr: 0xCA80, symBinAddr: 0x10000FE2C, symSize: 0x58 }
  - { offset: 0x33ABE, size: 0x8, addend: 0x0, symName: __ZNSt3__122__tree_node_destructorINS_9allocatorINS_11__tree_nodeINS_12__value_typeINS_12basic_stringIcNS_11char_traitsIcEENS1_IcEEEES8_EEPvEEEEEclB9nqe220108EPSB_, symObjAddr: 0xCAD8, symBinAddr: 0x10000FE84, symSize: 0x84 }
  - { offset: 0x33AF3, size: 0x8, addend: 0x0, symName: __ZNSt3__116allocator_traitsINS_9allocatorINS_11__tree_nodeINS_12__value_typeINS_12basic_stringIcNS_11char_traitsIcEENS1_IcEEEES8_EEPvEEEEE7destroyB9nqe220108INS_4pairIKS8_S8_EETnNS_9enable_ifIXnt15__has_destroy_vISC_PT_EEiE4typeELi0EEEvRSC_SK_, symObjAddr: 0xCB5C, symBinAddr: 0x10000FF08, symSize: 0x28 }
  - { offset: 0x33B31, size: 0x8, addend: 0x0, symName: __ZNSt3__116allocator_traitsINS_9allocatorINS_11__tree_nodeINS_12__value_typeINS_12basic_stringIcNS_11char_traitsIcEENS1_IcEEEES8_EEPvEEEEE10deallocateB9nqe220108ERSC_PSB_m, symObjAddr: 0xCB84, symBinAddr: 0x10000FF30, symSize: 0x34 }
  - { offset: 0x33B73, size: 0x8, addend: 0x0, symName: __ZNSt3__19allocatorINS_11__tree_nodeINS_12__value_typeINS_12basic_stringIcNS_11char_traitsIcEENS0_IcEEEES7_EEPvEEE10deallocateB9nqe220108EPSA_m, symObjAddr: 0xCBB8, symBinAddr: 0x10000FF64, symSize: 0x34 }
  - { offset: 0x33BD5, size: 0x8, addend: 0x0, symName: __ZZNSt3__16__treeINS_12__value_typeINS_12basic_stringIcNS_11char_traitsIcEENS_9allocatorIcEEEES7_EENS_19__map_value_compareIS7_NS_4pairIKS7_S7_EENS_4lessIS7_EEEENS5_ISC_EEE21__insert_range_uniqueB9nqe220108IPKSC_SK_EEvT_T0_ENKUlRSB_RSJ_E_clESN_SO_, symObjAddr: 0xCC68, symBinAddr: 0x100010014, symSize: 0x174 }
  - { offset: 0x33C76, size: 0x8, addend: 0x0, symName: __ZNSt3__16__treeINS_12__value_typeINS_12basic_stringIcNS_11char_traitsIcEENS_9allocatorIcEEEES7_EENS_19__map_value_compareIS7_NS_4pairIKS7_S7_EENS_4lessIS7_EEEENS5_ISC_EEE10value_compB9nqe220108Ev, symObjAddr: 0xCDDC, symBinAddr: 0x100010188, symSize: 0x18 }
  - { offset: 0x33C9C, size: 0x8, addend: 0x0, symName: __ZNKSt3__119__map_value_compareINS_12basic_stringIcNS_11char_traitsIcEENS_9allocatorIcEEEENS_4pairIKS6_S6_EENS_4lessIS6_EEEclB9nqe220108ERKS9_RS8_, symObjAddr: 0xCDF4, symBinAddr: 0x1000101A0, symSize: 0x34 }
  - { offset: 0x33CE0, size: 0x8, addend: 0x0, symName: __ZNKSt3__110unique_ptrINS_11__tree_nodeINS_12__value_typeINS_12basic_stringIcNS_11char_traitsIcEENS_9allocatorIcEEEES8_EEPvEENS_22__tree_node_destructorINS6_ISB_EEEEE3getB9nqe220108Ev, symObjAddr: 0xCE28, symBinAddr: 0x1000101D4, symSize: 0x18 }
  - { offset: 0x33D06, size: 0x8, addend: 0x0, symName: __ZNSt3__16__treeINS_12__value_typeINS_12basic_stringIcNS_11char_traitsIcEENS_9allocatorIcEEEES7_EENS_19__map_value_compareIS7_NS_4pairIKS7_S7_EENS_4lessIS7_EEEENS5_ISC_EEE12__find_equalB9nqe220108IS7_EENSA_IPNS_15__tree_end_nodeIPNS_16__tree_node_baseIPvEEEERSN_EERKT_, symObjAddr: 0xCE40, symBinAddr: 0x1000101EC, symSize: 0x190 }
  - { offset: 0x33DBB, size: 0x8, addend: 0x0, symName: __ZNKSt3__16__treeINS_12__value_typeINS_12basic_stringIcNS_11char_traitsIcEENS_9allocatorIcEEEES7_EENS_19__map_value_compareIS7_NS_4pairIKS7_S7_EENS_4lessIS7_EEEENS5_ISC_EEE10__root_ptrB9nqe220108Ev, symObjAddr: 0xCFD0, symBinAddr: 0x10001037C, symSize: 0x24 }
  - { offset: 0x33DE1, size: 0x8, addend: 0x0, symName: __ZNSt3__133__lazy_synth_three_way_comparatorINS_19__map_value_compareINS_12basic_stringIcNS_11char_traitsIcEENS_9allocatorIcEEEENS_4pairIKS7_S7_EENS_4lessIS7_EEEES7_SA_vEC1B9nqe220108ERKSD_, symObjAddr: 0xD008, symBinAddr: 0x1000103B4, symSize: 0x34 }
  - { offset: 0x33E19, size: 0x8, addend: 0x0, symName: __ZNKSt3__133__lazy_synth_three_way_comparatorINS_19__map_value_compareINS_12basic_stringIcNS_11char_traitsIcEENS_9allocatorIcEEEENS_4pairIKS7_S7_EENS_4lessIS7_EEEES7_SA_vEclB9nqe220108ERS9_RKSA_, symObjAddr: 0xD03C, symBinAddr: 0x1000103E8, symSize: 0x44 }
  - { offset: 0x33E5B, size: 0x8, addend: 0x0, symName: __ZNKSt3__121__lazy_compare_resultINS_19__map_value_compareINS_12basic_stringIcNS_11char_traitsIcEENS_9allocatorIcEEEENS_4pairIKS7_S7_EENS_4lessIS7_EEEES7_SA_E6__lessB9nqe220108Ev, symObjAddr: 0xD080, symBinAddr: 0x10001042C, symSize: 0x3C }
  - { offset: 0x33E8F, size: 0x8, addend: 0x0, symName: __ZNKSt3__121__lazy_compare_resultINS_19__map_value_compareINS_12basic_stringIcNS_11char_traitsIcEENS_9allocatorIcEEEENS_4pairIKS7_S7_EENS_4lessIS7_EEEES7_SA_E9__greaterB9nqe220108Ev, symObjAddr: 0xD0BC, symBinAddr: 0x100010468, symSize: 0x3C }
  - { offset: 0x33EC3, size: 0x8, addend: 0x0, symName: __ZNSt3__133__lazy_synth_three_way_comparatorINS_19__map_value_compareINS_12basic_stringIcNS_11char_traitsIcEENS_9allocatorIcEEEENS_4pairIKS7_S7_EENS_4lessIS7_EEEES7_SA_vEC2B9nqe220108ERKSD_, symObjAddr: 0xD0F8, symBinAddr: 0x1000104A4, symSize: 0x20 }
  - { offset: 0x33EFB, size: 0x8, addend: 0x0, symName: __ZNSt3__121__lazy_compare_resultINS_19__map_value_compareINS_12basic_stringIcNS_11char_traitsIcEENS_9allocatorIcEEEENS_4pairIKS7_S7_EENS_4lessIS7_EEEES7_SA_EC1B9nqe220108ERKSD_RS9_RKSA_, symObjAddr: 0xD118, symBinAddr: 0x1000104C4, symSize: 0x44 }
  - { offset: 0x33F4F, size: 0x8, addend: 0x0, symName: __ZNSt3__121__lazy_compare_resultINS_19__map_value_compareINS_12basic_stringIcNS_11char_traitsIcEENS_9allocatorIcEEEENS_4pairIKS7_S7_EENS_4lessIS7_EEEES7_SA_EC2B9nqe220108ERKSD_RS9_RKSA_, symObjAddr: 0xD15C, symBinAddr: 0x100010508, symSize: 0x38 }
  - { offset: 0x33FA3, size: 0x8, addend: 0x0, symName: __ZNKSt3__119__map_value_compareINS_12basic_stringIcNS_11char_traitsIcEENS_9allocatorIcEEEENS_4pairIKS6_S6_EENS_4lessIS6_EEEclB9nqe220108ERS8_RKS9_, symObjAddr: 0xD194, symBinAddr: 0x100010540, symSize: 0x34 }
  - { offset: 0x33FE7, size: 0x8, addend: 0x0, symName: __ZNSt3__16__treeINS_12__value_typeINS_12basic_stringIcNS_11char_traitsIcEENS_9allocatorIcEEEES7_EENS_19__map_value_compareIS7_NS_4pairIKS7_S7_EENS_4lessIS7_EEEENS5_ISC_EEED2B9nqe220108Ev, symObjAddr: 0xD1C8, symBinAddr: 0x100010574, symSize: 0x38 }
  - { offset: 0x34015, size: 0x8, addend: 0x0, symName: __ZNSt3__16__treeINS_12__value_typeINS_12basic_stringIcNS_11char_traitsIcEENS_9allocatorIcEEEES7_EENS_19__map_value_compareIS7_NS_4pairIKS7_S7_EENS_4lessIS7_EEEENS5_ISC_EEE7destroyEPNS_11__tree_nodeIS8_PvEE, symObjAddr: 0xD200, symBinAddr: 0x1000105AC, symSize: 0x48 }
  - { offset: 0x3404A, size: 0x8, addend: 0x0, symName: __ZNSt3__16__treeINS_12__value_typeINS_12basic_stringIcNS_11char_traitsIcEENS_9allocatorIcEEEES7_EENS_19__map_value_compareIS7_NS_4pairIKS7_S7_EENS_4lessIS7_EEEENS5_ISC_EEE14__tree_deleterC1B9nqe220108ERNS5_INS_11__tree_nodeIS8_PvEEEE, symObjAddr: 0xD248, symBinAddr: 0x1000105F4, symSize: 0x34 }
  - { offset: 0x34083, size: 0x8, addend: 0x0, symName: __ZNSt3__16__treeINS_12__value_typeINS_12basic_stringIcNS_11char_traitsIcEENS_9allocatorIcEEEES7_EENS_19__map_value_compareIS7_NS_4pairIKS7_S7_EENS_4lessIS7_EEEENS5_ISC_EEE14__tree_deleterclB9nqe220108EPNS_11__tree_nodeIS8_PvEE, symObjAddr: 0xD27C, symBinAddr: 0x100010628, symSize: 0x98 }
  - { offset: 0x340C7, size: 0x8, addend: 0x0, symName: __ZNSt3__16__treeINS_12__value_typeINS_12basic_stringIcNS_11char_traitsIcEENS_9allocatorIcEEEES7_EENS_19__map_value_compareIS7_NS_4pairIKS7_S7_EENS_4lessIS7_EEEENS5_ISC_EEE14__tree_deleterC2B9nqe220108ERNS5_INS_11__tree_nodeIS8_PvEEEE, symObjAddr: 0xD314, symBinAddr: 0x1000106C0, symSize: 0x20 }
  - { offset: 0x34100, size: 0x8, addend: 0x0, symName: __ZNSt3__13mapINS_12basic_stringIcNS_11char_traitsIcEENS_9allocatorIcEEEES6_NS_4lessIS6_EENS4_INS_4pairIKS6_S6_EEEEED2B9nqe220108Ev, symObjAddr: 0xD334, symBinAddr: 0x1000106E0, symSize: 0x2C }
  - { offset: 0x3412E, size: 0x8, addend: 0x0, symName: '__ZNSt3__14pairIKNS_12basic_stringIcNS_11char_traitsIcEENS_9allocatorIcEEEEiEC2B9nqe220108IRA5_Kc3$_1TnNS_9enable_ifIXclsr25__check_pair_constructionIS7_iEE23__is_pair_constructibleIT_T0_EEEiE4typeELi0EEEOSF_OSG_', symObjAddr: 0xD360, symBinAddr: 0x10001070C, symSize: 0x44 }
  - { offset: 0x3418C, size: 0x8, addend: 0x0, symName: __ZNKSt3__112basic_stringIcNS_11char_traitsIcEENS_9allocatorIcEEE15__get_long_sizeB9nqe220108Ev, symObjAddr: 0xD3A4, symBinAddr: 0x100010750, symSize: 0x18 }
  - { offset: 0x341B2, size: 0x8, addend: 0x0, symName: __ZNKSt3__112basic_stringIcNS_11char_traitsIcEENS_9allocatorIcEEE16__get_short_sizeB9nqe220108Ev, symObjAddr: 0xD3BC, symBinAddr: 0x100010768, symSize: 0x24 }
  - { offset: 0x341D8, size: 0x8, addend: 0x0, symName: __ZNKSt3__16__treeINS_12__value_typeINS_12basic_stringIcNS_11char_traitsIcEENS_9allocatorIcEEEEiEENS_19__map_value_compareIS7_NS_4pairIKS7_iEENS_4lessIS7_EEEENS5_ISC_EEE14__count_uniqueIS7_EEmRKT_, symObjAddr: 0xD3E0, symBinAddr: 0x10001078C, symSize: 0xE0 }
  - { offset: 0x34251, size: 0x8, addend: 0x0, symName: __ZNKSt3__16__treeINS_12__value_typeINS_12basic_stringIcNS_11char_traitsIcEENS_9allocatorIcEEEEiEENS_19__map_value_compareIS7_NS_4pairIKS7_iEENS_4lessIS7_EEEENS5_ISC_EEE10value_compB9nqe220108Ev, symObjAddr: 0xD4C0, symBinAddr: 0x10001086C, symSize: 0x18 }
  - { offset: 0x34277, size: 0x8, addend: 0x0, symName: __ZNSt3__16__treeINS_12__value_typeINS_12basic_stringIcNS_11char_traitsIcEENS_9allocatorIcEEEEiEENS_19__map_value_compareIS7_NS_4pairIKS7_iEENS_4lessIS7_EEEENS5_ISC_EEE5beginB9nqe220108Ev, symObjAddr: 0xD4D8, symBinAddr: 0x100010884, symSize: 0x30 }
  - { offset: 0x3429D, size: 0x8, addend: 0x0, symName: __ZNSt3__114__map_iteratorINS_15__tree_iteratorINS_12__value_typeINS_12basic_stringIcNS_11char_traitsIcEENS_9allocatorIcEEEEiEEPNS_11__tree_nodeIS9_PvEElEEEC1B9nqe220108ESE_, symObjAddr: 0xD508, symBinAddr: 0x1000108B4, symSize: 0x34 }
  - { offset: 0x342D6, size: 0x8, addend: 0x0, symName: __ZNSt3__115__tree_iteratorINS_12__value_typeINS_12basic_stringIcNS_11char_traitsIcEENS_9allocatorIcEEEEiEEPNS_11__tree_nodeIS8_PvEElEC1B9nqe220108EPNS_15__tree_end_nodeIPNS_16__tree_node_baseISA_EEEE, symObjAddr: 0xD53C, symBinAddr: 0x1000108E8, symSize: 0x34 }
  - { offset: 0x3430F, size: 0x8, addend: 0x0, symName: __ZNSt3__115__tree_iteratorINS_12__value_typeINS_12basic_stringIcNS_11char_traitsIcEENS_9allocatorIcEEEEiEEPNS_11__tree_nodeIS8_PvEElEC2B9nqe220108EPNS_15__tree_end_nodeIPNS_16__tree_node_baseISA_EEEE, symObjAddr: 0xD570, symBinAddr: 0x10001091C, symSize: 0x20 }
  - { offset: 0x34348, size: 0x8, addend: 0x0, symName: __ZNSt3__114__map_iteratorINS_15__tree_iteratorINS_12__value_typeINS_12basic_stringIcNS_11char_traitsIcEENS_9allocatorIcEEEEiEEPNS_11__tree_nodeIS9_PvEElEEEC2B9nqe220108ESE_, symObjAddr: 0xD590, symBinAddr: 0x10001093C, symSize: 0x20 }
  - { offset: 0x34381, size: 0x8, addend: 0x0, symName: __ZNSt3__16__treeINS_12__value_typeINS_12basic_stringIcNS_11char_traitsIcEENS_9allocatorIcEEEEiEENS_19__map_value_compareIS7_NS_4pairIKS7_iEENS_4lessIS7_EEEENS5_ISC_EEE3endB9nqe220108Ev, symObjAddr: 0xD5B0, symBinAddr: 0x10001095C, symSize: 0x34 }
  - { offset: 0x343A7, size: 0x8, addend: 0x0, symName: __ZNSt3__115__tree_iteratorINS_12__value_typeINS_12basic_stringIcNS_11char_traitsIcEENS_9allocatorIcEEEEiEEPNS_11__tree_nodeIS8_PvEElEppB9nqe220108Ev, symObjAddr: 0xD640, symBinAddr: 0x1000109EC, symSize: 0x38 }
  - { offset: 0x343CD, size: 0x8, addend: 0x0, symName: __ZNKSt3__115__tree_iteratorINS_12__value_typeINS_12basic_stringIcNS_11char_traitsIcEENS_9allocatorIcEEEEiEEPNS_11__tree_nodeIS8_PvEElEdeB9nqe220108Ev, symObjAddr: 0xD728, symBinAddr: 0x100010AD4, symSize: 0x28 }
  - { offset: 0x3440F, size: 0x8, addend: 0x0, symName: __ZNSt3__16__treeINS_12__value_typeINS_12basic_stringIcNS_11char_traitsIcEENS_9allocatorIcEEEES7_EENS_19__map_value_compareIS7_NS_4pairIKS7_S7_EENS_4lessIS7_EEEENS5_ISC_EEE16__emplace_uniqueB9nqe220108IJRKNS_21piecewise_construct_tENS_5tupleIJRSB_EEENSM_IJEEEEEENSA_INS_15__tree_iteratorIS8_PNS_11__tree_nodeIS8_PvEElEEbEEDpOT_, symObjAddr: 0xD750, symBinAddr: 0x100010AFC, symSize: 0xAC }
  - { offset: 0x344EA, size: 0x8, addend: 0x0, symName: __ZNKSt3__115__tree_iteratorINS_12__value_typeINS_12basic_stringIcNS_11char_traitsIcEENS_9allocatorIcEEEES7_EEPNS_11__tree_nodeIS8_PvEElEptB9nqe220108Ev, symObjAddr: 0xD7FC, symBinAddr: 0x100010BA8, symSize: 0x2C }
  - { offset: 0x3451A, size: 0x8, addend: 0x0, symName: __ZZNSt3__16__treeINS_12__value_typeINS_12basic_stringIcNS_11char_traitsIcEENS_9allocatorIcEEEES7_EENS_19__map_value_compareIS7_NS_4pairIKS7_S7_EENS_4lessIS7_EEEENS5_ISC_EEE16__emplace_uniqueB9nqe220108IJRKNS_21piecewise_construct_tENS_5tupleIJRSB_EEENSM_IJEEEEEENSA_INS_15__tree_iteratorIS8_PNS_11__tree_nodeIS8_PvEElEEbEEDpOT_ENKUlSN_SL_OSO_OSP_E_clESN_SL_S10_S11_, symObjAddr: 0xD990, symBinAddr: 0x100010D3C, symSize: 0x124 }
  - { offset: 0x345D6, size: 0x8, addend: 0x0, symName: __ZNSt3__16__treeINS_12__value_typeINS_12basic_stringIcNS_11char_traitsIcEENS_9allocatorIcEEEES7_EENS_19__map_value_compareIS7_NS_4pairIKS7_S7_EENS_4lessIS7_EEEENS5_ISC_EEE16__construct_nodeIJRKNS_21piecewise_construct_tENS_5tupleIJRSB_EEENSM_IJEEEEEENS_10unique_ptrINS_11__tree_nodeIS8_PvEENS_22__tree_node_destructorINS5_IST_EEEEEEDpOT_, symObjAddr: 0xDAB4, symBinAddr: 0x100010E60, symSize: 0x104 }
  - { offset: 0x3465D, size: 0x8, addend: 0x0, symName: __ZNSt3__115__tree_iteratorINS_12__value_typeINS_12basic_stringIcNS_11char_traitsIcEENS_9allocatorIcEEEES7_EEPNS_11__tree_nodeIS8_PvEElEC1B9nqe220108ESC_, symObjAddr: 0xDBB8, symBinAddr: 0x100010F64, symSize: 0x34 }
  - { offset: 0x3469C, size: 0x8, addend: 0x0, symName: __ZNSt3__14pairINS_15__tree_iteratorINS_12__value_typeINS_12basic_stringIcNS_11char_traitsIcEENS_9allocatorIcEEEES8_EEPNS_11__tree_nodeIS9_PvEElEEbEC1B9nqe220108ISE_RbTnNS_9enable_ifIXclsr25__check_pair_constructionISE_bEE23__is_pair_constructibleIT_T0_EEEiE4typeELi0EEEOSJ_OSK_, symObjAddr: 0xDBEC, symBinAddr: 0x100010F98, symSize: 0x3C }
  - { offset: 0x346FA, size: 0x8, addend: 0x0, symName: __ZNSt3__111__tree_nodeINS_12__value_typeINS_12basic_stringIcNS_11char_traitsIcEENS_9allocatorIcEEEES7_EEPvEC1B9nqe220108INS5_ISA_EEJRKNS_21piecewise_construct_tENS_5tupleIJRKS7_EEENSG_IJEEEEEERT_DpOT0_, symObjAddr: 0xDC74, symBinAddr: 0x100011020, symSize: 0x4C }
  - { offset: 0x3477E, size: 0x8, addend: 0x0, symName: __ZNSt3__111__tree_nodeINS_12__value_typeINS_12basic_stringIcNS_11char_traitsIcEENS_9allocatorIcEEEES7_EEPvEC2B9nqe220108INS5_ISA_EEJRKNS_21piecewise_construct_tENS_5tupleIJRKS7_EEENSG_IJEEEEEERT_DpOT0_, symObjAddr: 0xDCC0, symBinAddr: 0x10001106C, symSize: 0x64 }
  - { offset: 0x34802, size: 0x8, addend: 0x0, symName: __ZNSt3__116allocator_traitsINS_9allocatorINS_11__tree_nodeINS_12__value_typeINS_12basic_stringIcNS_11char_traitsIcEENS1_IcEEEES8_EEPvEEEEE9constructB9nqe220108INS_4pairIKS8_S8_EEJRKNS_21piecewise_construct_tENS_5tupleIJRSG_EEENSL_IJEEEETnNS_9enable_ifIX17__has_construct_vISC_PT_DpT0_EEiE4typeELi0EEEvRSC_SR_DpOSS_, symObjAddr: 0xDD24, symBinAddr: 0x1000110D0, symSize: 0x44 }
  - { offset: 0x34886, size: 0x8, addend: 0x0, symName: __ZNSt3__19allocatorINS_11__tree_nodeINS_12__value_typeINS_12basic_stringIcNS_11char_traitsIcEENS0_IcEEEES7_EEPvEEE9constructB9nqe220108INS_4pairIKS7_S7_EEJRKNS_21piecewise_construct_tENS_5tupleIJRSE_EEENSJ_IJEEEEEEvPT_DpOT0_, symObjAddr: 0xDD68, symBinAddr: 0x100011114, symSize: 0x44 }
  - { offset: 0x34902, size: 0x8, addend: 0x0, symName: __ZNSt3__14pairIKNS_12basic_stringIcNS_11char_traitsIcEENS_9allocatorIcEEEES6_EC1B9nqe220108IJRS7_EJEEENS_21piecewise_construct_tENS_5tupleIJDpT_EEENSC_IJDpT0_EEE, symObjAddr: 0xDDAC, symBinAddr: 0x100011158, symSize: 0x3C }
  - { offset: 0x34966, size: 0x8, addend: 0x0, symName: __ZNSt3__14pairIKNS_12basic_stringIcNS_11char_traitsIcEENS_9allocatorIcEEEES6_EC1B9nqe220108IJRS7_EJEJLm0EETpTnmJEEENS_21piecewise_construct_tERNS_5tupleIJDpT_EEERNSC_IJDpT0_EEENS_18__integer_sequenceImJXspT1_EEEENSL_ImJXspT2_EEEE, symObjAddr: 0xDDE8, symBinAddr: 0x100011194, symSize: 0x3C }
  - { offset: 0x349F0, size: 0x8, addend: 0x0, symName: __ZNSt3__14pairIKNS_12basic_stringIcNS_11char_traitsIcEENS_9allocatorIcEEEES6_EC2B9nqe220108IJRS7_EJEJLm0EETpTnmJEEENS_21piecewise_construct_tERNS_5tupleIJDpT_EEERNSC_IJDpT0_EEENS_18__integer_sequenceImJXspT1_EEEENSL_ImJXspT2_EEEE, symObjAddr: 0xDE24, symBinAddr: 0x1000111D0, symSize: 0x50 }
  - { offset: 0x34A7A, size: 0x8, addend: 0x0, symName: __ZNSt3__115__tree_iteratorINS_12__value_typeINS_12basic_stringIcNS_11char_traitsIcEENS_9allocatorIcEEEES7_EEPNS_11__tree_nodeIS8_PvEElEC2B9nqe220108ESC_, symObjAddr: 0xDE74, symBinAddr: 0x100011220, symSize: 0x20 }
  - { offset: 0x34AB3, size: 0x8, addend: 0x0, symName: __ZNSt3__14pairINS_15__tree_iteratorINS_12__value_typeINS_12basic_stringIcNS_11char_traitsIcEENS_9allocatorIcEEEES8_EEPNS_11__tree_nodeIS9_PvEElEEbEC2B9nqe220108ISE_RbTnNS_9enable_ifIXclsr25__check_pair_constructionISE_bEE23__is_pair_constructibleIT_T0_EEEiE4typeELi0EEEOSJ_OSK_, symObjAddr: 0xDE94, symBinAddr: 0x100011240, symSize: 0x38 }
  - { offset: 0x34B11, size: 0x8, addend: 0x0, symName: __ZNSt3__114pointer_traitsIPNS_4pairIKNS_12basic_stringIcNS_11char_traitsIcEENS_9allocatorIcEEEES7_EEE10pointer_toB9nqe220108ERS9_, symObjAddr: 0xDECC, symBinAddr: 0x100011278, symSize: 0x14 }
  - { offset: 0x34B34, size: 0x8, addend: 0x0, symName: __ZNKSt3__115__tree_iteratorINS_12__value_typeINS_12basic_stringIcNS_11char_traitsIcEENS_9allocatorIcEEEES7_EEPNS_11__tree_nodeIS8_PvEElE8__get_npB9nqe220108Ev, symObjAddr: 0xDEE0, symBinAddr: 0x10001128C, symSize: 0x18 }
  - { offset: 0x34BEE, size: 0x8, addend: 0x0, symName: __ZNKSt3__113basic_istreamIcNS_11char_traitsIcEEE6sentrycvbB9nqe220108Ev, symObjAddr: 0xE26C, symBinAddr: 0x100011618, symSize: 0x1C }
  - { offset: 0x34C14, size: 0x8, addend: 0x0, symName: __ZNSt3__112basic_stringIcNS_11char_traitsIcEENS_9allocatorIcEEE5clearB9nqe220108Ev, symObjAddr: 0xE288, symBinAddr: 0x100011634, symSize: 0xA4 }
  - { offset: 0x34C4B, size: 0x8, addend: 0x0, symName: __ZNSt3__111char_traitsIcE11eq_int_typeB9nqe220108Eii, symObjAddr: 0xE420, symBinAddr: 0x1000117CC, symSize: 0x24 }
  - { offset: 0x34C7C, size: 0x8, addend: 0x0, symName: __ZNKSt3__115basic_streambufIcNS_11char_traitsIcEEE4gptrB9nqe220108Ev, symObjAddr: 0xE444, symBinAddr: 0x1000117F0, symSize: 0x18 }
  - { offset: 0x34CA2, size: 0x8, addend: 0x0, symName: __ZNKSt3__115basic_streambufIcNS_11char_traitsIcEEE5egptrB9nqe220108Ev, symObjAddr: 0xE45C, symBinAddr: 0x100011808, symSize: 0x18 }
  - { offset: 0x34CC8, size: 0x8, addend: 0x0, symName: __ZNSt3__111char_traitsIcE4findB9nqe220108EPKcmRS2_, symObjAddr: 0xE474, symBinAddr: 0x100011820, symSize: 0x48 }
  - { offset: 0x34D07, size: 0x8, addend: 0x0, symName: __ZNKSt3__112basic_stringIcNS_11char_traitsIcEENS_9allocatorIcEEE8max_sizeB9nqe220108Ev, symObjAddr: 0xE4BC, symBinAddr: 0x100011868, symSize: 0xB8 }
  - { offset: 0x34D84, size: 0x8, addend: 0x0, symName: __ZNSt3__112basic_stringIcNS_11char_traitsIcEENS_9allocatorIcEEE6appendB9nqe220108IPKcTnNS_9enable_ifIXsr31__has_forward_iterator_categoryIT_EE5valueEiE4typeELi0EEERS5_SA_SA_, symObjAddr: 0xE574, symBinAddr: 0x100011920, symSize: 0x1C4 }
  - { offset: 0x34E47, size: 0x8, addend: 0x0, symName: __ZZNSt3__17getlineB9nqe220108IcNS_11char_traitsIcEENS_9allocatorIcEEEERNS_13basic_istreamIT_T0_EES9_RNS_12basic_stringIS6_S7_T1_EES6_ENKUllE_clEl, symObjAddr: 0xE738, symBinAddr: 0x100011AE4, symSize: 0x74 }
  - { offset: 0x34E80, size: 0x8, addend: 0x0, symName: __ZNKSt3__112basic_stringIcNS_11char_traitsIcEENS_9allocatorIcEEE5emptyB9nqe220108Ev, symObjAddr: 0xE7AC, symBinAddr: 0x100011B58, symSize: 0x2C }
  - { offset: 0x34EA6, size: 0x8, addend: 0x0, symName: __ZNSt3__18ios_base18__setstate_nothrowB9nqe220108Ej, symObjAddr: 0xE7D8, symBinAddr: 0x100011B84, symSize: 0x5C }
  - { offset: 0x34EDB, size: 0x8, addend: 0x0, symName: __ZNKSt3__19basic_iosIcNS_11char_traitsIcEEE10exceptionsB9nqe220108Ev, symObjAddr: 0xE834, symBinAddr: 0x100011BE0, symSize: 0x24 }
  - { offset: 0x34F01, size: 0x8, addend: 0x0, symName: __ZNSt3__111char_traitsIcE6assignB9nqe220108ERcRKc, symObjAddr: 0xE858, symBinAddr: 0x100011C04, symSize: 0x24 }
  - { offset: 0x34F32, size: 0x8, addend: 0x0, symName: __ZNSt3__112basic_stringIcNS_11char_traitsIcEENS_9allocatorIcEEE18__get_long_pointerB9nqe220108Ev, symObjAddr: 0xE87C, symBinAddr: 0x100011C28, symSize: 0x18 }
  - { offset: 0x34F58, size: 0x8, addend: 0x0, symName: __ZNSt3__112basic_stringIcNS_11char_traitsIcEENS_9allocatorIcEEE15__set_long_sizeB9nqe220108Em, symObjAddr: 0xE894, symBinAddr: 0x100011C40, symSize: 0x20 }
  - { offset: 0x34F8D, size: 0x8, addend: 0x0, symName: __ZNSt3__112basic_stringIcNS_11char_traitsIcEENS_9allocatorIcEEE19__get_short_pointerB9nqe220108Ev, symObjAddr: 0xE8B4, symBinAddr: 0x100011C60, symSize: 0x24 }
  - { offset: 0x34FB3, size: 0x8, addend: 0x0, symName: __ZNSt3__112basic_stringIcNS_11char_traitsIcEENS_9allocatorIcEEE16__set_short_sizeB9nqe220108Em, symObjAddr: 0xE8D8, symBinAddr: 0x100011C84, symSize: 0x4C }
  - { offset: 0x34FE8, size: 0x8, addend: 0x0, symName: __ZNKSt3__112basic_stringIcNS_11char_traitsIcEENS_9allocatorIcEEE17__annotate_shrinkB9nqe220108Em, symObjAddr: 0xE924, symBinAddr: 0x100011CD0, symSize: 0x7C }
  - { offset: 0x3501D, size: 0x8, addend: 0x0, symName: __ZNSt3__114pointer_traitsIPcE10pointer_toB9nqe220108ERc, symObjAddr: 0xE9A0, symBinAddr: 0x100011D4C, symSize: 0x14 }
  - { offset: 0x35040, size: 0x8, addend: 0x0, symName: __ZNKSt3__115basic_streambufIcNS_11char_traitsIcEEE18__check_invariantsB9nqe220108Ev, symObjAddr: 0xE9B4, symBinAddr: 0x100011D60, symSize: 0x10 }
  - { offset: 0x35066, size: 0x8, addend: 0x0, symName: __ZNSt3__111char_traitsIcE11to_int_typeB9nqe220108Ec, symObjAddr: 0xEA04, symBinAddr: 0x100011DB0, symSize: 0x14 }
  - { offset: 0x35089, size: 0x8, addend: 0x0, symName: __ZNSt3__113__scope_guardIZNS_15basic_streambufIcNS_11char_traitsIcEEE5sgetcB9nqe220108EvEUlvE_ED1B9nqe220108Ev, symObjAddr: 0xEA18, symBinAddr: 0x100011DC4, symSize: 0x2C }
  - { offset: 0x350B7, size: 0x8, addend: 0x0, symName: __ZNSt3__113__scope_guardIZNS_15basic_streambufIcNS_11char_traitsIcEEE5sgetcB9nqe220108EvEUlvE_EC1B9nqe220108ES5_, symObjAddr: 0xEA44, symBinAddr: 0x100011DF0, symSize: 0x34 }
  - { offset: 0x350EF, size: 0x8, addend: 0x0, symName: __ZNSt3__113__scope_guardIZNS_15basic_streambufIcNS_11char_traitsIcEEE5sgetcB9nqe220108EvEUlvE_EC2B9nqe220108ES5_, symObjAddr: 0xEA78, symBinAddr: 0x100011E24, symSize: 0x20 }
  - { offset: 0x35127, size: 0x8, addend: 0x0, symName: __ZNSt3__113__scope_guardIZNS_15basic_streambufIcNS_11char_traitsIcEEE5sgetcB9nqe220108EvEUlvE_ED2B9nqe220108Ev, symObjAddr: 0xEA98, symBinAddr: 0x100011E44, symSize: 0x34 }
  - { offset: 0x35155, size: 0x8, addend: 0x0, symName: __ZZNSt3__115basic_streambufIcNS_11char_traitsIcEEE5sgetcB9nqe220108EvENKUlvE_clEv, symObjAddr: 0xEACC, symBinAddr: 0x100011E78, symSize: 0x28 }
  - { offset: 0x3518A, size: 0x8, addend: 0x0, symName: __ZNSt3__116allocator_traitsINS_9allocatorIcEEE8max_sizeB9nqe220108IS2_TnNS_9enable_ifIX16__has_max_size_vIKT_EEiE4typeELi0EEEmRKS2_, symObjAddr: 0xEB34, symBinAddr: 0x100011EE0, symSize: 0x24 }
  - { offset: 0x351BD, size: 0x8, addend: 0x0, symName: __ZNSt3__114numeric_limitsImE3maxB9nqe220108Ev, symObjAddr: 0xEB58, symBinAddr: 0x100011F04, symSize: 0x14 }
  - { offset: 0x351D1, size: 0x8, addend: 0x0, symName: __ZNKSt3__19allocatorIcE8max_sizeB9nqe220108Ev, symObjAddr: 0xEB6C, symBinAddr: 0x100011F18, symSize: 0x14 }
  - { offset: 0x351F7, size: 0x8, addend: 0x0, symName: __ZNSt3__123__libcpp_numeric_limitsImLb1EE3maxB9nqe220108Ev, symObjAddr: 0xEB80, symBinAddr: 0x100011F2C, symSize: 0x8 }
  - { offset: 0x3520B, size: 0x8, addend: 0x0, symName: __ZNKSt3__112basic_stringIcNS_11char_traitsIcEENS_9allocatorIcEEE15__addr_in_rangeB9nqe220108IcEEbRKT_, symObjAddr: 0xEBB4, symBinAddr: 0x100011F60, symSize: 0x68 }
  - { offset: 0x35249, size: 0x8, addend: 0x0, symName: __ZNSt3__112basic_stringIcNS_11char_traitsIcEENS_9allocatorIcEEE25__grow_by_without_replaceB9nqe220108Emmmmmm, symObjAddr: 0xEC1C, symBinAddr: 0x100011FC8, symSize: 0xC0 }
  - { offset: 0x352DA, size: 0x8, addend: 0x0, symName: __ZNKSt3__112basic_stringIcNS_11char_traitsIcEENS_9allocatorIcEEE19__annotate_increaseB9nqe220108Em, symObjAddr: 0xECDC, symBinAddr: 0x100012088, symSize: 0x8C }
  - { offset: 0x3530F, size: 0x8, addend: 0x0, symName: __ZNSt3__112basic_stringIcNS_11char_traitsIcEENS_9allocatorIcEEE28__copy_non_overlapping_rangeB9nqe220108IPKcS8_EEPcT_T0_S9_, symObjAddr: 0xED68, symBinAddr: 0x100012114, symSize: 0x60 }
  - { offset: 0x35363, size: 0x8, addend: 0x0, symName: __ZNSt3__112basic_stringIcNS_11char_traitsIcEENS_9allocatorIcEEE13__get_pointerB9nqe220108Ev, symObjAddr: 0xEDDC, symBinAddr: 0x100012188, symSize: 0x54 }
  - { offset: 0x35389, size: 0x8, addend: 0x0, symName: __ZNSt3__112basic_stringIcNS_11char_traitsIcEENS_9allocatorIcEEE10__set_sizeB9nqe220108Em, symObjAddr: 0xEE30, symBinAddr: 0x1000121DC, symSize: 0x54 }
  - { offset: 0x353BE, size: 0x8, addend: 0x0, symName: __ZNSt3__112basic_stringIcNS_11char_traitsIcEENS_9allocatorIcEEEC1B9nqe220108IPKcTnNS_9enable_ifIXsr29__has_input_iterator_categoryIT_EE5valueEiE4typeELi0EEESA_SA_RKS4_, symObjAddr: 0xEE84, symBinAddr: 0x100012230, symSize: 0x44 }
  - { offset: 0x3542F, size: 0x8, addend: 0x0, symName: __ZNKSt3__16__lessIvvEclB9nqe220108IPKcS4_EEbRKT_RKT0_, symObjAddr: 0xEF50, symBinAddr: 0x1000122FC, symSize: 0x30 }
  - { offset: 0x35483, size: 0x8, addend: 0x0, symName: __ZNSt3__112basic_stringIcNS_11char_traitsIcEENS_9allocatorIcEEE19__annotate_new_sizeC1B9nqe220108ERS5_, symObjAddr: 0xEFC0, symBinAddr: 0x10001236C, symSize: 0x34 }
  - { offset: 0x354BC, size: 0x8, addend: 0x0, symName: __ZNSt3__113__scope_guardINS_12basic_stringIcNS_11char_traitsIcEENS_9allocatorIcEEE19__annotate_new_sizeEED1B9nqe220108Ev, symObjAddr: 0xEFF4, symBinAddr: 0x1000123A0, symSize: 0x2C }
  - { offset: 0x354EA, size: 0x8, addend: 0x0, symName: __ZNSt3__113__scope_guardINS_12basic_stringIcNS_11char_traitsIcEENS_9allocatorIcEEE19__annotate_new_sizeEEC1B9nqe220108ES7_, symObjAddr: 0xF020, symBinAddr: 0x1000123CC, symSize: 0x34 }
  - { offset: 0x35522, size: 0x8, addend: 0x0, symName: __ZNSt3__113__scope_guardINS_12basic_stringIcNS_11char_traitsIcEENS_9allocatorIcEEE19__annotate_new_sizeEEC2B9nqe220108ES7_, symObjAddr: 0xF054, symBinAddr: 0x100012400, symSize: 0x20 }
  - { offset: 0x3555A, size: 0x8, addend: 0x0, symName: __ZNSt3__112basic_stringIcNS_11char_traitsIcEENS_9allocatorIcEEE19__annotate_new_sizeC2B9nqe220108ERS5_, symObjAddr: 0xF074, symBinAddr: 0x100012420, symSize: 0x20 }
  - { offset: 0x35593, size: 0x8, addend: 0x0, symName: __ZNSt3__113__scope_guardINS_12basic_stringIcNS_11char_traitsIcEENS_9allocatorIcEEE19__annotate_new_sizeEED2B9nqe220108Ev, symObjAddr: 0xF094, symBinAddr: 0x100012440, symSize: 0x34 }
  - { offset: 0x355C1, size: 0x8, addend: 0x0, symName: __ZNSt3__112basic_stringIcNS_11char_traitsIcEENS_9allocatorIcEEE19__annotate_new_sizeclB9nqe220108Ev, symObjAddr: 0xF0C8, symBinAddr: 0x100012474, symSize: 0x3C }
  - { offset: 0x355E7, size: 0x8, addend: 0x0, symName: __ZNSt3__111char_traitsIcE4copyB9nqe220108EPcPKcm, symObjAddr: 0xF104, symBinAddr: 0x1000124B0, symSize: 0x40 }
  - { offset: 0x35626, size: 0x8, addend: 0x0, symName: __ZNSt3__112basic_stringIcNS_11char_traitsIcEENS_9allocatorIcEEEC2B9nqe220108IPKcTnNS_9enable_ifIXsr29__has_input_iterator_categoryIT_EE5valueEiE4typeELi0EEESA_SA_RKS4_, symObjAddr: 0xF188, symBinAddr: 0x100012534, symSize: 0x40 }
  - { offset: 0x3568C, size: 0x8, addend: 0x0, symName: __ZNSt3__112basic_stringIcNS_11char_traitsIcEENS_9allocatorIcEEE6__initIPKcTnNS_9enable_ifIXsr31__has_forward_iterator_categoryIT_EE5valueEiE4typeELi0EEEvSA_SA_, symObjAddr: 0xF1C8, symBinAddr: 0x100012574, symSize: 0x54 }
  - { offset: 0x356EE, size: 0x8, addend: 0x0, symName: __ZNSt3__112basic_stringIcNS_11char_traitsIcEENS_9allocatorIcEEE22__init_internal_bufferB9nqe220108Em, symObjAddr: 0xF2BC, symBinAddr: 0x100012668, symSize: 0xC0 }
  - { offset: 0x35723, size: 0x8, addend: 0x0, symName: __ZNSt3__128__exception_guard_exceptionsIZNS_12basic_stringIcNS_11char_traitsIcEENS_9allocatorIcEEE16__init_with_sizeB9nqe220108IPKcS9_EEvT_T0_mEUlvE_E10__completeB9nqe220108Ev, symObjAddr: 0xF3BC, symBinAddr: 0x100012768, symSize: 0x1C }
  - { offset: 0x35749, size: 0x8, addend: 0x0, symName: __ZNSt3__128__exception_guard_exceptionsIZNS_12basic_stringIcNS_11char_traitsIcEENS_9allocatorIcEEE16__init_with_sizeB9nqe220108IPKcS9_EEvT_T0_mEUlvE_ED1B9nqe220108Ev, symObjAddr: 0xF3D8, symBinAddr: 0x100012784, symSize: 0x2C }
  - { offset: 0x35777, size: 0x8, addend: 0x0, symName: __ZNSt3__112basic_stringIcNS_11char_traitsIcEENS_9allocatorIcEEE20__throw_length_errorB9nqe220108Ev, symObjAddr: 0xF404, symBinAddr: 0x1000127B0, symSize: 0x14 }
  - { offset: 0x3578B, size: 0x8, addend: 0x0, symName: __ZNSt3__112basic_stringIcNS_11char_traitsIcEENS_9allocatorIcEEE13__fits_in_ssoB9nqe220108Em, symObjAddr: 0xF418, symBinAddr: 0x1000127C4, symSize: 0x1C }
  - { offset: 0x357AF, size: 0x8, addend: 0x0, symName: __ZNSt3__112basic_stringIcNS_11char_traitsIcEENS_9allocatorIcEEE22__allocate_long_bufferB9nqe220108ERS4_m, symObjAddr: 0xF434, symBinAddr: 0x1000127E0, symSize: 0x68 }
  - { offset: 0x357F1, size: 0x8, addend: 0x0, symName: __ZNSt3__112basic_stringIcNS_11char_traitsIcEENS_9allocatorIcEEE23__align_allocation_sizeB9nqe220108Em, symObjAddr: 0xF4E0, symBinAddr: 0x10001288C, symSize: 0x58 }
  - { offset: 0x35833, size: 0x8, addend: 0x0, symName: __ZNSt3__112basic_stringIcNS_11char_traitsIcEENS_9allocatorIcEEE6__longC1B9nqe220108ENS_19__allocation_resultIPcmEEm, symObjAddr: 0xF538, symBinAddr: 0x1000128E4, symSize: 0x44 }
  - { offset: 0x3587B, size: 0x8, addend: 0x0, symName: __ZNSt3__19allocatorIcE8allocateB9nqe220108Em, symObjAddr: 0xF57C, symBinAddr: 0x100012928, symSize: 0x50 }
  - { offset: 0x358AF, size: 0x8, addend: 0x0, symName: __ZNSt3__119__allocation_resultIPcmEC1B9nqe220108ES1_m, symObjAddr: 0xF5CC, symBinAddr: 0x100012978, symSize: 0x3C }
  - { offset: 0x358F5, size: 0x8, addend: 0x0, symName: __ZNSt3__119__allocation_resultIPcmEC2B9nqe220108ES1_m, symObjAddr: 0xF63C, symBinAddr: 0x1000129E8, symSize: 0x2C }
  - { offset: 0x3593B, size: 0x8, addend: 0x0, symName: __ZNSt3__112basic_stringIcNS_11char_traitsIcEENS_9allocatorIcEEE10__align_itB9nqe220108ILm8EEEmm, symObjAddr: 0xF668, symBinAddr: 0x100012A14, symSize: 0x1C }
  - { offset: 0x35969, size: 0x8, addend: 0x0, symName: __ZNSt3__112basic_stringIcNS_11char_traitsIcEENS_9allocatorIcEEE6__longC2B9nqe220108ENS_19__allocation_resultIPcmEEm, symObjAddr: 0xF684, symBinAddr: 0x100012A30, symSize: 0x60 }
  - { offset: 0x359B1, size: 0x8, addend: 0x0, symName: __ZNSt3__128__exception_guard_exceptionsIZNS_12basic_stringIcNS_11char_traitsIcEENS_9allocatorIcEEE16__init_with_sizeB9nqe220108IPKcS9_EEvT_T0_mEUlvE_EC1B9nqe220108ESC_, symObjAddr: 0xF6E4, symBinAddr: 0x100012A90, symSize: 0x34 }
  - { offset: 0x359E9, size: 0x8, addend: 0x0, symName: __ZNSt3__128__exception_guard_exceptionsIZNS_12basic_stringIcNS_11char_traitsIcEENS_9allocatorIcEEE16__init_with_sizeB9nqe220108IPKcS9_EEvT_T0_mEUlvE_EC2B9nqe220108ESC_, symObjAddr: 0xF718, symBinAddr: 0x100012AC4, symSize: 0x24 }
  - { offset: 0x35A21, size: 0x8, addend: 0x0, symName: __ZNSt3__128__exception_guard_exceptionsIZNS_12basic_stringIcNS_11char_traitsIcEENS_9allocatorIcEEE16__init_with_sizeB9nqe220108IPKcS9_EEvT_T0_mEUlvE_ED2B9nqe220108Ev, symObjAddr: 0xF73C, symBinAddr: 0x100012AE8, symSize: 0x50 }
  - { offset: 0x35A4F, size: 0x8, addend: 0x0, symName: __ZZNSt3__112basic_stringIcNS_11char_traitsIcEENS_9allocatorIcEEE16__init_with_sizeB9nqe220108IPKcS8_EEvT_T0_mENKUlvE_clEv, symObjAddr: 0xF78C, symBinAddr: 0x100012B38, symSize: 0x80 }
  - { offset: 0x35A79, size: 0x8, addend: 0x0, symName: __ZNSt3__112basic_stringIcNS_11char_traitsIcEENS_9allocatorIcEEE23__reset_internal_bufferB9nqe220108ENS5_5__repE, symObjAddr: 0xF80C, symBinAddr: 0x100012BB8, symSize: 0x84 }
  - { offset: 0x35AAF, size: 0x8, addend: 0x0, symName: __ZNSt3__112basic_stringIcNS_11char_traitsIcEENS_9allocatorIcEEE5__repC1B9nqe220108ENS5_7__shortE, symObjAddr: 0xF890, symBinAddr: 0x100012C3C, symSize: 0x34 }
  - { offset: 0x35AE9, size: 0x8, addend: 0x0, symName: __ZNSt3__116allocator_traitsINS_9allocatorIcEEE10deallocateB9nqe220108ERS2_Pcm, symObjAddr: 0xF8C4, symBinAddr: 0x100012C70, symSize: 0x34 }
  - { offset: 0x35B2B, size: 0x8, addend: 0x0, symName: __ZNSt3__19allocatorIcE10deallocateB9nqe220108EPcm, symObjAddr: 0xF8F8, symBinAddr: 0x100012CA4, symSize: 0x34 }
  - { offset: 0x35B6D, size: 0x8, addend: 0x0, symName: __ZNSt3__112basic_stringIcNS_11char_traitsIcEENS_9allocatorIcEEE5__repC2B9nqe220108ENS5_7__shortE, symObjAddr: 0xF964, symBinAddr: 0x100012D10, symSize: 0x2C }
  - { offset: 0x35BA7, size: 0x8, addend: 0x0, symName: __ZNSt3__115basic_streambufIcNS_11char_traitsIcEEE15__gbump_ptrdiffB9nqe220108El, symObjAddr: 0xFA8C, symBinAddr: 0x100012E38, symSize: 0x28 }
  - { offset: 0x35BDC, size: 0x8, addend: 0x0, symName: __ZNSt3__115basic_streambufIcNS_11char_traitsIcEEE5gbumpB9nqe220108Ei, symObjAddr: 0xFAF4, symBinAddr: 0x100012EA0, symSize: 0x28 }
  - { offset: 0x35C11, size: 0x8, addend: 0x0, symName: __ZNSt3__113__scope_guardIZNS_15basic_streambufIcNS_11char_traitsIcEEE6sbumpcB9nqe220108EvEUlvE_ED1B9nqe220108Ev, symObjAddr: 0xFB1C, symBinAddr: 0x100012EC8, symSize: 0x2C }
  - { offset: 0x35C3F, size: 0x8, addend: 0x0, symName: __ZNSt3__113__scope_guardIZNS_15basic_streambufIcNS_11char_traitsIcEEE6sbumpcB9nqe220108EvEUlvE_EC1B9nqe220108ES5_, symObjAddr: 0xFB48, symBinAddr: 0x100012EF4, symSize: 0x34 }
  - { offset: 0x35C77, size: 0x8, addend: 0x0, symName: __ZNSt3__113__scope_guardIZNS_15basic_streambufIcNS_11char_traitsIcEEE6sbumpcB9nqe220108EvEUlvE_EC2B9nqe220108ES5_, symObjAddr: 0xFB7C, symBinAddr: 0x100012F28, symSize: 0x20 }
  - { offset: 0x35CAF, size: 0x8, addend: 0x0, symName: __ZNSt3__113__scope_guardIZNS_15basic_streambufIcNS_11char_traitsIcEEE6sbumpcB9nqe220108EvEUlvE_ED2B9nqe220108Ev, symObjAddr: 0xFB9C, symBinAddr: 0x100012F48, symSize: 0x34 }
  - { offset: 0x35CDD, size: 0x8, addend: 0x0, symName: __ZZNSt3__115basic_streambufIcNS_11char_traitsIcEEE6sbumpcB9nqe220108EvENKUlvE_clEv, symObjAddr: 0xFBD0, symBinAddr: 0x100012F7C, symSize: 0x28 }
  - { offset: 0x35D07, size: 0x8, addend: 0x0, symName: __ZNKSt3__18ios_base10exceptionsB9nqe220108Ev, symObjAddr: 0xFBF8, symBinAddr: 0x100012FA4, symSize: 0x18 }
  - { offset: 0x35D2F, size: 0x8, addend: 0x0, symName: __ZNSt3__112basic_stringIcNS_11char_traitsIcEENS_9allocatorIcEEE13__move_assignB9nqe220108ERS5_NS_17integral_constantIbLb1EEE, symObjAddr: 0xFC10, symBinAddr: 0x100012FBC, symSize: 0x184 }
  - { offset: 0x35D8F, size: 0x8, addend: 0x0, symName: __ZNSt3__112basic_stringIcNS_11char_traitsIcEENS_9allocatorIcEEE19__move_assign_allocB9nqe220108ERS5_, symObjAddr: 0xFD94, symBinAddr: 0x100013140, symSize: 0x2C }
  - { offset: 0x35DC4, size: 0x8, addend: 0x0, symName: __ZNSt3__112basic_stringIcNS_11char_traitsIcEENS_9allocatorIcEEE19__move_assign_allocB9nqe220108ERS5_NS_17integral_constantIbLb1EEE, symObjAddr: 0xFDC0, symBinAddr: 0x10001316C, symSize: 0x14 }
  - { offset: 0x35E04, size: 0x8, addend: 0x0, symName: __ZNSt3__16vectorIiNS_9allocatorIiEEED2B9nqe220108Ev, symObjAddr: 0xFDD4, symBinAddr: 0x100013180, symSize: 0x44 }
  - { offset: 0x35E32, size: 0x8, addend: 0x0, symName: __ZNSt3__16vectorIiNS_9allocatorIiEEE16__destroy_vectorC1B9nqe220108ERS3_, symObjAddr: 0xFE18, symBinAddr: 0x1000131C4, symSize: 0x34 }
  - { offset: 0x35E6A, size: 0x8, addend: 0x0, symName: __ZNSt3__16vectorIiNS_9allocatorIiEEE16__destroy_vectorclB9nqe220108Ev, symObjAddr: 0xFE4C, symBinAddr: 0x1000131F8, symSize: 0x84 }
  - { offset: 0x35E90, size: 0x8, addend: 0x0, symName: __ZNSt3__16vectorIiNS_9allocatorIiEEE16__destroy_vectorC2B9nqe220108ERS3_, symObjAddr: 0xFED0, symBinAddr: 0x10001327C, symSize: 0x20 }
  - { offset: 0x35EC8, size: 0x8, addend: 0x0, symName: __ZNSt3__16vectorIiNS_9allocatorIiEEE5clearB9nqe220108Ev, symObjAddr: 0xFEF0, symBinAddr: 0x10001329C, symSize: 0x48 }
  - { offset: 0x35EFD, size: 0x8, addend: 0x0, symName: __ZNKSt3__16vectorIiNS_9allocatorIiEEE17__annotate_deleteB9nqe220108Ev, symObjAddr: 0xFF38, symBinAddr: 0x1000132E4, symSize: 0x80 }
  - { offset: 0x35F23, size: 0x8, addend: 0x0, symName: __ZNSt3__116allocator_traitsINS_9allocatorIiEEE10deallocateB9nqe220108ERS2_Pim, symObjAddr: 0xFFB8, symBinAddr: 0x100013364, symSize: 0x34 }
  - { offset: 0x35F65, size: 0x8, addend: 0x0, symName: __ZNKSt3__16vectorIiNS_9allocatorIiEEE8capacityB9nqe220108Ev, symObjAddr: 0xFFEC, symBinAddr: 0x100013398, symSize: 0x28 }
  - { offset: 0x35F8B, size: 0x8, addend: 0x0, symName: __ZNKSt3__16vectorIiNS_9allocatorIiEEE4sizeB9nqe220108Ev, symObjAddr: 0x10014, symBinAddr: 0x1000133C0, symSize: 0x28 }
  - { offset: 0x35FB1, size: 0x8, addend: 0x0, symName: __ZNSt3__16vectorIiNS_9allocatorIiEEE22__base_destruct_at_endB9nqe220108EPi, symObjAddr: 0x1003C, symBinAddr: 0x1000133E8, symSize: 0x88 }
  - { offset: 0x35FF5, size: 0x8, addend: 0x0, symName: __ZNKSt3__16vectorIiNS_9allocatorIiEEE17__annotate_shrinkB9nqe220108Em, symObjAddr: 0x100C4, symBinAddr: 0x100013470, symSize: 0x7C }
  - { offset: 0x3602A, size: 0x8, addend: 0x0, symName: __ZNSt3__116allocator_traitsINS_9allocatorIiEEE7destroyB9nqe220108IiTnNS_9enable_ifIX15__has_destroy_vIS2_PT_EEiE4typeELi0EEEvRS2_S7_, symObjAddr: 0x10140, symBinAddr: 0x1000134EC, symSize: 0x2C }
  - { offset: 0x3606C, size: 0x8, addend: 0x0, symName: __ZNSt3__19allocatorIiE7destroyB9nqe220108EPi, symObjAddr: 0x10180, symBinAddr: 0x10001352C, symSize: 0x14 }
  - { offset: 0x360A0, size: 0x8, addend: 0x0, symName: __ZNKSt3__16vectorIiNS_9allocatorIiEEE31__annotate_contiguous_containerB9nqe220108EPKvS5_, symObjAddr: 0x10194, symBinAddr: 0x100013540, symSize: 0x6C }
  - { offset: 0x360E4, size: 0x8, addend: 0x0, symName: __ZNKSt3__16vectorIiNS_9allocatorIiEEE4dataB9nqe220108Ev, symObjAddr: 0x10200, symBinAddr: 0x1000135AC, symSize: 0x28 }
  - { offset: 0x3610A, size: 0x8, addend: 0x0, symName: __ZNSt3__19allocatorIiE10deallocateB9nqe220108EPim, symObjAddr: 0x10244, symBinAddr: 0x1000135F0, symSize: 0x34 }
  - { offset: 0x3614C, size: 0x8, addend: 0x0, symName: __ZNSt3__16vectorIiNS_9allocatorIiEEEC2B9nqe220108ERKS3_, symObjAddr: 0x102B0, symBinAddr: 0x10001365C, symSize: 0x78 }
  - { offset: 0x36190, size: 0x8, addend: 0x0, symName: __ZNSt3__116allocator_traitsINS_9allocatorIiEEE37select_on_container_copy_constructionB9nqe220108IS2_TnNS_9enable_ifIXnt45__has_select_on_container_copy_construction_vIKT_EEiE4typeELi0EEES2_RKS2_, symObjAddr: 0x10328, symBinAddr: 0x1000136D4, symSize: 0x10 }
  - { offset: 0x361C3, size: 0x8, addend: 0x0, symName: __ZNSt3__16vectorIiNS_9allocatorIiEEE16__init_with_sizeB9nqe220108IPiS5_EEvT_T0_m, symObjAddr: 0x10338, symBinAddr: 0x1000136E4, symSize: 0xB4 }
  - { offset: 0x36237, size: 0x8, addend: 0x0, symName: __ZNSt3__16vectorIiNS_9allocatorIiEEE11__vallocateB9nqe220108Em, symObjAddr: 0x1042C, symBinAddr: 0x1000137D8, symSize: 0x90 }
  - { offset: 0x3627B, size: 0x8, addend: 0x0, symName: __ZNSt3__16vectorIiNS_9allocatorIiEEE18__construct_at_endIPiS5_EEvT_T0_m, symObjAddr: 0x104BC, symBinAddr: 0x100013868, symSize: 0x8C }
  - { offset: 0x362EF, size: 0x8, addend: 0x0, symName: __ZNSt3__128__exception_guard_exceptionsINS_6vectorIiNS_9allocatorIiEEE16__destroy_vectorEE10__completeB9nqe220108Ev, symObjAddr: 0x10548, symBinAddr: 0x1000138F4, symSize: 0x1C }
  - { offset: 0x36315, size: 0x8, addend: 0x0, symName: __ZNSt3__128__exception_guard_exceptionsINS_6vectorIiNS_9allocatorIiEEE16__destroy_vectorEED1B9nqe220108Ev, symObjAddr: 0x10564, symBinAddr: 0x100013910, symSize: 0x2C }
  - { offset: 0x36343, size: 0x8, addend: 0x0, symName: __ZNSt3__128__exception_guard_exceptionsINS_6vectorIiNS_9allocatorIiEEE16__destroy_vectorEEC1B9nqe220108ES5_, symObjAddr: 0x10590, symBinAddr: 0x10001393C, symSize: 0x34 }
  - { offset: 0x3637B, size: 0x8, addend: 0x0, symName: __ZNSt3__128__exception_guard_exceptionsINS_6vectorIiNS_9allocatorIiEEE16__destroy_vectorEEC2B9nqe220108ES5_, symObjAddr: 0x105C4, symBinAddr: 0x100013970, symSize: 0x24 }
  - { offset: 0x363B3, size: 0x8, addend: 0x0, symName: __ZNKSt3__16vectorIiNS_9allocatorIiEEE8max_sizeB9nqe220108Ev, symObjAddr: 0x105E8, symBinAddr: 0x100013994, symSize: 0x60 }
  - { offset: 0x363D9, size: 0x8, addend: 0x0, symName: __ZNSt3__16vectorIiNS_9allocatorIiEEE20__throw_length_errorB9nqe220108Ev, symObjAddr: 0x10648, symBinAddr: 0x1000139F4, symSize: 0x14 }
  - { offset: 0x363ED, size: 0x8, addend: 0x0, symName: __ZNKSt3__16vectorIiNS_9allocatorIiEEE14__annotate_newB9nqe220108Em, symObjAddr: 0x106A0, symBinAddr: 0x100013A4C, symSize: 0x74 }
  - { offset: 0x36422, size: 0x8, addend: 0x0, symName: __ZNSt3__116allocator_traitsINS_9allocatorIiEEE8max_sizeB9nqe220108IS2_TnNS_9enable_ifIX16__has_max_size_vIKT_EEiE4typeELi0EEEmRKS2_, symObjAddr: 0x10714, symBinAddr: 0x100013AC0, symSize: 0x24 }
  - { offset: 0x36455, size: 0x8, addend: 0x0, symName: __ZNKSt3__19allocatorIiE8max_sizeB9nqe220108Ev, symObjAddr: 0x10738, symBinAddr: 0x100013AE4, symSize: 0x14 }
  - { offset: 0x3647B, size: 0x8, addend: 0x0, symName: __ZNSt3__19allocatorIiE8allocateB9nqe220108Em, symObjAddr: 0x1074C, symBinAddr: 0x100013AF8, symSize: 0x50 }
  - { offset: 0x364B4, size: 0x8, addend: 0x0, symName: __ZNSt3__119__allocation_resultIPimEC1B9nqe220108ES1_m, symObjAddr: 0x1079C, symBinAddr: 0x100013B48, symSize: 0x3C }
  - { offset: 0x364FA, size: 0x8, addend: 0x0, symName: __ZNSt3__119__allocation_resultIPimEC2B9nqe220108ES1_m, symObjAddr: 0x1080C, symBinAddr: 0x100013BB8, symSize: 0x2C }
  - { offset: 0x3655B, size: 0x8, addend: 0x0, symName: __ZNSt3__16vectorIiNS_9allocatorIiEEE21_ConstructTransactionC1B9nqe220108ERS3_m, symObjAddr: 0x10838, symBinAddr: 0x100013BE4, symSize: 0x3C }
  - { offset: 0x365A3, size: 0x8, addend: 0x0, symName: __ZNSt3__16vectorIiNS_9allocatorIiEEE21_ConstructTransactionD1B9nqe220108Ev, symObjAddr: 0x108F4, symBinAddr: 0x100013CA0, symSize: 0x2C }
  - { offset: 0x365D1, size: 0x8, addend: 0x0, symName: __ZNSt3__16vectorIiNS_9allocatorIiEEE21_ConstructTransactionC2B9nqe220108ERS3_m, symObjAddr: 0x10920, symBinAddr: 0x100013CCC, symSize: 0x64 }
  - { offset: 0x36619, size: 0x8, addend: 0x0, symName: __ZNKSt3__16vectorIiNS_9allocatorIiEEE19__annotate_increaseB9nqe220108Em, symObjAddr: 0x10984, symBinAddr: 0x100013D30, symSize: 0x8C }
  - { offset: 0x36670, size: 0x8, addend: 0x0, symName: __ZNSt3__14pairIPiS1_EC1B9nqe220108IS1_S1_TnNS_9enable_ifIXclsr25__check_pair_constructionIS1_S1_EE23__is_pair_constructibleIT_T0_EEEiE4typeELi0EEEOS5_OS6_, symObjAddr: 0x10B40, symBinAddr: 0x100013EEC, symSize: 0x3C }
  - { offset: 0x366CE, size: 0x8, addend: 0x0, symName: __ZNSt3__14pairIPiS1_EC2B9nqe220108IS1_S1_TnNS_9enable_ifIXclsr25__check_pair_constructionIS1_S1_EE23__is_pair_constructibleIT_T0_EEEiE4typeELi0EEEOS5_OS6_, symObjAddr: 0x10B7C, symBinAddr: 0x100013F28, symSize: 0x34 }
  - { offset: 0x36736, size: 0x8, addend: 0x0, symName: __ZNKSt3__111__copy_implclB9nqe220108IiiTnNS_9enable_ifIXsr38__can_lower_copy_assignment_to_memmoveIT_T0_EE5valueEiE4typeELi0EEENS_4pairIPS3_PS4_EES8_S8_S9_, symObjAddr: 0x10CE8, symBinAddr: 0x100014094, symSize: 0x48 }
  - { offset: 0x367A4, size: 0x8, addend: 0x0, symName: __ZNSt3__14pairIPiS1_EC1B9nqe220108IRS1_S1_TnNS_9enable_ifIXclsr25__check_pair_constructionIS1_S1_EE23__is_pair_constructibleIT_T0_EEEiE4typeELi0EEEOS6_OS7_, symObjAddr: 0x10E58, symBinAddr: 0x100014204, symSize: 0x3C }
  - { offset: 0x36802, size: 0x8, addend: 0x0, symName: __ZNSt3__14pairIPiS1_EC2B9nqe220108IRS1_S1_TnNS_9enable_ifIXclsr25__check_pair_constructionIS1_S1_EE23__is_pair_constructibleIT_T0_EEEiE4typeELi0EEEOS6_OS7_, symObjAddr: 0x10E94, symBinAddr: 0x100014240, symSize: 0x34 }
  - { offset: 0x36860, size: 0x8, addend: 0x0, symName: __ZNSt3__118__unwrap_iter_implIPiLb1EE8__unwrapB9nqe220108ES1_, symObjAddr: 0x10EC8, symBinAddr: 0x100014274, symSize: 0x24 }
  - { offset: 0x36883, size: 0x8, addend: 0x0, symName: __ZNSt3__118__unwrap_iter_implIPiLb1EE8__rewrapB9nqe220108ES1_S1_, symObjAddr: 0x10EEC, symBinAddr: 0x100014298, symSize: 0x50 }
  - { offset: 0x368B4, size: 0x8, addend: 0x0, symName: __ZNSt3__16vectorIiNS_9allocatorIiEEE21_ConstructTransactionD2B9nqe220108Ev, symObjAddr: 0x10F3C, symBinAddr: 0x1000142E8, symSize: 0x78 }
  - { offset: 0x368E2, size: 0x8, addend: 0x0, symName: __ZNSt3__128__exception_guard_exceptionsINS_6vectorIiNS_9allocatorIiEEE16__destroy_vectorEED2B9nqe220108Ev, symObjAddr: 0x10FB4, symBinAddr: 0x100014360, symSize: 0x48 }
  - { offset: 0x3982F, size: 0x8, addend: 0x0, symName: __ZL8opt_6_7B, symObjAddr: 0xD4FD8, symBinAddr: 0x1000C8AC8, symSize: 0x0 }
  - { offset: 0x39854, size: 0x8, addend: 0x0, symName: __ZL8opt_1_3B, symObjAddr: 0xD4FFC, symBinAddr: 0x1000C8AEC, symSize: 0x0 }
  - { offset: 0x3986D, size: 0x8, addend: 0x0, symName: __ZL8opt_125m, symObjAddr: 0xD5020, symBinAddr: 0x1000C8B10, symSize: 0x0 }
  - { offset: 0x39886, size: 0x8, addend: 0x0, symName: __ZL8llama_7B, symObjAddr: 0xD5044, symBinAddr: 0x1000C8B34, symSize: 0x0 }
  - { offset: 0x39BBD, size: 0x8, addend: 0x0, symName: __ZNSt3__1L19piecewise_constructE, symObjAddr: 0x1483F, symBinAddr: 0x1000BE519, symSize: 0x0 }
  - { offset: 0x3F2F0, size: 0x8, addend: 0x0, symName: '__ZNSt3__111__introsortINS_17_ClassicAlgPolicyERZ14sample_softmaxP20OPT_token_data_arrayE3$_0P14OPT_token_dataLb0EEEvT1_S8_T0_NS_15iterator_traitsIS8_E15difference_typeEb', symObjAddr: 0x50F4, symBinAddr: 0x1000199B0, symSize: 0x4D4 }
  - { offset: 0x3F465, size: 0x8, addend: 0x0, symName: '__ZNSt3__126__insertion_sort_unguardedB9nqe220108INS_17_ClassicAlgPolicyERZ14sample_softmaxP20OPT_token_data_arrayE3$_0P14OPT_token_dataEEvT1_S8_T0_', symObjAddr: 0x5A64, symBinAddr: 0x10001A320, symSize: 0x130 }
  - { offset: 0x3F556, size: 0x8, addend: 0x0, symName: '__ZNSt3__117__floyd_sift_downB9nqe220108INS_17_ClassicAlgPolicyERZ14sample_softmaxP20OPT_token_data_arrayE3$_0P14OPT_token_dataEET1_S8_OT0_NS_15iterator_traitsIS8_E15difference_typeE', symObjAddr: 0x6E38, symBinAddr: 0x10001B6F4, symSize: 0x108 }
  - { offset: 0x3F5EF, size: 0x8, addend: 0x0, symName: '__ZNSt3__131__partition_with_equals_on_leftB9nqe220108INS_17_ClassicAlgPolicyEP14OPT_token_dataRZ14sample_softmaxP20OPT_token_data_arrayE3$_0EET0_S8_S8_T1_', symObjAddr: 0x5C58, symBinAddr: 0x10001A514, symSize: 0x214 }
  - { offset: 0x3F6AB, size: 0x8, addend: 0x0, symName: '__ZNSt3__118__bitset_partitionB9nqe220108INS_17_ClassicAlgPolicyEP14OPT_token_dataRZ14sample_softmaxP20OPT_token_data_arrayE3$_0EENS_4pairIT0_bEES9_S9_T1_', symObjAddr: 0x5E6C, symBinAddr: 0x10001A728, symSize: 0x354 }
  - { offset: 0x3F7A9, size: 0x8, addend: 0x0, symName: __ZNSt3__124__swap_bitmap_pos_withinB9nqe220108INS_17_ClassicAlgPolicyEP14OPT_token_dataEEvRT0_S5_RyS6_, symObjAddr: 0x755C, symBinAddr: 0x10001BE18, symSize: 0x1C0 }
  - { offset: 0x3F877, size: 0x8, addend: 0x0, symName: '__ZNSt3__132__partition_with_equals_on_rightB9nqe220108INS_17_ClassicAlgPolicyEP14OPT_token_dataRZ14sample_softmaxP20OPT_token_data_arrayE3$_0EENS_4pairIT0_bEES9_S9_T1_', symObjAddr: 0x61C0, symBinAddr: 0x10001AA7C, symSize: 0x270 }
  - { offset: 0x3F944, size: 0x8, addend: 0x0, symName: '__ZNSt3__127__insertion_sort_incompleteB9nqe220108INS_17_ClassicAlgPolicyERZ14sample_softmaxP20OPT_token_data_arrayE3$_0P14OPT_token_dataEEbT1_S8_T0_', symObjAddr: 0x6430, symBinAddr: 0x10001ACEC, symSize: 0x330 }
  - { offset: 0x41459, size: 0x8, addend: 0x0, symName: __ZNSt3__17advanceB9nqe220108INS_11__wrap_iterIPKdEEllTnNS_9enable_ifIXsr11is_integralIT1_EE5valueEiE4typeELi0EEEvRT_T0_, symObjAddr: 0xB614, symBinAddr: 0x10001FD58, symSize: 0x38 }
  - { offset: 0x414F0, size: 0x8, addend: 0x0, symName: '__ZNSt3__111__introsortINS_17_ClassicAlgPolicyERZ12sample_top_kP20OPT_token_data_arrayimE3$_0P14OPT_token_dataLb0EEEvT1_S8_T0_NS_15iterator_traitsIS8_E15difference_typeEb', symObjAddr: 0xBCF0, symBinAddr: 0x100020434, symSize: 0x4D4 }
  - { offset: 0x41621, size: 0x8, addend: 0x0, symName: '__ZNSt3__126__insertion_sort_unguardedB9nqe220108INS_17_ClassicAlgPolicyERZ12sample_top_kP20OPT_token_data_arrayimE3$_0P14OPT_token_dataEEvT1_S8_T0_', symObjAddr: 0xC62C, symBinAddr: 0x100020D70, symSize: 0x130 }
  - { offset: 0x41712, size: 0x8, addend: 0x0, symName: '__ZNSt3__117__floyd_sift_downB9nqe220108INS_17_ClassicAlgPolicyERZ12sample_top_kP20OPT_token_data_arrayimE3$_0P14OPT_token_dataEET1_S8_OT0_NS_15iterator_traitsIS8_E15difference_typeE', symObjAddr: 0xD8DC, symBinAddr: 0x100022020, symSize: 0x108 }
  - { offset: 0x417AB, size: 0x8, addend: 0x0, symName: '__ZNSt3__131__partition_with_equals_on_leftB9nqe220108INS_17_ClassicAlgPolicyEP14OPT_token_dataRZ12sample_top_kP20OPT_token_data_arrayimE3$_0EET0_S8_S8_T1_', symObjAddr: 0xC7EC, symBinAddr: 0x100020F30, symSize: 0x214 }
  - { offset: 0x41867, size: 0x8, addend: 0x0, symName: '__ZNSt3__118__bitset_partitionB9nqe220108INS_17_ClassicAlgPolicyEP14OPT_token_dataRZ12sample_top_kP20OPT_token_data_arrayimE3$_0EENS_4pairIT0_bEES9_S9_T1_', symObjAddr: 0xCA00, symBinAddr: 0x100021144, symSize: 0x354 }
  - { offset: 0x41966, size: 0x8, addend: 0x0, symName: '__ZNSt3__132__partition_with_equals_on_rightB9nqe220108INS_17_ClassicAlgPolicyEP14OPT_token_dataRZ12sample_top_kP20OPT_token_data_arrayimE3$_0EENS_4pairIT0_bEES9_S9_T1_', symObjAddr: 0xCD54, symBinAddr: 0x100021498, symSize: 0x270 }
  - { offset: 0x41A33, size: 0x8, addend: 0x0, symName: '__ZNSt3__127__insertion_sort_incompleteB9nqe220108INS_17_ClassicAlgPolicyERZ12sample_top_kP20OPT_token_data_arrayimE3$_0P14OPT_token_dataEEbT1_S8_T0_', symObjAddr: 0xCFC4, symBinAddr: 0x100021708, symSize: 0x330 }
  - { offset: 0x42BB6, size: 0x8, addend: 0x0, symName: '__ZNSt3__111__introsortINS_17_ClassicAlgPolicyERZ14sample_typicalP20OPT_token_data_arrayfmE3$_0PmLb0EEEvT1_S7_T0_NS_15iterator_traitsIS7_E15difference_typeEb', symObjAddr: 0xF324, symBinAddr: 0x100023A68, symSize: 0x4A4 }
  - { offset: 0x42CE7, size: 0x8, addend: 0x0, symName: '__ZNSt3__126__insertion_sort_unguardedB9nqe220108INS_17_ClassicAlgPolicyERZ14sample_typicalP20OPT_token_data_arrayfmE3$_0PmEEvT1_S7_T0_', symObjAddr: 0xFCE8, symBinAddr: 0x10002442C, symSize: 0x124 }
  - { offset: 0x42DD8, size: 0x8, addend: 0x0, symName: '__ZNSt3__117__floyd_sift_downB9nqe220108INS_17_ClassicAlgPolicyERZ14sample_typicalP20OPT_token_data_arrayfmE3$_0PmEET1_S7_OT0_NS_15iterator_traitsIS7_E15difference_typeE', symObjAddr: 0x11338, symBinAddr: 0x100025A7C, symSize: 0xFC }
  - { offset: 0x42E71, size: 0x8, addend: 0x0, symName: '__ZNSt3__131__partition_with_equals_on_leftB9nqe220108INS_17_ClassicAlgPolicyEPmRZ14sample_typicalP20OPT_token_data_arrayfmE3$_0EET0_S7_S7_T1_', symObjAddr: 0xFED0, symBinAddr: 0x100024614, symSize: 0x210 }
  - { offset: 0x42F2D, size: 0x8, addend: 0x0, symName: '__ZNSt3__118__bitset_partitionB9nqe220108INS_17_ClassicAlgPolicyEPmRZ14sample_typicalP20OPT_token_data_arrayfmE3$_0EENS_4pairIT0_bEES8_S8_T1_', symObjAddr: 0x100E0, symBinAddr: 0x100024824, symSize: 0x340 }
  - { offset: 0x4302C, size: 0x8, addend: 0x0, symName: __ZNSt3__124__swap_bitmap_pos_withinB9nqe220108INS_17_ClassicAlgPolicyEPmEEvRT0_S4_RyS5_, symObjAddr: 0x1192C, symBinAddr: 0x100026070, symSize: 0x1B8 }
  - { offset: 0x430FA, size: 0x8, addend: 0x0, symName: '__ZNSt3__132__partition_with_equals_on_rightB9nqe220108INS_17_ClassicAlgPolicyEPmRZ14sample_typicalP20OPT_token_data_arrayfmE3$_0EENS_4pairIT0_bEES8_S8_T1_', symObjAddr: 0x10420, symBinAddr: 0x100024B64, symSize: 0x26C }
  - { offset: 0x431C6, size: 0x8, addend: 0x0, symName: '__ZNSt3__127__insertion_sort_incompleteB9nqe220108INS_17_ClassicAlgPolicyERZ14sample_typicalP20OPT_token_data_arrayfmE3$_0PmEEbT1_S7_T0_', symObjAddr: 0x1068C, symBinAddr: 0x100024DD0, symSize: 0x32C }
  - { offset: 0x4484C, size: 0x8, addend: 0x0, symName: __ZNSt3__14findB9nqe220108IPKiiEET_S3_S3_RKT0_, symObjAddr: 0x204, symBinAddr: 0x100014D84, symSize: 0x60 }
  - { offset: 0x4511A, size: 0x8, addend: 0x0, symName: __ZNSt3__1eqB9nqe220108ERKNS_19__hash_map_iteratorINS_15__hash_iteratorIPNS_11__hash_nodeINS_17__hash_value_typeIiiEEPvEEEEEESB_, symObjAddr: 0x580, symBinAddr: 0x100015100, symSize: 0x2C }
  - { offset: 0x45158, size: 0x8, addend: 0x0, symName: '__ZNSt3__111max_elementB9nqe220108IP14OPT_token_dataZ19sample_token_greedyP20OPT_token_data_arrayE3$_0EET_S6_S6_T0_', symObjAddr: 0x690, symBinAddr: 0x100015210, symSize: 0x30 }
  - { offset: 0x451B3, size: 0x8, addend: 0x0, symName: '__ZNSt3__14sortB9nqe220108IP14OPT_token_dataZ14sample_softmaxP20OPT_token_data_arrayE3$_0EEvT_S6_T0_', symObjAddr: 0x8D0, symBinAddr: 0x100015450, symSize: 0x30 }
  - { offset: 0x45417, size: 0x8, addend: 0x0, symName: __ZNSt3__13maxB9nqe220108IiEERKT_S3_S3_, symObjAddr: 0xDF4, symBinAddr: 0x100015974, symSize: 0x2C }
  - { offset: 0x4545A, size: 0x8, addend: 0x0, symName: __ZNSt3__13minB9nqe220108IiEERKT_S3_S3_, symObjAddr: 0xE20, symBinAddr: 0x1000159A0, symSize: 0x2C }
  - { offset: 0x4549E, size: 0x8, addend: 0x0, symName: '__ZNSt3__14sortB9nqe220108IP14OPT_token_dataZ12sample_top_kP20OPT_token_data_arrayimE3$_0EEvT_S6_T0_', symObjAddr: 0xE4C, symBinAddr: 0x1000159CC, symSize: 0x30 }
  - { offset: 0x454F9, size: 0x8, addend: 0x0, symName: '__ZNSt3__112partial_sortB9nqe220108IP14OPT_token_dataZ12sample_top_kP20OPT_token_data_arrayimE3$_0EEvT_S6_S6_T0_', symObjAddr: 0xE7C, symBinAddr: 0x1000159FC, symSize: 0x38 }
  - { offset: 0x4555D, size: 0x8, addend: 0x0, symName: __ZNSt3__18distanceB9nqe220108IP14OPT_token_dataEENS_15iterator_traitsIT_E15difference_typeES4_S4_, symObjAddr: 0x1148, symBinAddr: 0x100015CC8, symSize: 0x2C }
  - { offset: 0x455A1, size: 0x8, addend: 0x0, symName: '__ZNSt3__17find_ifB9nqe220108IP14OPT_token_dataZ21sample_token_mirostatiP20OPT_token_data_arrayffiPfE3$_0EET_S7_S7_T0_', symObjAddr: 0x1174, symBinAddr: 0x100015CF4, symSize: 0x6C }
  - { offset: 0x455FC, size: 0x8, addend: 0x0, symName: '__ZNSt3__17find_ifB9nqe220108IP14OPT_token_dataZ24sample_token_mirostat_v2P20OPT_token_data_arrayffPfE3$_0EET_S7_S7_T0_', symObjAddr: 0x132C, symBinAddr: 0x100015EAC, symSize: 0x6C }
  - { offset: 0x45657, size: 0x8, addend: 0x0, symName: '__ZNSt3__17find_ifB9nqe220108IP14OPT_token_dataZ24sample_token_mirostat_v2P20OPT_token_data_arrayffPfE3$_1EET_S7_S7_T0_', symObjAddr: 0x1398, symBinAddr: 0x100015F18, symSize: 0x6C }
  - { offset: 0x456B6, size: 0x8, addend: 0x0, symName: __ZNSt3__16__math3absB9nqe220108Ef, symObjAddr: 0x1838, symBinAddr: 0x1000163B8, symSize: 0x18 }
  - { offset: 0x456E2, size: 0x8, addend: 0x0, symName: __ZNSt3__16__math4ceilB9nqe220108Ef, symObjAddr: 0x3C54, symBinAddr: 0x100018574, symSize: 0x18 }
  - { offset: 0x4577D, size: 0x8, addend: 0x0, symName: __ZNSt3__110accumulateB9nqe220108INS_11__wrap_iterIPfEEfEET0_T_S5_S4_, symObjAddr: 0x1850, symBinAddr: 0x1000163D0, symSize: 0x70 }
  - { offset: 0x457D7, size: 0x8, addend: 0x0, symName: __ZNSt3__1neB9nqe220108IPfEEbRKNS_11__wrap_iterIT_EES6_, symObjAddr: 0x18C0, symBinAddr: 0x100016440, symSize: 0x30 }
  - { offset: 0x4581A, size: 0x8, addend: 0x0, symName: __ZNSt3__14iotaB9nqe220108INS_11__wrap_iterIPmEEiEEvT_S4_T0_, symObjAddr: 0x1D28, symBinAddr: 0x1000168A8, symSize: 0x70 }
  - { offset: 0x45871, size: 0x8, addend: 0x0, symName: '__ZNSt3__14sortB9nqe220108INS_11__wrap_iterIPmEEZ14sample_typicalP20OPT_token_data_arrayfmE3$_0EEvT_S7_T0_', symObjAddr: 0x1E18, symBinAddr: 0x100016998, symSize: 0x48 }
  - { offset: 0x458CB, size: 0x8, addend: 0x0, symName: __ZNSt3__14copyB9nqe220108INS_11__wrap_iterIP14OPT_token_dataEES3_EET0_T_S6_S5_, symObjAddr: 0x1F04, symBinAddr: 0x100016A84, symSize: 0x50 }
  - { offset: 0x45925, size: 0x8, addend: 0x0, symName: __ZNSt3__112__to_addressB9nqe220108IdEEPT_S2_, symObjAddr: 0x2618, symBinAddr: 0x100017110, symSize: 0x14 }
  - { offset: 0x4595A, size: 0x8, addend: 0x0, symName: __ZNSt3__131__annotate_contiguous_containerB9nqe220108INS_9allocatorIdEEEEvPKvS4_S4_S4_, symObjAddr: 0x26D4, symBinAddr: 0x1000171CC, symSize: 0x1C }
  - { offset: 0x459B5, size: 0x8, addend: 0x0, symName: __ZNSt3__119__libcpp_deallocateB9nqe220108IdEEvPNS_15__type_identityIT_E4typeENS_15__element_countEm, symObjAddr: 0x2724, symBinAddr: 0x10001721C, symSize: 0x38 }
  - { offset: 0x45A10, size: 0x8, addend: 0x0, symName: __ZNSt3__1eqB9nqe220108IPfEEbRKNS_11__wrap_iterIT_EES6_, symObjAddr: 0x275C, symBinAddr: 0x100017254, symSize: 0x44 }
  - { offset: 0x45A53, size: 0x8, addend: 0x0, symName: __ZNSt3__113__rewrap_iterB9nqe220108IPKiS2_NS_18__unwrap_iter_implIS2_Lb1EEEEET_S5_T0_, symObjAddr: 0x28FC, symBinAddr: 0x1000172B0, symSize: 0x3C }
  - { offset: 0x45AA8, size: 0x8, addend: 0x0, symName: __ZNSt3__16__findB9nqe220108IKiiNS_10__identityETnNS_9enable_ifIXaasr13__is_identityIT1_EE5value36__is_trivially_equality_comparable_vIT_T0_EEiE4typeELi0EEEPS5_S9_S9_RKS6_RS4_, symObjAddr: 0x2938, symBinAddr: 0x1000172EC, symSize: 0x78 }
  - { offset: 0x45B37, size: 0x8, addend: 0x0, symName: __ZNSt3__113__unwrap_iterB9nqe220108IPKiNS_18__unwrap_iter_implIS2_Lb1EEETnNS_9enable_ifIXsr21is_copy_constructibleIT_EE5valueEiE4typeELi0EEEDTclsrT0_8__unwrapclsr3stdE7declvalIS6_EEEES6_, symObjAddr: 0x29B0, symBinAddr: 0x100017364, symSize: 0x24 }
  - { offset: 0x45BC3, size: 0x8, addend: 0x0, symName: __ZNSt3__112__to_addressB9nqe220108IKiEEPT_S3_, symObjAddr: 0x2A24, symBinAddr: 0x1000173D8, symSize: 0x14 }
  - { offset: 0x45BF8, size: 0x8, addend: 0x0, symName: __ZNSt3__119__constexpr_wmemchrB9nqe220108IKiiEEPT_S3_T0_m, symObjAddr: 0x2A38, symBinAddr: 0x1000173EC, symSize: 0x40 }
  - { offset: 0x45C6E, size: 0x8, addend: 0x0, symName: __ZNSt3__112__destroy_atB9nqe220108INS_11__hash_nodeINS_17__hash_value_typeIiiEEPvEEEEvPT_, symObjAddr: 0x2ECC, symBinAddr: 0x100017880, symSize: 0x24 }
  - { offset: 0x45C9F, size: 0x8, addend: 0x0, symName: __ZNSt3__112__to_addressB9nqe220108INS_11__hash_nodeINS_17__hash_value_typeIiiEEPvEEEEPT_S7_, symObjAddr: 0x2EF0, symBinAddr: 0x1000178A4, symSize: 0x14 }
  - { offset: 0x45CD4, size: 0x8, addend: 0x0, symName: __ZNSt3__112__destroy_atB9nqe220108INS_4pairIKiiEEEEvPT_, symObjAddr: 0x2F38, symBinAddr: 0x1000178EC, symSize: 0x10 }
  - { offset: 0x45D05, size: 0x8, addend: 0x0, symName: __ZNSt3__119__libcpp_deallocateB9nqe220108INS_11__hash_nodeINS_17__hash_value_typeIiiEEPvEEEEvPNS_15__type_identityIT_E4typeENS_15__element_countEm, symObjAddr: 0x2FBC, symBinAddr: 0x100017970, symSize: 0x3C }
  - { offset: 0x45D93, size: 0x8, addend: 0x0, symName: __ZNSt3__119__libcpp_deallocateB9nqe220108IPNS_16__hash_node_baseIPNS_11__hash_nodeINS_17__hash_value_typeIiiEEPvEEEEEEvPNS_15__type_identityIT_E4typeENS_15__element_countEm, symObjAddr: 0x3178, symBinAddr: 0x100017B2C, symSize: 0x38 }
  - { offset: 0x45DEE, size: 0x8, addend: 0x0, symName: __ZNSt3__116forward_as_tupleB9nqe220108IJRKiEEENS_5tupleIJDpOT_EEES6_, symObjAddr: 0x325C, symBinAddr: 0x100017C10, symSize: 0x2C }
  - { offset: 0x45E27, size: 0x8, addend: 0x0, symName: __ZNSt3__120__try_key_extractionB9nqe220108IiZNS_12__hash_tableINS_17__hash_value_typeIiiEENS_22__unordered_map_hasherIiNS_4pairIKiiEENS_4hashIiEENS_8equal_toIiEEEENS_21__unordered_map_equalIiS7_SB_S9_EENS_9allocatorIS7_EEE16__emplace_uniqueB9nqe220108IJRKNS_21piecewise_construct_tENS_5tupleIJRS6_EEENSM_IJEEEEEENS5_INS_15__hash_iteratorIPNS_11__hash_nodeIS3_PvEEEEbEEDpOT_EUlSN_SL_OSO_OSP_E_ZNSI_IJSL_SO_SP_EEESW_SZ_EUlSL_S10_S11_E_JSL_SO_SP_EEEDTclclsr3stdE7declvalIT1_EEspclsr3stdE7declvalIT2_EEEET0_S14_DpOS15_, symObjAddr: 0x32BC, symBinAddr: 0x100017C6C, symSize: 0xB4 }
  - { offset: 0x45EBC, size: 0x8, addend: 0x0, symName: __ZNSt3__125__try_key_extraction_implB9nqe220108IiNS_4pairINS_15__hash_iteratorIPNS_11__hash_nodeINS_17__hash_value_typeIiiEEPvEEEEbEEZNS_12__hash_tableIS5_NS_22__unordered_map_hasherIiNS1_IKiiEENS_4hashIiEENS_8equal_toIiEEEENS_21__unordered_map_equalIiSE_SI_SG_EENS_9allocatorISE_EEE16__emplace_uniqueB9nqe220108IJRKNS_21piecewise_construct_tENS_5tupleIJRSD_EEENST_IJEEEEEESA_DpOT_EUlSU_SS_OSV_OSW_E_ZNSP_IJSS_SV_SW_EEESA_SZ_EUlSS_S10_S11_E_SS_SV_SW_TnNS_9enable_ifIXaaaaaasr7is_sameIu14__remove_constIu20__remove_reference_tIT3_EESQ_EE5value12__is_tuple_vIT4_Eeqsr10tuple_sizeIS18_EE5valueLi1Esr7is_sameIu14__remove_constIu20__remove_reference_tINS_13tuple_elementILm0ES18_E4typeEEET_EE5valueEiE4typeELi0EEET0_NS_14__priority_tagILm1EEET1_T2_OS15_OS18_OT5_, symObjAddr: 0x3370, symBinAddr: 0x100017D20, symSize: 0xB4 }
  - { offset: 0x45F6B, size: 0x8, addend: 0x0, symName: __ZNSt3__13getB9nqe220108ILm0EJRKiEEERNS_13tuple_elementIXT_ENS_5tupleIJDpT0_EEEE4typeERS7_, symObjAddr: 0x38C0, symBinAddr: 0x100018270, symSize: 0x24 }
  - { offset: 0x45FAD, size: 0x8, addend: 0x0, symName: __ZNSt3__13maxB9nqe220108ImEERKT_S3_S3_, symObjAddr: 0x3BDC, symBinAddr: 0x1000184FC, symSize: 0x2C }
  - { offset: 0x45FF0, size: 0x8, addend: 0x0, symName: __ZNSt3__116__is_hash_power2B9nqe220108Em, symObjAddr: 0x3C08, symBinAddr: 0x100018528, symSize: 0x4C }
  - { offset: 0x4603A, size: 0x8, addend: 0x0, symName: __ZNSt3__114__construct_atB9nqe220108INS_11__hash_nodeINS_17__hash_value_typeIiiEEPvEEJRmRNS_9allocatorIS5_EERKNS_21piecewise_construct_tENS_5tupleIJRKiEEENSD_IJEEEEPS5_EEPT_SK_DpOT0_, symObjAddr: 0x3EA0, symBinAddr: 0x1000187C0, symSize: 0x58 }
  - { offset: 0x460D9, size: 0x8, addend: 0x0, symName: __ZNSt3__117__libcpp_allocateB9nqe220108INS_11__hash_nodeINS_17__hash_value_typeIiiEEPvEEEEPT_NS_15__element_countEm, symObjAddr: 0x3FD0, symBinAddr: 0x1000188BC, symSize: 0x38 }
  - { offset: 0x4612A, size: 0x8, addend: 0x0, symName: __ZNSt3__116__next_hash_pow2B9nqe220108Em, symObjAddr: 0x4730, symBinAddr: 0x10001901C, symSize: 0x60 }
  - { offset: 0x46156, size: 0x8, addend: 0x0, symName: __ZNSt3__117__libcpp_allocateB9nqe220108IPNS_16__hash_node_baseIPNS_11__hash_nodeINS_17__hash_value_typeIiiEEPvEEEEEEPT_NS_15__element_countEm, symObjAddr: 0x48A0, symBinAddr: 0x10001918C, symSize: 0x34 }
  - { offset: 0x461A7, size: 0x8, addend: 0x0, symName: __ZNSt3__113__countl_zeroB9nqe220108ImEEiT_, symObjAddr: 0x48E8, symBinAddr: 0x1000191D4, symSize: 0x28 }
  - { offset: 0x461DC, size: 0x8, addend: 0x0, symName: __ZNSt3__13maxB9nqe220108ImNS_6__lessIvvEEEERKT_S5_S5_T0_, symObjAddr: 0x4910, symBinAddr: 0x1000191FC, symSize: 0x54 }
  - { offset: 0x46310, size: 0x8, addend: 0x0, symName: __ZNSt3__1eqB9nqe220108ERKNS_15__hash_iteratorIPNS_11__hash_nodeINS_17__hash_value_typeIiiEEPvEEEES9_, symObjAddr: 0x4E44, symBinAddr: 0x100019700, symSize: 0x2C }
  - { offset: 0x4634E, size: 0x8, addend: 0x0, symName: '__ZNSt3__113__max_elementB9nqe220108IRZ19sample_token_greedyP20OPT_token_data_arrayE3$_0P14OPT_token_dataEET0_S7_S7_T_', symObjAddr: 0x4E9C, symBinAddr: 0x100019758, symSize: 0x94 }
  - { offset: 0x463C5, size: 0x8, addend: 0x0, symName: '__ZNSt3__111__sort_implB9nqe220108INS_17_ClassicAlgPolicyEP14OPT_token_dataZ14sample_softmaxP20OPT_token_data_arrayE3$_0EEvT0_S7_RT1_', symObjAddr: 0x4F60, symBinAddr: 0x10001981C, symSize: 0x78 }
  - { offset: 0x46428, size: 0x8, addend: 0x0, symName: __ZNSt3__123__debug_randomize_rangeB9nqe220108INS_17_ClassicAlgPolicyEP14OPT_token_dataS3_EEvT0_T1_, symObjAddr: 0x4FD8, symBinAddr: 0x100019894, symSize: 0x14 }
  - { offset: 0x4647A, size: 0x8, addend: 0x0, symName: '__ZNSt3__115__sort_dispatchB9nqe220108INS_17_ClassicAlgPolicyEP14OPT_token_dataZ14sample_softmaxP20OPT_token_data_arrayE3$_0EEvT0_S7_RT1_', symObjAddr: 0x4FEC, symBinAddr: 0x1000198A8, symSize: 0x84 }
  - { offset: 0x464F8, size: 0x8, addend: 0x0, symName: __ZNSt3__113__unwrap_iterB9nqe220108IP14OPT_token_dataNS_18__unwrap_iter_implIS2_Lb1EEETnNS_9enable_ifIXsr21is_copy_constructibleIT_EE5valueEiE4typeELi0EEEDTclsrT0_8__unwrapclsr3stdE7declvalIS6_EEEES6_, symObjAddr: 0x5070, symBinAddr: 0x10001992C, symSize: 0x24 }
  - { offset: 0x4653D, size: 0x8, addend: 0x0, symName: '__ZNSt3__135__check_strict_weak_ordering_sortedB9nqe220108IP14OPT_token_dataZ14sample_softmaxP20OPT_token_data_arrayE3$_0EEvT_S6_RT0_', symObjAddr: 0x5094, symBinAddr: 0x100019950, symSize: 0x18 }
  - { offset: 0x46593, size: 0x8, addend: 0x0, symName: __ZNSt3__110__bit_log2B9nqe220108ImEET_S1_, symObjAddr: 0x50AC, symBinAddr: 0x100019968, symSize: 0x34 }
  - { offset: 0x465C8, size: 0x8, addend: 0x0, symName: __ZNSt3__118__to_unsigned_likeB9nqe220108IlEEu15__make_unsignedIT_ES1_, symObjAddr: 0x50E0, symBinAddr: 0x10001999C, symSize: 0x14 }
  - { offset: 0x4687A, size: 0x8, addend: 0x0, symName: '__ZNSt3__17__sort3B9nqe220108INS_17_ClassicAlgPolicyERZ14sample_softmaxP20OPT_token_data_arrayE3$_0P14OPT_token_dataTnNS_9enable_ifIXnt21__use_branchless_sortIT0_T1_EEiE4typeELi0EEEbSA_SA_SA_S9_', symObjAddr: 0x562C, symBinAddr: 0x100019EE8, symSize: 0x13C }
  - { offset: 0x468F2, size: 0x8, addend: 0x0, symName: '__ZNSt3__17__sort4B9nqe220108INS_17_ClassicAlgPolicyERZ14sample_softmaxP20OPT_token_data_arrayE3$_0P14OPT_token_dataTnNS_9enable_ifIXnt21__use_branchless_sortIT0_T1_EEiE4typeELi0EEEvSA_SA_SA_SA_S9_', symObjAddr: 0x5768, symBinAddr: 0x10001A024, symSize: 0xB8 }
  - { offset: 0x46974, size: 0x8, addend: 0x0, symName: '__ZNSt3__17__sort5B9nqe220108INS_17_ClassicAlgPolicyERZ14sample_softmaxP20OPT_token_data_arrayE3$_0P14OPT_token_dataTnNS_9enable_ifIXnt21__use_branchless_sortIT0_T1_EEiE4typeELi0EEEvSA_SA_SA_SA_SA_S9_', symObjAddr: 0x5820, symBinAddr: 0x10001A0DC, symSize: 0xE8 }
  - { offset: 0x46A04, size: 0x8, addend: 0x0, symName: '__ZNSt3__116__insertion_sortB9nqe220108INS_17_ClassicAlgPolicyERZ14sample_softmaxP20OPT_token_data_arrayE3$_0P14OPT_token_dataEEvT1_S8_T0_', symObjAddr: 0x5908, symBinAddr: 0x10001A1C4, symSize: 0x15C }
  - { offset: 0x46AC4, size: 0x8, addend: 0x0, symName: '__ZNSt3__114__partial_sortB9nqe220108INS_17_ClassicAlgPolicyERZ14sample_softmaxP20OPT_token_data_arrayE3$_0P14OPT_token_dataS7_EET1_S8_S8_T2_RT0_', symObjAddr: 0x5B94, symBinAddr: 0x10001A450, symSize: 0x90 }
  - { offset: 0x46B4C, size: 0x8, addend: 0x0, symName: __ZNSt3__19iter_swapB9nqe220108IP14OPT_token_dataS2_EEvT_T0_, symObjAddr: 0x6760, symBinAddr: 0x10001B01C, symSize: 0x2C }
  - { offset: 0x46B94, size: 0x8, addend: 0x0, symName: __ZNSt3__14swapB9nqe220108I14OPT_token_dataEENS_9enable_ifIXaasr21is_move_constructibleIT_EE5valuesr18is_move_assignableIS3_EE5valueEvE4typeERS3_S6_, symObjAddr: 0x678C, symBinAddr: 0x10001B048, symSize: 0x54 }
  - { offset: 0x46BE6, size: 0x8, addend: 0x0, symName: '__ZNSt3__119__partial_sort_implB9nqe220108INS_17_ClassicAlgPolicyERZ14sample_softmaxP20OPT_token_data_arrayE3$_0P14OPT_token_dataS7_EET1_S8_S8_T2_OT0_', symObjAddr: 0x6824, symBinAddr: 0x10001B0E0, symSize: 0x108 }
  - { offset: 0x46C7D, size: 0x8, addend: 0x0, symName: '__ZNSt3__111__make_heapB9nqe220108INS_17_ClassicAlgPolicyERZ14sample_softmaxP20OPT_token_data_arrayE3$_0P14OPT_token_dataEEvT1_S8_OT0_', symObjAddr: 0x692C, symBinAddr: 0x10001B1E8, symSize: 0xB0 }
  - { offset: 0x46D3C, size: 0x8, addend: 0x0, symName: '__ZNSt3__111__sift_downB9nqe220108INS_17_ClassicAlgPolicyELb0ERZ14sample_softmaxP20OPT_token_data_arrayE3$_0P14OPT_token_dataEEvT2_OT1_NS_15iterator_traitsIS8_E15difference_typeESD_', symObjAddr: 0x69DC, symBinAddr: 0x10001B298, symSize: 0x280 }
  - { offset: 0x46DE6, size: 0x8, addend: 0x0, symName: '__ZNSt3__111__sort_heapB9nqe220108INS_17_ClassicAlgPolicyERZ14sample_softmaxP20OPT_token_data_arrayE3$_0P14OPT_token_dataEEvT1_S8_OT0_', symObjAddr: 0x6C5C, symBinAddr: 0x10001B518, symSize: 0xA4 }
  - { offset: 0x46E89, size: 0x8, addend: 0x0, symName: '__ZNSt3__110__pop_heapB9nqe220108INS_17_ClassicAlgPolicyEZ14sample_softmaxP20OPT_token_data_arrayE3$_0P14OPT_token_dataEEvT1_S7_RT0_NS_15iterator_traitsIS7_E15difference_typeE', symObjAddr: 0x6D2C, symBinAddr: 0x10001B5E8, symSize: 0x10C }
  - { offset: 0x46F3A, size: 0x8, addend: 0x0, symName: '__ZNSt3__19__sift_upB9nqe220108INS_17_ClassicAlgPolicyERZ14sample_softmaxP20OPT_token_data_arrayE3$_0P14OPT_token_dataEEvT1_S8_OT0_NS_15iterator_traitsIS8_E15difference_typeE', symObjAddr: 0x6F40, symBinAddr: 0x10001B7FC, symSize: 0x138 }
  - { offset: 0x46FEB, size: 0x8, addend: 0x0, symName: '__ZNSt3__122__populate_left_bitsetB9nqe220108IRZ14sample_softmaxP20OPT_token_data_arrayE3$_0P14OPT_token_dataS5_EEvT0_T_RT1_Ry', symObjAddr: 0x7078, symBinAddr: 0x10001B934, symSize: 0xA4 }
  - { offset: 0x470A7, size: 0x8, addend: 0x0, symName: '__ZNSt3__123__populate_right_bitsetB9nqe220108IRZ14sample_softmaxP20OPT_token_data_arrayE3$_0P14OPT_token_dataS5_EEvT0_T_RT1_Ry', symObjAddr: 0x711C, symBinAddr: 0x10001B9D8, symSize: 0x98 }
  - { offset: 0x47162, size: 0x8, addend: 0x0, symName: __ZNSt3__117__swap_bitmap_posB9nqe220108INS_17_ClassicAlgPolicyEP14OPT_token_dataEEvT0_S4_RyS5_, symObjAddr: 0x71B4, symBinAddr: 0x10001BA70, symSize: 0xFC }
  - { offset: 0x47204, size: 0x8, addend: 0x0, symName: '__ZNSt3__133__bitset_partition_partial_blocksB9nqe220108INS_17_ClassicAlgPolicyERZ14sample_softmaxP20OPT_token_data_arrayE3$_0P14OPT_token_dataS6_EEvRT1_S9_T0_RT2_RySD_', symObjAddr: 0x72B0, symBinAddr: 0x10001BB6C, symSize: 0x2AC }
  - { offset: 0x47385, size: 0x8, addend: 0x0, symName: __ZNSt3__19make_pairB9nqe220108IRP14OPT_token_dataRbEENS_4pairINS_18__unwrap_referenceIu7__decayIT_EE4typeENS6_Iu7__decayIT0_EE4typeEEEOS7_OSB_, symObjAddr: 0x771C, symBinAddr: 0x10001BFD8, symSize: 0x38 }
  - { offset: 0x473D4, size: 0x8, addend: 0x0, symName: __ZNSt3__113__countr_zeroB9nqe220108IyEEiT_, symObjAddr: 0x7754, symBinAddr: 0x10001C010, symSize: 0x2C }
  - { offset: 0x47409, size: 0x8, addend: 0x0, symName: __ZNSt3__113__libcpp_blsrB9nqe220108Ey, symObjAddr: 0x7780, symBinAddr: 0x10001C03C, symSize: 0x2C }
  - { offset: 0x47435, size: 0x8, addend: 0x0, symName: __ZNSt3__113__countl_zeroB9nqe220108IyEEiT_, symObjAddr: 0x77E0, symBinAddr: 0x10001C09C, symSize: 0x28 }
  - { offset: 0x47590, size: 0x8, addend: 0x0, symName: __ZNSt3__112__to_addressB9nqe220108I14OPT_token_dataEEPT_S3_, symObjAddr: 0x78A0, symBinAddr: 0x10001C15C, symSize: 0x14 }
  - { offset: 0x475C5, size: 0x8, addend: 0x0, symName: __ZNSt3__112__to_addressB9nqe220108IfEEPT_S2_, symObjAddr: 0x7C44, symBinAddr: 0x10001C500, symSize: 0x14 }
  - { offset: 0x475FA, size: 0x8, addend: 0x0, symName: __ZNSt3__131__annotate_contiguous_containerB9nqe220108INS_9allocatorIfEEEEvPKvS4_S4_S4_, symObjAddr: 0x7D00, symBinAddr: 0x10001C5BC, symSize: 0x1C }
  - { offset: 0x47655, size: 0x8, addend: 0x0, symName: __ZNSt3__119__libcpp_deallocateB9nqe220108IfEEvPNS_15__type_identityIT_E4typeENS_15__element_countEm, symObjAddr: 0x7D50, symBinAddr: 0x10001C60C, symSize: 0x38 }
  - { offset: 0x476B0, size: 0x8, addend: 0x0, symName: __ZNSt3__119__allocate_at_leastB9nqe220108INS_9allocatorIfEENS_16allocator_traitsIS2_EEEENS_19__allocation_resultINT0_7pointerENS6_9size_typeEEERT_m, symObjAddr: 0x8204, symBinAddr: 0x10001C948, symSize: 0x44 }
  - { offset: 0x4774B, size: 0x8, addend: 0x0, symName: __ZNSt3__117__libcpp_allocateB9nqe220108IfEEPT_NS_15__element_countEm, symObjAddr: 0x8378, symBinAddr: 0x10001CABC, symSize: 0x34 }
  - { offset: 0x4779C, size: 0x8, addend: 0x0, symName: __ZNSt3__134__uninitialized_allocator_relocateB9nqe220108INS_9allocatorIfEEPfEEvRT_T0_S6_S6_, symObjAddr: 0x83F0, symBinAddr: 0x10001CB34, symSize: 0x60 }
  - { offset: 0x47805, size: 0x8, addend: 0x0, symName: __ZNSt3__116__if_likely_elseB9nqe220108IZNS_6vectorIfNS_9allocatorIfEEE12emplace_backIJRKfEEEvDpOT_EUlvE_ZNS5_IJS7_EEEvSA_EUlvE0_EEvbT_T0_, symObjAddr: 0x87F8, symBinAddr: 0x10001CF3C, symSize: 0x58 }
  - { offset: 0x47861, size: 0x8, addend: 0x0, symName: __ZNSt3__18distanceB9nqe220108INS_11__wrap_iterIPfEEEENS_15iterator_traitsIT_E15difference_typeES5_S5_, symObjAddr: 0x9124, symBinAddr: 0x10001D868, symSize: 0x3C }
  - { offset: 0x478A4, size: 0x8, addend: 0x0, symName: __ZNSt3__110__distanceB9nqe220108INS_11__wrap_iterIPfEETnNS_9enable_ifIXsr37__has_random_access_iterator_categoryIT_EE5valueEiE4typeELi0EEENS_15iterator_traitsIS5_E15difference_typeES5_S5_, symObjAddr: 0x9224, symBinAddr: 0x10001D968, symSize: 0x30 }
  - { offset: 0x478ED, size: 0x8, addend: 0x0, symName: __ZNSt3__1miB9nqe220108IPfS1_EEDTmicldtfp_4baseEcldtfp0_4baseEERKNS_11__wrap_iterIT_EERKNS3_IT0_EE, symObjAddr: 0x9254, symBinAddr: 0x10001D998, symSize: 0x48 }
  - { offset: 0x47939, size: 0x8, addend: 0x0, symName: __ZNSt3__122__make_exception_guardB9nqe220108INS_6vectorIdNS_9allocatorIdEEE16__destroy_vectorEEENS_28__exception_guard_exceptionsIT_EES7_, symObjAddr: 0x929C, symBinAddr: 0x10001D9E0, symSize: 0x40 }
  - { offset: 0x4796E, size: 0x8, addend: 0x0, symName: __ZNSt3__119__allocate_at_leastB9nqe220108INS_9allocatorIdEENS_16allocator_traitsIS2_EEEENS_19__allocation_resultINT0_7pointerENS6_9size_typeEEERT_m, symObjAddr: 0x951C, symBinAddr: 0x10001DC60, symSize: 0x44 }
  - { offset: 0x47A09, size: 0x8, addend: 0x0, symName: __ZNSt3__117__libcpp_allocateB9nqe220108IdEEPT_NS_15__element_countEm, symObjAddr: 0x9698, symBinAddr: 0x10001DDDC, symSize: 0x34 }
  - { offset: 0x47A5A, size: 0x8, addend: 0x0, symName: __ZNSt3__130__uninitialized_allocator_copyB9nqe220108INS_9allocatorIdEENS_11__wrap_iterIPfEES5_PdEET2_RT_T0_T1_S7_, symObjAddr: 0x9734, symBinAddr: 0x10001DE78, symSize: 0x90 }
  - { offset: 0x47AF7, size: 0x8, addend: 0x0, symName: __ZNSt3__114__unwrap_rangeB9nqe220108INS_11__wrap_iterIPfEES2_EENS_4pairIT0_S5_EET_S7_, symObjAddr: 0x98E0, symBinAddr: 0x10001E024, symSize: 0x70 }
  - { offset: 0x47B43, size: 0x8, addend: 0x0, symName: __ZNSt3__135__uninitialized_allocator_copy_implB9nqe220108INS_9allocatorIdEEPfS3_PdEET2_RT_T0_T1_S5_, symObjAddr: 0x9950, symBinAddr: 0x10001E094, symSize: 0xF0 }
  - { offset: 0x47BE1, size: 0x8, addend: 0x0, symName: __ZNSt3__113__unwrap_iterB9nqe220108IPdNS_18__unwrap_iter_implIS1_Lb1EEETnNS_9enable_ifIXsr21is_copy_constructibleIT_EE5valueEiE4typeELi0EEEDTclsrT0_8__unwrapclsr3stdE7declvalIS5_EEEES5_, symObjAddr: 0x9A40, symBinAddr: 0x10001E184, symSize: 0x24 }
  - { offset: 0x47C25, size: 0x8, addend: 0x0, symName: __ZNSt3__113__rewrap_iterB9nqe220108IPdS1_NS_18__unwrap_iter_implIS1_Lb1EEEEET_S4_T0_, symObjAddr: 0x9A64, symBinAddr: 0x10001E1A8, symSize: 0x3C }
  - { offset: 0x47C7A, size: 0x8, addend: 0x0, symName: __ZNSt3__19make_pairB9nqe220108IPfS1_EENS_4pairINS_18__unwrap_referenceIu7__decayIT_EE4typeENS3_Iu7__decayIT0_EE4typeEEEOS4_OS8_, symObjAddr: 0x9AA0, symBinAddr: 0x10001E1E4, symSize: 0x38 }
  - { offset: 0x47CC9, size: 0x8, addend: 0x0, symName: __ZNSt3__113__unwrap_iterB9nqe220108INS_11__wrap_iterIPfEENS_18__unwrap_iter_implIS3_Lb1EEETnNS_9enable_ifIXsr21is_copy_constructibleIT_EE5valueEiE4typeELi0EEEDTclsrT0_8__unwrapclsr3stdE7declvalIS7_EEEES7_, symObjAddr: 0x9AD8, symBinAddr: 0x10001E21C, symSize: 0x2C }
  - { offset: 0x47EAF, size: 0x8, addend: 0x0, symName: __ZNSt3__112__to_addressB9nqe220108INS_11__wrap_iterIPfEETnNS_9enable_ifIXsr4_AndINS_8is_classIT_EENS_15_IsFancyPointerIS6_EEEE5valueEiE4typeELi0EEEu7__decayIDTclsr19__to_address_helperIS6_EE6__callclsr3stdE7declvalIRKS6_EEEEESD_, symObjAddr: 0x9B9C, symBinAddr: 0x10001E2E0, symSize: 0x24 }
  - { offset: 0x47F13, size: 0x8, addend: 0x0, symName: __ZNSt3__122__make_exception_guardB9nqe220108INS_29_AllocatorDestroyRangeReverseINS_9allocatorIdEEPdEEEENS_28__exception_guard_exceptionsIT_EES7_, symObjAddr: 0x9C1C, symBinAddr: 0x10001E360, symSize: 0x4C }
  - { offset: 0x47F49, size: 0x8, addend: 0x0, symName: __ZNSt3__119__allocator_destroyB9nqe220108INS_9allocatorIdEENS_16reverse_iteratorIPdEES5_EEvRT_T0_T1_, symObjAddr: 0x9EA8, symBinAddr: 0x10001E5EC, symSize: 0x70 }
  - { offset: 0x47FA8, size: 0x8, addend: 0x0, symName: __ZNSt3__1neB9nqe220108IPdS1_EEbRKNS_16reverse_iteratorIT_EERKNS2_IT0_EE, symObjAddr: 0x9F4C, symBinAddr: 0x10001E690, symSize: 0x44 }
  - { offset: 0x4803C, size: 0x8, addend: 0x0, symName: __ZNSt3__110accumulateB9nqe220108INS_11__wrap_iterIPdEEdEET0_T_S5_S4_, symObjAddr: 0xA170, symBinAddr: 0x10001E8B4, symSize: 0x70 }
  - { offset: 0x48096, size: 0x8, addend: 0x0, symName: __ZNSt3__1ltB9nqe220108IPdEEbRKNS_11__wrap_iterIT_EES6_, symObjAddr: 0xA260, symBinAddr: 0x10001E9A4, symSize: 0x44 }
  - { offset: 0x480D9, size: 0x8, addend: 0x0, symName: __ZNSt3__111partial_sumB9nqe220108INS_11__wrap_iterIPdEES3_EET0_T_S5_S4_, symObjAddr: 0xA310, symBinAddr: 0x10001EA54, symSize: 0xFC }
  - { offset: 0x4814F, size: 0x8, addend: 0x0, symName: __ZNSt3__14swapB9nqe220108IdNS_9allocatorIdEEEEvRNS_6vectorIT_T0_EES7_, symObjAddr: 0xA448, symBinAddr: 0x10001EB8C, symSize: 0x2C }
  - { offset: 0x48197, size: 0x8, addend: 0x0, symName: __ZNSt3__1neB9nqe220108IPdEEbRKNS_11__wrap_iterIT_EES6_, symObjAddr: 0xA584, symBinAddr: 0x10001ECC8, symSize: 0x30 }
  - { offset: 0x481DA, size: 0x8, addend: 0x0, symName: __ZNSt3__1eqB9nqe220108IPdEEbRKNS_11__wrap_iterIT_EES6_, symObjAddr: 0xA5B4, symBinAddr: 0x10001ECF8, symSize: 0x44 }
  - { offset: 0x4821D, size: 0x8, addend: 0x0, symName: __ZNSt3__14swapB9nqe220108IPdEENS_9enable_ifIXaasr21is_move_constructibleIT_EE5valuesr18is_move_assignableIS3_EE5valueEvE4typeERS3_S6_, symObjAddr: 0xA940, symBinAddr: 0x10001F084, symSize: 0x3C }
  - { offset: 0x4826E, size: 0x8, addend: 0x0, symName: __ZNSt3__116__swap_allocatorB9nqe220108INS_9allocatorIdEEEEvRT_S4_, symObjAddr: 0xA97C, symBinAddr: 0x10001F0C0, symSize: 0x2C }
  - { offset: 0x482AD, size: 0x8, addend: 0x0, symName: __ZNSt3__116__swap_allocatorB9nqe220108INS_9allocatorIdEEEEvRT_S4_NS_17integral_constantIbLb0EEE, symObjAddr: 0xA9A8, symBinAddr: 0x10001F0EC, symSize: 0x14 }
  - { offset: 0x482EE, size: 0x8, addend: 0x0, symName: __ZNSt3__134__uninitialized_allocator_relocateB9nqe220108INS_9allocatorIdEEPdEEvRT_T0_S6_S6_, symObjAddr: 0xACF8, symBinAddr: 0x10001F43C, symSize: 0x60 }
  - { offset: 0x48516, size: 0x8, addend: 0x0, symName: __ZNSt3__1miB9nqe220108IPKdS2_EEDTmicldtfp_4baseEcldtfp0_4baseEERKNS_11__wrap_iterIT_EERKNS4_IT0_EE, symObjAddr: 0xB0A8, symBinAddr: 0x10001F7EC, symSize: 0x48 }
  - { offset: 0x48562, size: 0x8, addend: 0x0, symName: __ZNSt3__111upper_boundB9nqe220108INS_11__wrap_iterIPKdEEdEET_S5_S5_RKT0_, symObjAddr: 0xB0F0, symBinAddr: 0x10001F834, symSize: 0x4C }
  - { offset: 0x485BC, size: 0x8, addend: 0x0, symName: __ZNSt3__111upper_boundB9nqe220108INS_11__wrap_iterIPKdEEdNS_6__lessIvvEEEET_S7_S7_RKT0_T1_, symObjAddr: 0xB2E4, symBinAddr: 0x10001FA28, symSize: 0x54 }
  - { offset: 0x4862D, size: 0x8, addend: 0x0, symName: __ZNSt3__113__upper_boundB9nqe220108INS_17_ClassicAlgPolicyENS_6__lessIvvEENS_11__wrap_iterIPKdEES7_dNS_10__identityEEET1_S9_T2_RKT3_OT0_OT4_, symObjAddr: 0xB338, symBinAddr: 0x10001FA7C, symSize: 0x104 }
  - { offset: 0x486FF, size: 0x8, addend: 0x0, symName: __ZNSt3__115__half_positiveB9nqe220108IlTnNS_9enable_ifIXsr11is_integralIT_EE5valueEiE4typeELi0EEES2_S2_, symObjAddr: 0xB478, symBinAddr: 0x10001FBBC, symSize: 0x1C }
  - { offset: 0x4873A, size: 0x8, addend: 0x0, symName: __ZNSt3__18__invokeB9nqe220108IJRNS_6__lessIvvEERKdS5_EEENS_20__invoke_result_implIvJDpT_EE4typeEDpOS7_, symObjAddr: 0xB4D4, symBinAddr: 0x10001FC18, symSize: 0x34 }
  - { offset: 0x48797, size: 0x8, addend: 0x0, symName: __ZNSt3__18__invokeB9nqe220108IJRNS_10__identityERKdEEENS_20__invoke_result_implIvJDpT_EE4typeEDpOS6_, symObjAddr: 0xB508, symBinAddr: 0x10001FC4C, symSize: 0x2C }
  - { offset: 0x487E1, size: 0x8, addend: 0x0, symName: __ZNSt3__18distanceB9nqe220108INS_11__wrap_iterIPKdEEEENS_15iterator_traitsIT_E15difference_typeES6_S6_, symObjAddr: 0xB56C, symBinAddr: 0x10001FCB0, symSize: 0x3C }
  - { offset: 0x48824, size: 0x8, addend: 0x0, symName: __ZNSt3__110__distanceB9nqe220108INS_11__wrap_iterIPKdEETnNS_9enable_ifIXsr37__has_random_access_iterator_categoryIT_EE5valueEiE4typeELi0EEENS_15iterator_traitsIS6_E15difference_typeES6_S6_, symObjAddr: 0xB5A8, symBinAddr: 0x10001FCEC, symSize: 0x30 }
  - { offset: 0x4886D, size: 0x8, addend: 0x0, symName: __ZNSt3__14nextB9nqe220108INS_11__wrap_iterIPKdEETnNS_9enable_ifIXsr29__has_input_iterator_categoryIT_EE5valueEiE4typeELi0EEES6_S6_NS_15iterator_traitsIS6_E15difference_typeE, symObjAddr: 0xB5D8, symBinAddr: 0x10001FD1C, symSize: 0x3C }
  - { offset: 0x488B6, size: 0x8, addend: 0x0, symName: __ZNSt3__121__convert_to_integralB9nqe220108El, symObjAddr: 0xB64C, symBinAddr: 0x10001FD90, symSize: 0x14 }
  - { offset: 0x488E2, size: 0x8, addend: 0x0, symName: __ZNSt3__19__advanceB9nqe220108INS_11__wrap_iterIPKdEEEEvRT_NS_15iterator_traitsIS5_E15difference_typeENS_26random_access_iterator_tagE, symObjAddr: 0xB660, symBinAddr: 0x10001FDA4, symSize: 0x2C }
  - { offset: 0x48958, size: 0x8, addend: 0x0, symName: __ZNSt3__118generate_canonicalB9nqe220108IdLm53ENS_23mersenne_twister_engineIjLm32ELm624ELm397ELm31ELj2567483615ELm11ELj4294967295ELm7ELj2636928640ELm15ELj4022730752ELm18ELj1812433253EEEEET_RT1_, symObjAddr: 0xB81C, symBinAddr: 0x10001FF60, symSize: 0x10C }
  - { offset: 0x48A1E, size: 0x8, addend: 0x0, symName: __ZNSt3__13maxB9nqe220108IiNS_6__lessIvvEEEERKT_S5_S5_T0_, symObjAddr: 0xBB04, symBinAddr: 0x100020248, symSize: 0x54 }
  - { offset: 0x48A78, size: 0x8, addend: 0x0, symName: __ZNSt3__13minB9nqe220108IiNS_6__lessIvvEEEERKT_S5_S5_T0_, symObjAddr: 0xBB88, symBinAddr: 0x1000202CC, symSize: 0x54 }
  - { offset: 0x48AD3, size: 0x8, addend: 0x0, symName: '__ZNSt3__111__sort_implB9nqe220108INS_17_ClassicAlgPolicyEP14OPT_token_dataZ12sample_top_kP20OPT_token_data_arrayimE3$_0EEvT0_S7_RT1_', symObjAddr: 0xBBDC, symBinAddr: 0x100020320, symSize: 0x78 }
  - { offset: 0x48B37, size: 0x8, addend: 0x0, symName: '__ZNSt3__115__sort_dispatchB9nqe220108INS_17_ClassicAlgPolicyEP14OPT_token_dataZ12sample_top_kP20OPT_token_data_arrayimE3$_0EEvT0_S7_RT1_', symObjAddr: 0xBC54, symBinAddr: 0x100020398, symSize: 0x84 }
  - { offset: 0x48BB6, size: 0x8, addend: 0x0, symName: '__ZNSt3__135__check_strict_weak_ordering_sortedB9nqe220108IP14OPT_token_dataZ12sample_top_kP20OPT_token_data_arrayimE3$_0EEvT_S6_RT0_', symObjAddr: 0xBCD8, symBinAddr: 0x10002041C, symSize: 0x18 }
  - { offset: 0x48C0D, size: 0x8, addend: 0x0, symName: '__ZNSt3__17__sort3B9nqe220108INS_17_ClassicAlgPolicyERZ12sample_top_kP20OPT_token_data_arrayimE3$_0P14OPT_token_dataTnNS_9enable_ifIXnt21__use_branchless_sortIT0_T1_EEiE4typeELi0EEEbSA_SA_SA_S9_', symObjAddr: 0xC1F4, symBinAddr: 0x100020938, symSize: 0x13C }
  - { offset: 0x48C85, size: 0x8, addend: 0x0, symName: '__ZNSt3__17__sort4B9nqe220108INS_17_ClassicAlgPolicyERZ12sample_top_kP20OPT_token_data_arrayimE3$_0P14OPT_token_dataTnNS_9enable_ifIXnt21__use_branchless_sortIT0_T1_EEiE4typeELi0EEEvSA_SA_SA_SA_S9_', symObjAddr: 0xC330, symBinAddr: 0x100020A74, symSize: 0xB8 }
  - { offset: 0x48D07, size: 0x8, addend: 0x0, symName: '__ZNSt3__17__sort5B9nqe220108INS_17_ClassicAlgPolicyERZ12sample_top_kP20OPT_token_data_arrayimE3$_0P14OPT_token_dataTnNS_9enable_ifIXnt21__use_branchless_sortIT0_T1_EEiE4typeELi0EEEvSA_SA_SA_SA_SA_S9_', symObjAddr: 0xC3E8, symBinAddr: 0x100020B2C, symSize: 0xE8 }
  - { offset: 0x48D97, size: 0x8, addend: 0x0, symName: '__ZNSt3__116__insertion_sortB9nqe220108INS_17_ClassicAlgPolicyERZ12sample_top_kP20OPT_token_data_arrayimE3$_0P14OPT_token_dataEEvT1_S8_T0_', symObjAddr: 0xC4D0, symBinAddr: 0x100020C14, symSize: 0x15C }
  - { offset: 0x48E57, size: 0x8, addend: 0x0, symName: '__ZNSt3__114__partial_sortB9nqe220108INS_17_ClassicAlgPolicyERZ12sample_top_kP20OPT_token_data_arrayimE3$_0P14OPT_token_dataS7_EET1_S8_S8_T2_RT0_', symObjAddr: 0xC75C, symBinAddr: 0x100020EA0, symSize: 0x90 }
  - { offset: 0x48EE0, size: 0x8, addend: 0x0, symName: '__ZNSt3__119__partial_sort_implB9nqe220108INS_17_ClassicAlgPolicyERZ12sample_top_kP20OPT_token_data_arrayimE3$_0P14OPT_token_dataS7_EET1_S8_S8_T2_OT0_', symObjAddr: 0xD2F4, symBinAddr: 0x100021A38, symSize: 0x108 }
  - { offset: 0x48F77, size: 0x8, addend: 0x0, symName: '__ZNSt3__111__make_heapB9nqe220108INS_17_ClassicAlgPolicyERZ12sample_top_kP20OPT_token_data_arrayimE3$_0P14OPT_token_dataEEvT1_S8_OT0_', symObjAddr: 0xD3FC, symBinAddr: 0x100021B40, symSize: 0xB0 }
  - { offset: 0x49036, size: 0x8, addend: 0x0, symName: '__ZNSt3__111__sift_downB9nqe220108INS_17_ClassicAlgPolicyELb0ERZ12sample_top_kP20OPT_token_data_arrayimE3$_0P14OPT_token_dataEEvT2_OT1_NS_15iterator_traitsIS8_E15difference_typeESD_', symObjAddr: 0xD4AC, symBinAddr: 0x100021BF0, symSize: 0x280 }
  - { offset: 0x490E0, size: 0x8, addend: 0x0, symName: '__ZNSt3__111__sort_heapB9nqe220108INS_17_ClassicAlgPolicyERZ12sample_top_kP20OPT_token_data_arrayimE3$_0P14OPT_token_dataEEvT1_S8_OT0_', symObjAddr: 0xD72C, symBinAddr: 0x100021E70, symSize: 0xA4 }
  - { offset: 0x49183, size: 0x8, addend: 0x0, symName: '__ZNSt3__110__pop_heapB9nqe220108INS_17_ClassicAlgPolicyEZ12sample_top_kP20OPT_token_data_arrayimE3$_0P14OPT_token_dataEEvT1_S7_RT0_NS_15iterator_traitsIS7_E15difference_typeE', symObjAddr: 0xD7D0, symBinAddr: 0x100021F14, symSize: 0x10C }
  - { offset: 0x49234, size: 0x8, addend: 0x0, symName: '__ZNSt3__19__sift_upB9nqe220108INS_17_ClassicAlgPolicyERZ12sample_top_kP20OPT_token_data_arrayimE3$_0P14OPT_token_dataEEvT1_S8_OT0_NS_15iterator_traitsIS8_E15difference_typeE', symObjAddr: 0xD9E4, symBinAddr: 0x100022128, symSize: 0x138 }
  - { offset: 0x492E5, size: 0x8, addend: 0x0, symName: '__ZNSt3__122__populate_left_bitsetB9nqe220108IRZ12sample_top_kP20OPT_token_data_arrayimE3$_0P14OPT_token_dataS5_EEvT0_T_RT1_Ry', symObjAddr: 0xDB1C, symBinAddr: 0x100022260, symSize: 0xA4 }
  - { offset: 0x493A1, size: 0x8, addend: 0x0, symName: '__ZNSt3__123__populate_right_bitsetB9nqe220108IRZ12sample_top_kP20OPT_token_data_arrayimE3$_0P14OPT_token_dataS5_EEvT0_T_RT1_Ry', symObjAddr: 0xDBC0, symBinAddr: 0x100022304, symSize: 0x98 }
  - { offset: 0x4945D, size: 0x8, addend: 0x0, symName: '__ZNSt3__133__bitset_partition_partial_blocksB9nqe220108INS_17_ClassicAlgPolicyERZ12sample_top_kP20OPT_token_data_arrayimE3$_0P14OPT_token_dataS6_EEvRT1_S9_T0_RT2_RySD_', symObjAddr: 0xDC58, symBinAddr: 0x10002239C, symSize: 0x2AC }
  - { offset: 0x495DF, size: 0x8, addend: 0x0, symName: '__ZNSt3__114__partial_sortB9nqe220108INS_17_ClassicAlgPolicyEZ12sample_top_kP20OPT_token_data_arrayimE3$_0P14OPT_token_dataS6_EET1_S7_S7_T2_RT0_', symObjAddr: 0xDF04, symBinAddr: 0x100022648, symSize: 0x90 }
  - { offset: 0x49667, size: 0x8, addend: 0x0, symName: __ZNSt3__110__distanceB9nqe220108IP14OPT_token_dataTnNS_9enable_ifIXsr37__has_random_access_iterator_categoryIT_EE5valueEiE4typeELi0EEENS_15iterator_traitsIS4_E15difference_typeES4_S4_, symObjAddr: 0xDFC4, symBinAddr: 0x100022708, symSize: 0x28 }
  - { offset: 0x496B0, size: 0x8, addend: 0x0, symName: __ZNSt3__122__make_exception_guardB9nqe220108INS_6vectorIfNS_9allocatorIfEEE16__destroy_vectorEEENS_28__exception_guard_exceptionsIT_EES7_, symObjAddr: 0xE128, symBinAddr: 0x10002286C, symSize: 0x40 }
  - { offset: 0x496E5, size: 0x8, addend: 0x0, symName: __ZNSt3__122__make_exception_guardB9nqe220108INS_6vectorImNS_9allocatorImEEE16__destroy_vectorEEENS_28__exception_guard_exceptionsIT_EES7_, symObjAddr: 0xE4A8, symBinAddr: 0x100022BEC, symSize: 0x40 }
  - { offset: 0x4971A, size: 0x8, addend: 0x0, symName: __ZNSt3__119__allocate_at_leastB9nqe220108INS_9allocatorImEENS_16allocator_traitsIS2_EEEENS_19__allocation_resultINT0_7pointerENS6_9size_typeEEERT_m, symObjAddr: 0xE7A4, symBinAddr: 0x100022EE8, symSize: 0x44 }
  - { offset: 0x497B5, size: 0x8, addend: 0x0, symName: __ZNSt3__117__libcpp_allocateB9nqe220108ImEEPT_NS_15__element_countEm, symObjAddr: 0xE920, symBinAddr: 0x100023064, symSize: 0x34 }
  - { offset: 0x49806, size: 0x8, addend: 0x0, symName: __ZNSt3__131__annotate_contiguous_containerB9nqe220108INS_9allocatorImEEEEvPKvS4_S4_S4_, symObjAddr: 0xEA3C, symBinAddr: 0x100023180, symSize: 0x1C }
  - { offset: 0x49861, size: 0x8, addend: 0x0, symName: __ZNSt3__112__to_addressB9nqe220108ImEEPT_S2_, symObjAddr: 0xEA58, symBinAddr: 0x10002319C, symSize: 0x14 }
  - { offset: 0x49896, size: 0x8, addend: 0x0, symName: __ZNSt3__119__libcpp_deallocateB9nqe220108ImEEvPNS_15__type_identityIT_E4typeENS_15__element_countEm, symObjAddr: 0xEFCC, symBinAddr: 0x100023710, symSize: 0x38 }
  - { offset: 0x498F1, size: 0x8, addend: 0x0, symName: __ZNSt3__1neB9nqe220108IPmEEbRKNS_11__wrap_iterIT_EES6_, symObjAddr: 0xF0DC, symBinAddr: 0x100023820, symSize: 0x30 }
  - { offset: 0x49934, size: 0x8, addend: 0x0, symName: __ZNSt3__1eqB9nqe220108IPmEEbRKNS_11__wrap_iterIT_EES6_, symObjAddr: 0xF144, symBinAddr: 0x100023888, symSize: 0x44 }
  - { offset: 0x49978, size: 0x8, addend: 0x0, symName: '__ZNSt3__111__sort_implB9nqe220108INS_17_ClassicAlgPolicyENS_11__wrap_iterIPmEEZ14sample_typicalP20OPT_token_data_arrayfmE3$_0EEvT0_S8_RT1_', symObjAddr: 0xF1A0, symBinAddr: 0x1000238E4, symSize: 0xA8 }
  - { offset: 0x499DB, size: 0x8, addend: 0x0, symName: __ZNSt3__123__debug_randomize_rangeB9nqe220108INS_17_ClassicAlgPolicyENS_11__wrap_iterIPmEES4_EEvT0_T1_, symObjAddr: 0xF248, symBinAddr: 0x10002398C, symSize: 0x14 }
  - { offset: 0x49A2D, size: 0x8, addend: 0x0, symName: '__ZNSt3__115__sort_dispatchB9nqe220108INS_17_ClassicAlgPolicyEPmZ14sample_typicalP20OPT_token_data_arrayfmE3$_0EEvT0_S6_RT1_', symObjAddr: 0xF25C, symBinAddr: 0x1000239A0, symSize: 0x84 }
  - { offset: 0x49AAB, size: 0x8, addend: 0x0, symName: __ZNSt3__113__unwrap_iterB9nqe220108INS_11__wrap_iterIPmEENS_18__unwrap_iter_implIS3_Lb1EEETnNS_9enable_ifIXsr21is_copy_constructibleIT_EE5valueEiE4typeELi0EEEDTclsrT0_8__unwrapclsr3stdE7declvalIS7_EEEES7_, symObjAddr: 0xF2E0, symBinAddr: 0x100023A24, symSize: 0x2C }
  - { offset: 0x49AF0, size: 0x8, addend: 0x0, symName: '__ZNSt3__135__check_strict_weak_ordering_sortedB9nqe220108IPmZ14sample_typicalP20OPT_token_data_arrayfmE3$_0EEvT_S5_RT0_', symObjAddr: 0xF30C, symBinAddr: 0x100023A50, symSize: 0x18 }
  - { offset: 0x49B47, size: 0x8, addend: 0x0, symName: '__ZNSt3__17__sort3B9nqe220108INS_17_ClassicAlgPolicyERZ14sample_typicalP20OPT_token_data_arrayfmE3$_0PmTnNS_9enable_ifIXnt21__use_branchless_sortIT0_T1_EEiE4typeELi0EEEbS9_S9_S9_S8_', symObjAddr: 0xF85C, symBinAddr: 0x100023FA0, symSize: 0x164 }
  - { offset: 0x49BBF, size: 0x8, addend: 0x0, symName: '__ZNSt3__17__sort4B9nqe220108INS_17_ClassicAlgPolicyERZ14sample_typicalP20OPT_token_data_arrayfmE3$_0PmTnNS_9enable_ifIXnt21__use_branchless_sortIT0_T1_EEiE4typeELi0EEEvS9_S9_S9_S9_S8_', symObjAddr: 0xF9C0, symBinAddr: 0x100024104, symSize: 0xD0 }
  - { offset: 0x49C41, size: 0x8, addend: 0x0, symName: '__ZNSt3__17__sort5B9nqe220108INS_17_ClassicAlgPolicyERZ14sample_typicalP20OPT_token_data_arrayfmE3$_0PmTnNS_9enable_ifIXnt21__use_branchless_sortIT0_T1_EEiE4typeELi0EEEvS9_S9_S9_S9_S9_S8_', symObjAddr: 0xFA90, symBinAddr: 0x1000241D4, symSize: 0x108 }
  - { offset: 0x49CD1, size: 0x8, addend: 0x0, symName: '__ZNSt3__116__insertion_sortB9nqe220108INS_17_ClassicAlgPolicyERZ14sample_typicalP20OPT_token_data_arrayfmE3$_0PmEEvT1_S7_T0_', symObjAddr: 0xFB98, symBinAddr: 0x1000242DC, symSize: 0x150 }
  - { offset: 0x49D91, size: 0x8, addend: 0x0, symName: '__ZNSt3__114__partial_sortB9nqe220108INS_17_ClassicAlgPolicyERZ14sample_typicalP20OPT_token_data_arrayfmE3$_0PmS6_EET1_S7_S7_T2_RT0_', symObjAddr: 0xFE0C, symBinAddr: 0x100024550, symSize: 0x90 }
  - { offset: 0x49E19, size: 0x8, addend: 0x0, symName: __ZNSt3__19iter_swapB9nqe220108IPmS1_EEvT_T0_, symObjAddr: 0x109B8, symBinAddr: 0x1000250FC, symSize: 0x2C }
  - { offset: 0x49E61, size: 0x8, addend: 0x0, symName: __ZNSt3__14swapB9nqe220108ImEENS_9enable_ifIXaasr21is_move_constructibleIT_EE5valuesr18is_move_assignableIS2_EE5valueEvE4typeERS2_S5_, symObjAddr: 0x109E4, symBinAddr: 0x100025128, symSize: 0x3C }
  - { offset: 0x49EB2, size: 0x8, addend: 0x0, symName: __ZNSt3__123__debug_randomize_rangeB9nqe220108INS_17_ClassicAlgPolicyEPmS2_EEvT0_T1_, symObjAddr: 0x10A64, symBinAddr: 0x1000251A8, symSize: 0x14 }
  - { offset: 0x49F04, size: 0x8, addend: 0x0, symName: '__ZNSt3__119__partial_sort_implB9nqe220108INS_17_ClassicAlgPolicyERZ14sample_typicalP20OPT_token_data_arrayfmE3$_0PmS6_EET1_S7_S7_T2_OT0_', symObjAddr: 0x10A78, symBinAddr: 0x1000251BC, symSize: 0x110 }
  - { offset: 0x49F9B, size: 0x8, addend: 0x0, symName: '__ZNSt3__111__make_heapB9nqe220108INS_17_ClassicAlgPolicyERZ14sample_typicalP20OPT_token_data_arrayfmE3$_0PmEEvT1_S7_OT0_', symObjAddr: 0x10B88, symBinAddr: 0x1000252CC, symSize: 0xF0 }
  - { offset: 0x4A05A, size: 0x8, addend: 0x0, symName: '__ZNSt3__111__sift_downB9nqe220108INS_17_ClassicAlgPolicyELb0ERZ14sample_typicalP20OPT_token_data_arrayfmE3$_0PmEEvT2_OT1_NS_15iterator_traitsIS7_E15difference_typeESC_', symObjAddr: 0x10C78, symBinAddr: 0x1000253BC, symSize: 0x210 }
  - { offset: 0x4A104, size: 0x8, addend: 0x0, symName: '__ZNSt3__111__sort_heapB9nqe220108INS_17_ClassicAlgPolicyERZ14sample_typicalP20OPT_token_data_arrayfmE3$_0PmEEvT1_S7_OT0_', symObjAddr: 0x10E88, symBinAddr: 0x1000255CC, symSize: 0xA4 }
  - { offset: 0x4A1A7, size: 0x8, addend: 0x0, symName: '__ZNSt3__111__sift_downB9nqe220108INS_17_ClassicAlgPolicyELb1ERZ14sample_typicalP20OPT_token_data_arrayfmE3$_0PmEEvT2_OT1_NS_15iterator_traitsIS7_E15difference_typeESC_', symObjAddr: 0x10F2C, symBinAddr: 0x100025670, symSize: 0x1D8 }
  - { offset: 0x4A251, size: 0x8, addend: 0x0, symName: '__ZNSt3__19__sift_upB9nqe220108INS_17_ClassicAlgPolicyERZ14sample_typicalP20OPT_token_data_arrayfmE3$_0PmEEvT1_S7_OT0_NS_15iterator_traitsIS7_E15difference_typeE', symObjAddr: 0x11104, symBinAddr: 0x100025848, symSize: 0x11C }
  - { offset: 0x4A302, size: 0x8, addend: 0x0, symName: '__ZNSt3__110__pop_heapB9nqe220108INS_17_ClassicAlgPolicyEZ14sample_typicalP20OPT_token_data_arrayfmE3$_0PmEEvT1_S6_RT0_NS_15iterator_traitsIS6_E15difference_typeE', symObjAddr: 0x1124C, symBinAddr: 0x100025990, symSize: 0xEC }
  - { offset: 0x4A3B3, size: 0x8, addend: 0x0, symName: '__ZNSt3__122__populate_left_bitsetB9nqe220108IRZ14sample_typicalP20OPT_token_data_arrayfmE3$_0PmmEEvT0_T_RT1_Ry', symObjAddr: 0x11434, symBinAddr: 0x100025B78, symSize: 0xAC }
  - { offset: 0x4A46F, size: 0x8, addend: 0x0, symName: '__ZNSt3__123__populate_right_bitsetB9nqe220108IRZ14sample_typicalP20OPT_token_data_arrayfmE3$_0PmmEEvT0_T_RT1_Ry', symObjAddr: 0x114E0, symBinAddr: 0x100025C24, symSize: 0xA0 }
  - { offset: 0x4A52A, size: 0x8, addend: 0x0, symName: __ZNSt3__117__swap_bitmap_posB9nqe220108INS_17_ClassicAlgPolicyEPmEEvT0_S3_RyS4_, symObjAddr: 0x11580, symBinAddr: 0x100025CC4, symSize: 0xF8 }
  - { offset: 0x4A5CC, size: 0x8, addend: 0x0, symName: '__ZNSt3__133__bitset_partition_partial_blocksB9nqe220108INS_17_ClassicAlgPolicyERZ14sample_typicalP20OPT_token_data_arrayfmE3$_0PmmEEvRT1_S8_T0_RT2_RySC_', symObjAddr: 0x11678, symBinAddr: 0x100025DBC, symSize: 0x2B4 }
  - { offset: 0x4A74D, size: 0x8, addend: 0x0, symName: __ZNSt3__19make_pairB9nqe220108IRPmRbEENS_4pairINS_18__unwrap_referenceIu7__decayIT_EE4typeENS5_Iu7__decayIT0_EE4typeEEEOS6_OSA_, symObjAddr: 0x11AE4, symBinAddr: 0x100026228, symSize: 0x38 }
  - { offset: 0x4A93E, size: 0x8, addend: 0x0, symName: __ZNSt3__112__to_addressB9nqe220108INS_11__wrap_iterIPmEETnNS_9enable_ifIXsr4_AndINS_8is_classIT_EENS_15_IsFancyPointerIS6_EEEE5valueEiE4typeELi0EEEu7__decayIDTclsr19__to_address_helperIS6_EE6__callclsr3stdE7declvalIRKS6_EEEEESD_, symObjAddr: 0x11BEC, symBinAddr: 0x100026330, symSize: 0x24 }
  - { offset: 0x4A9A2, size: 0x8, addend: 0x0, symName: __ZNSt3__131__annotate_contiguous_containerB9nqe220108INS_9allocatorI14OPT_token_dataEEEEvPKvS5_S5_S5_, symObjAddr: 0x120D4, symBinAddr: 0x100026818, symSize: 0x1C }
  - { offset: 0x4A9FD, size: 0x8, addend: 0x0, symName: __ZNSt3__119__libcpp_deallocateB9nqe220108I14OPT_token_dataEEvPNS_15__type_identityIT_E4typeENS_15__element_countEm, symObjAddr: 0x12124, symBinAddr: 0x100026868, symSize: 0x3C }
  - { offset: 0x4AA58, size: 0x8, addend: 0x0, symName: __ZNSt3__116__if_likely_elseB9nqe220108IZNS_6vectorI14OPT_token_dataNS_9allocatorIS2_EEE12emplace_backIJRKS2_EEEvDpOT_EUlvE_ZNS6_IJS8_EEEvSB_EUlvE0_EEvbT_T0_, symObjAddr: 0x121E4, symBinAddr: 0x100026928, symSize: 0x58 }
  - { offset: 0x4AAB4, size: 0x8, addend: 0x0, symName: __ZNSt3__119__allocate_at_leastB9nqe220108INS_9allocatorI14OPT_token_dataEENS_16allocator_traitsIS3_EEEENS_19__allocation_resultINT0_7pointerENS7_9size_typeEEERT_m, symObjAddr: 0x12A80, symBinAddr: 0x1000271C4, symSize: 0x44 }
  - { offset: 0x4AB4F, size: 0x8, addend: 0x0, symName: __ZNSt3__117__libcpp_allocateB9nqe220108I14OPT_token_dataEEPT_NS_15__element_countEm, symObjAddr: 0x12BFC, symBinAddr: 0x100027340, symSize: 0x38 }
  - { offset: 0x4ABA0, size: 0x8, addend: 0x0, symName: __ZNSt3__134__uninitialized_allocator_relocateB9nqe220108INS_9allocatorI14OPT_token_dataEEPS2_EEvRT_T0_S7_S7_, symObjAddr: 0x12C78, symBinAddr: 0x1000273BC, symSize: 0x60 }
  - { offset: 0x4AC09, size: 0x8, addend: 0x0, symName: __ZNSt3__16__copyB9nqe220108INS_11__wrap_iterIP14OPT_token_dataEES4_S3_EENS_4pairIT_T1_EES6_T0_S7_, symObjAddr: 0x13070, symBinAddr: 0x1000277B4, symSize: 0x54 }
  - { offset: 0x4AC6C, size: 0x8, addend: 0x0, symName: __ZNSt3__124__copy_move_unwrap_itersB9nqe220108INS_11__copy_implENS_11__wrap_iterIP14OPT_token_dataEES5_S4_TnNS_9enable_ifIXsr12__can_rewrapIT0_T2_EE5valueEiE4typeELi0EEENS_4pairIS7_S8_EES7_T1_S8_, symObjAddr: 0x130C4, symBinAddr: 0x100027808, symSize: 0xCC }
  - { offset: 0x4ACFA, size: 0x8, addend: 0x0, symName: __ZNSt3__114__unwrap_rangeB9nqe220108INS_11__wrap_iterIP14OPT_token_dataEES3_EENS_4pairIT0_S6_EET_S8_, symObjAddr: 0x13190, symBinAddr: 0x1000278D4, symSize: 0x70 }
  - { offset: 0x4AE9D, size: 0x8, addend: 0x0, symName: __ZNSt3__19make_pairB9nqe220108INS_11__wrap_iterIP14OPT_token_dataEES3_EENS_4pairINS_18__unwrap_referenceIu7__decayIT_EE4typeENS6_Iu7__decayIT0_EE4typeEEEOS7_OSB_, symObjAddr: 0x13248, symBinAddr: 0x10002798C, symSize: 0x38 }
  - { offset: 0x4AEEC, size: 0x8, addend: 0x0, symName: __ZNSt3__114__rewrap_rangeB9nqe220108INS_11__wrap_iterIP14OPT_token_dataEES3_EET_S5_T0_, symObjAddr: 0x13280, symBinAddr: 0x1000279C4, symSize: 0x3C }
  - { offset: 0x4AF38, size: 0x8, addend: 0x0, symName: __ZNSt3__113__rewrap_iterB9nqe220108IP14OPT_token_dataS2_NS_18__unwrap_iter_implIS2_Lb1EEEEET_S5_T0_, symObjAddr: 0x132BC, symBinAddr: 0x100027A00, symSize: 0x3C }
  - { offset: 0x4AF8D, size: 0x8, addend: 0x0, symName: __ZNSt3__19make_pairB9nqe220108IP14OPT_token_dataS2_EENS_4pairINS_18__unwrap_referenceIu7__decayIT_EE4typeENS4_Iu7__decayIT0_EE4typeEEEOS5_OS9_, symObjAddr: 0x132F8, symBinAddr: 0x100027A3C, symSize: 0x38 }
  - { offset: 0x4AFDC, size: 0x8, addend: 0x0, symName: __ZNSt3__113__unwrap_iterB9nqe220108INS_11__wrap_iterIP14OPT_token_dataEENS_18__unwrap_iter_implIS4_Lb1EEETnNS_9enable_ifIXsr21is_copy_constructibleIT_EE5valueEiE4typeELi0EEEDTclsrT0_8__unwrapclsr3stdE7declvalIS8_EEEES8_, symObjAddr: 0x13330, symBinAddr: 0x100027A74, symSize: 0x2C }
  - { offset: 0x4B0E4, size: 0x8, addend: 0x0, symName: __ZNSt3__112__to_addressB9nqe220108INS_11__wrap_iterIP14OPT_token_dataEETnNS_9enable_ifIXsr4_AndINS_8is_classIT_EENS_15_IsFancyPointerIS7_EEEE5valueEiE4typeELi0EEEu7__decayIDTclsr19__to_address_helperIS7_EE6__callclsr3stdE7declvalIRKS7_EEEEESE_, symObjAddr: 0x133F4, symBinAddr: 0x100027B38, symSize: 0x24 }
  - { offset: 0x4B148, size: 0x8, addend: 0x0, symName: __ZNSt3__119__copy_trivial_implB9nqe220108I14OPT_token_dataS1_EENS_4pairIPT_PT0_EES4_S4_S6_, symObjAddr: 0x1348C, symBinAddr: 0x100027BD0, symSize: 0x88 }
  - { offset: 0x4B1B0, size: 0x8, addend: 0x0, symName: __ZNSt3__119__constexpr_memmoveB9nqe220108I14OPT_token_dataS1_EEPT_S3_PT0_NS_15__element_countE, symObjAddr: 0x13514, symBinAddr: 0x100027C58, symSize: 0x48 }
  - { offset: 0x4B218, size: 0x8, addend: 0x0, symName: __ZNSt3__19make_pairB9nqe220108IRP14OPT_token_dataS2_EENS_4pairINS_18__unwrap_referenceIu7__decayIT_EE4typeENS5_Iu7__decayIT0_EE4typeEEEOS6_OSA_, symObjAddr: 0x1355C, symBinAddr: 0x100027CA0, symSize: 0x38 }
  - { offset: 0x4B345, size: 0x8, addend: 0x0, symName: __ZNSt3__113__rewrap_iterB9nqe220108INS_11__wrap_iterIP14OPT_token_dataEES3_NS_18__unwrap_iter_implIS4_Lb1EEEEET_S7_T0_, symObjAddr: 0x13674, symBinAddr: 0x100027DB8, symSize: 0x4C }
  - { offset: 0x50A76, size: 0x8, addend: 0x0, symName: __Z25sample_repetition_penaltyP20OPT_token_data_arrayPKimf, symObjAddr: 0xA8, symBinAddr: 0x100014C28, symSize: 0x15C }
  - { offset: 0x50B00, size: 0x8, addend: 0x0, symName: __Z39sample_frequency_and_presence_penaltiesP20OPT_token_data_arrayPKimff, symObjAddr: 0x264, symBinAddr: 0x100014DE4, symSize: 0x1FC }
  - { offset: 0x50C65, size: 0x8, addend: 0x0, symName: __ZNSt3__113unordered_mapIiiNS_4hashIiEENS_8equal_toIiEENS_9allocatorINS_4pairIKiiEEEEEC1B9nqe220108Ev, symObjAddr: 0x460, symBinAddr: 0x100014FE0, symSize: 0x2C }
  - { offset: 0x50C8F, size: 0x8, addend: 0x0, symName: __ZNSt3__113unordered_mapIiiNS_4hashIiEENS_8equal_toIiEENS_9allocatorINS_4pairIKiiEEEEEixERS7_, symObjAddr: 0x48C, symBinAddr: 0x10001500C, symSize: 0xB4 }
  - { offset: 0x50CC6, size: 0x8, addend: 0x0, symName: __ZNSt3__113unordered_mapIiiNS_4hashIiEENS_8equal_toIiEENS_9allocatorINS_4pairIKiiEEEEE4findB9nqe220108ERS7_, symObjAddr: 0x540, symBinAddr: 0x1000150C0, symSize: 0x40 }
  - { offset: 0x50CFB, size: 0x8, addend: 0x0, symName: __ZNSt3__113unordered_mapIiiNS_4hashIiEENS_8equal_toIiEENS_9allocatorINS_4pairIKiiEEEEE3endB9nqe220108Ev, symObjAddr: 0x5AC, symBinAddr: 0x10001512C, symSize: 0x38 }
  - { offset: 0x50D21, size: 0x8, addend: 0x0, symName: __ZNKSt3__119__hash_map_iteratorINS_15__hash_iteratorIPNS_11__hash_nodeINS_17__hash_value_typeIiiEEPvEEEEEptB9nqe220108Ev, symObjAddr: 0x5E4, symBinAddr: 0x100015164, symSize: 0x28 }
  - { offset: 0x50D47, size: 0x8, addend: 0x0, symName: __ZNSt3__113unordered_mapIiiNS_4hashIiEENS_8equal_toIiEENS_9allocatorINS_4pairIKiiEEEEED1B9nqe220108Ev, symObjAddr: 0x60C, symBinAddr: 0x10001518C, symSize: 0x2C }
  - { offset: 0x50D74, size: 0x8, addend: 0x0, symName: __Z19sample_token_greedyP20OPT_token_data_array, symObjAddr: 0x638, symBinAddr: 0x1000151B8, symSize: 0x58 }
  - { offset: 0x50DE0, size: 0x8, addend: 0x0, symName: __Z18sample_temperatureP20OPT_token_data_arrayf, symObjAddr: 0x6C0, symBinAddr: 0x100015240, symSize: 0x70 }
  - { offset: 0x50E32, size: 0x8, addend: 0x0, symName: __Z14sample_softmaxP20OPT_token_data_array, symObjAddr: 0x730, symBinAddr: 0x1000152B0, symSize: 0x1A0 }
  - { offset: 0x50EEE, size: 0x8, addend: 0x0, symName: __Z12sample_tokenP20OPT_token_data_array, symObjAddr: 0x900, symBinAddr: 0x100015480, symSize: 0x170 }
  - { offset: 0x50F7E, size: 0x8, addend: 0x0, symName: __ZNSt3__16vectorIfNS_9allocatorIfEEEC1B9nqe220108Ev, symObjAddr: 0xA70, symBinAddr: 0x1000155F0, symSize: 0x2C }
  - { offset: 0x50FA8, size: 0x8, addend: 0x0, symName: __ZNSt3__16vectorIfNS_9allocatorIfEEE7reserveEm, symObjAddr: 0xA9C, symBinAddr: 0x10001561C, symSize: 0xD0 }
  - { offset: 0x50FF4, size: 0x8, addend: 0x0, symName: __ZNSt3__16vectorIfNS_9allocatorIfEEE9push_backB9nqe220108ERKf, symObjAddr: 0xB6C, symBinAddr: 0x1000156EC, symSize: 0x2C }
  - { offset: 0x51029, size: 0x8, addend: 0x0, symName: __ZNSt3__16vectorIfNS_9allocatorIfEEE5beginB9nqe220108Ev, symObjAddr: 0xB98, symBinAddr: 0x100015718, symSize: 0x40 }
  - { offset: 0x5104F, size: 0x8, addend: 0x0, symName: __ZNSt3__16vectorIfNS_9allocatorIfEEE3endB9nqe220108Ev, symObjAddr: 0xBD8, symBinAddr: 0x100015758, symSize: 0x40 }
  - { offset: 0x51099, size: 0x8, addend: 0x0, symName: __ZNSt3__121discrete_distributionIiEC1B9nqe220108INS_11__wrap_iterIPfEEEET_S6_, symObjAddr: 0xC18, symBinAddr: 0x100015798, symSize: 0x3C }
  - { offset: 0x510EE, size: 0x8, addend: 0x0, symName: __ZNSt3__121discrete_distributionIiEclB9nqe220108INS_23mersenne_twister_engineIjLm32ELm624ELm397ELm31ELj2567483615ELm11ELj4294967295ELm7ELj2636928640ELm15ELj4022730752ELm18ELj1812433253EEEEEiRT_, symObjAddr: 0xC54, symBinAddr: 0x1000157D4, symSize: 0x30 }
  - { offset: 0x5112B, size: 0x8, addend: 0x0, symName: __ZNSt3__121discrete_distributionIiED1Ev, symObjAddr: 0xC84, symBinAddr: 0x100015804, symSize: 0x2C }
  - { offset: 0x5115B, size: 0x8, addend: 0x0, symName: __ZNSt3__16vectorIfNS_9allocatorIfEEED1B9nqe220108Ev, symObjAddr: 0xCB0, symBinAddr: 0x100015830, symSize: 0x2C }
  - { offset: 0x51188, size: 0x8, addend: 0x0, symName: __Z12sample_top_kP20OPT_token_data_arrayim, symObjAddr: 0xCDC, symBinAddr: 0x10001585C, symSize: 0x118 }
  - { offset: 0x5120C, size: 0x8, addend: 0x0, symName: __Z21sample_token_mirostatiP20OPT_token_data_arrayffiPf, symObjAddr: 0xEB4, symBinAddr: 0x100015A34, symSize: 0x294 }
  - { offset: 0x51381, size: 0x8, addend: 0x0, symName: __Z24sample_token_mirostat_v2P20OPT_token_data_arrayffPf, symObjAddr: 0x11E0, symBinAddr: 0x100015D60, symSize: 0x14C }
  - { offset: 0x51465, size: 0x8, addend: 0x0, symName: __Z16sample_tail_freeP20OPT_token_data_arrayfm, symObjAddr: 0x1404, symBinAddr: 0x100015F84, symSize: 0x3B4 }
  - { offset: 0x515BD, size: 0x8, addend: 0x0, symName: __ZNSt3__16vectorIfNS_9allocatorIfEEEC1B9nqe220108Em, symObjAddr: 0x17B8, symBinAddr: 0x100016338, symSize: 0x34 }
  - { offset: 0x515F5, size: 0x8, addend: 0x0, symName: __ZNKSt3__16vectorIfNS_9allocatorIfEEE4sizeB9nqe220108Ev, symObjAddr: 0x17EC, symBinAddr: 0x10001636C, symSize: 0x28 }
  - { offset: 0x5161B, size: 0x8, addend: 0x0, symName: __ZNSt3__16vectorIfNS_9allocatorIfEEEixB9nqe220108Em, symObjAddr: 0x1814, symBinAddr: 0x100016394, symSize: 0x24 }
  - { offset: 0x51650, size: 0x8, addend: 0x0, symName: __ZNKSt3__111__wrap_iterIPfEdeB9nqe220108Ev, symObjAddr: 0x18F0, symBinAddr: 0x100016470, symSize: 0x18 }
  - { offset: 0x51676, size: 0x8, addend: 0x0, symName: __ZNSt3__111__wrap_iterIPfEppB9nqe220108Ev, symObjAddr: 0x1908, symBinAddr: 0x100016488, symSize: 0x20 }
  - { offset: 0x5169B, size: 0x8, addend: 0x0, symName: __Z14sample_typicalP20OPT_token_data_arrayfm, symObjAddr: 0x1928, symBinAddr: 0x1000164A8, symSize: 0x3CC }
  - { offset: 0x51820, size: 0x8, addend: 0x0, symName: __ZNSt3__16vectorImNS_9allocatorImEEEC1B9nqe220108Em, symObjAddr: 0x1CF4, symBinAddr: 0x100016874, symSize: 0x34 }
  - { offset: 0x51858, size: 0x8, addend: 0x0, symName: __ZNSt3__16vectorImNS_9allocatorImEEE5beginB9nqe220108Ev, symObjAddr: 0x1D98, symBinAddr: 0x100016918, symSize: 0x40 }
  - { offset: 0x5187E, size: 0x8, addend: 0x0, symName: __ZNSt3__16vectorImNS_9allocatorImEEE3endB9nqe220108Ev, symObjAddr: 0x1DD8, symBinAddr: 0x100016958, symSize: 0x40 }
  - { offset: 0x518A4, size: 0x8, addend: 0x0, symName: __ZNKSt3__16vectorImNS_9allocatorImEEE4sizeB9nqe220108Ev, symObjAddr: 0x1E60, symBinAddr: 0x1000169E0, symSize: 0x28 }
  - { offset: 0x518CA, size: 0x8, addend: 0x0, symName: __ZNSt3__16vectorImNS_9allocatorImEEEixB9nqe220108Em, symObjAddr: 0x1E88, symBinAddr: 0x100016A08, symSize: 0x24 }
  - { offset: 0x518FF, size: 0x8, addend: 0x0, symName: __ZNSt3__16vectorI14OPT_token_dataNS_9allocatorIS1_EEEC1B9nqe220108Ev, symObjAddr: 0x1EAC, symBinAddr: 0x100016A2C, symSize: 0x2C }
  - { offset: 0x51929, size: 0x8, addend: 0x0, symName: __ZNSt3__16vectorI14OPT_token_dataNS_9allocatorIS1_EEE9push_backB9nqe220108ERKS1_, symObjAddr: 0x1ED8, symBinAddr: 0x100016A58, symSize: 0x2C }
  - { offset: 0x5195E, size: 0x8, addend: 0x0, symName: __ZNSt3__16vectorI14OPT_token_dataNS_9allocatorIS1_EEE5beginB9nqe220108Ev, symObjAddr: 0x1F54, symBinAddr: 0x100016AD4, symSize: 0x40 }
  - { offset: 0x51984, size: 0x8, addend: 0x0, symName: __ZNSt3__16vectorI14OPT_token_dataNS_9allocatorIS1_EEE3endB9nqe220108Ev, symObjAddr: 0x1F94, symBinAddr: 0x100016B14, symSize: 0x40 }
  - { offset: 0x519AA, size: 0x8, addend: 0x0, symName: __ZNKSt3__16vectorI14OPT_token_dataNS_9allocatorIS1_EEE4sizeB9nqe220108Ev, symObjAddr: 0x1FD4, symBinAddr: 0x100016B54, symSize: 0x28 }
  - { offset: 0x519D0, size: 0x8, addend: 0x0, symName: __ZNSt3__16vectorI14OPT_token_dataNS_9allocatorIS1_EEED1B9nqe220108Ev, symObjAddr: 0x1FFC, symBinAddr: 0x100016B7C, symSize: 0x2C }
  - { offset: 0x519FE, size: 0x8, addend: 0x0, symName: __ZNSt3__16vectorImNS_9allocatorImEEED1B9nqe220108Ev, symObjAddr: 0x2028, symBinAddr: 0x100016BA8, symSize: 0x2C }
  - { offset: 0x51A2B, size: 0x8, addend: 0x0, symName: __Z12sample_top_pP20OPT_token_data_arrayfm, symObjAddr: 0x2054, symBinAddr: 0x100016BD4, symSize: 0xF4 }
  - { offset: 0x51AAF, size: 0x8, addend: 0x0, symName: __ZNSt3__121discrete_distributionIiED2Ev, symObjAddr: 0x21C0, symBinAddr: 0x100016CC8, symSize: 0x2C }
  - { offset: 0x51ADF, size: 0x8, addend: 0x0, symName: __ZNSt3__121discrete_distributionIiE10param_typeD1Ev, symObjAddr: 0x21EC, symBinAddr: 0x100016CF4, symSize: 0x2C }
  - { offset: 0x51B0F, size: 0x8, addend: 0x0, symName: __ZNSt3__121discrete_distributionIiE10param_typeD2Ev, symObjAddr: 0x2218, symBinAddr: 0x100016D20, symSize: 0x2C }
  - { offset: 0x51B3F, size: 0x8, addend: 0x0, symName: __ZNSt3__16vectorIdNS_9allocatorIdEEED1B9nqe220108Ev, symObjAddr: 0x2244, symBinAddr: 0x100016D4C, symSize: 0x2C }
  - { offset: 0x51B6D, size: 0x8, addend: 0x0, symName: __ZNSt3__16vectorIdNS_9allocatorIdEEED2B9nqe220108Ev, symObjAddr: 0x2270, symBinAddr: 0x100016D78, symSize: 0x44 }
  - { offset: 0x51B9B, size: 0x8, addend: 0x0, symName: __ZNSt3__16vectorIdNS_9allocatorIdEEE16__destroy_vectorC1B9nqe220108ERS3_, symObjAddr: 0x22B4, symBinAddr: 0x100016DBC, symSize: 0x34 }
  - { offset: 0x51BD3, size: 0x8, addend: 0x0, symName: __ZNSt3__16vectorIdNS_9allocatorIdEEE16__destroy_vectorclB9nqe220108Ev, symObjAddr: 0x22F8, symBinAddr: 0x100016DF0, symSize: 0x84 }
  - { offset: 0x51BF9, size: 0x8, addend: 0x0, symName: __ZNSt3__16vectorIdNS_9allocatorIdEEE16__destroy_vectorC2B9nqe220108ERS3_, symObjAddr: 0x237C, symBinAddr: 0x100016E74, symSize: 0x20 }
  - { offset: 0x51C31, size: 0x8, addend: 0x0, symName: __ZNSt3__16vectorIdNS_9allocatorIdEEE5clearB9nqe220108Ev, symObjAddr: 0x239C, symBinAddr: 0x100016E94, symSize: 0x48 }
  - { offset: 0x51C66, size: 0x8, addend: 0x0, symName: __ZNKSt3__16vectorIdNS_9allocatorIdEEE17__annotate_deleteB9nqe220108Ev, symObjAddr: 0x23E4, symBinAddr: 0x100016EDC, symSize: 0x80 }
  - { offset: 0x51C8C, size: 0x8, addend: 0x0, symName: __ZNSt3__116allocator_traitsINS_9allocatorIdEEE10deallocateB9nqe220108ERS2_Pdm, symObjAddr: 0x2464, symBinAddr: 0x100016F5C, symSize: 0x34 }
  - { offset: 0x51CCE, size: 0x8, addend: 0x0, symName: __ZNKSt3__16vectorIdNS_9allocatorIdEEE8capacityB9nqe220108Ev, symObjAddr: 0x2498, symBinAddr: 0x100016F90, symSize: 0x28 }
  - { offset: 0x51CF4, size: 0x8, addend: 0x0, symName: __ZNKSt3__16vectorIdNS_9allocatorIdEEE4sizeB9nqe220108Ev, symObjAddr: 0x24C0, symBinAddr: 0x100016FB8, symSize: 0x28 }
  - { offset: 0x51D1A, size: 0x8, addend: 0x0, symName: __ZNSt3__16vectorIdNS_9allocatorIdEEE22__base_destruct_at_endB9nqe220108EPd, symObjAddr: 0x24E8, symBinAddr: 0x100016FE0, symSize: 0x88 }
  - { offset: 0x51D5E, size: 0x8, addend: 0x0, symName: __ZNKSt3__16vectorIdNS_9allocatorIdEEE17__annotate_shrinkB9nqe220108Em, symObjAddr: 0x2570, symBinAddr: 0x100017068, symSize: 0x7C }
  - { offset: 0x51D93, size: 0x8, addend: 0x0, symName: __ZNSt3__116allocator_traitsINS_9allocatorIdEEE7destroyB9nqe220108IdTnNS_9enable_ifIX15__has_destroy_vIS2_PT_EEiE4typeELi0EEEvRS2_S7_, symObjAddr: 0x25EC, symBinAddr: 0x1000170E4, symSize: 0x2C }
  - { offset: 0x51DD5, size: 0x8, addend: 0x0, symName: __ZNSt3__19allocatorIdE7destroyB9nqe220108EPd, symObjAddr: 0x262C, symBinAddr: 0x100017124, symSize: 0x14 }
  - { offset: 0x51E09, size: 0x8, addend: 0x0, symName: __ZNKSt3__16vectorIdNS_9allocatorIdEEE31__annotate_contiguous_containerB9nqe220108EPKvS5_, symObjAddr: 0x2640, symBinAddr: 0x100017138, symSize: 0x6C }
  - { offset: 0x51E4D, size: 0x8, addend: 0x0, symName: __ZNKSt3__16vectorIdNS_9allocatorIdEEE4dataB9nqe220108Ev, symObjAddr: 0x26AC, symBinAddr: 0x1000171A4, symSize: 0x28 }
  - { offset: 0x51E73, size: 0x8, addend: 0x0, symName: __ZNSt3__19allocatorIdE10deallocateB9nqe220108EPdm, symObjAddr: 0x26F0, symBinAddr: 0x1000171E8, symSize: 0x34 }
  - { offset: 0x51EB5, size: 0x8, addend: 0x0, symName: __ZNKSt3__111__wrap_iterIPfE4baseB9nqe220108Ev, symObjAddr: 0x27A0, symBinAddr: 0x100017298, symSize: 0x18 }
  - { offset: 0x51EDB, size: 0x8, addend: 0x0, symName: __ZNSt3__118__unwrap_iter_implIPKiLb1EE8__rewrapB9nqe220108ES2_S2_, symObjAddr: 0x29D4, symBinAddr: 0x100017388, symSize: 0x50 }
  - { offset: 0x51F0C, size: 0x8, addend: 0x0, symName: __ZNSt3__118__unwrap_iter_implIPKiLb1EE8__unwrapB9nqe220108ES2_, symObjAddr: 0x2A78, symBinAddr: 0x10001742C, symSize: 0x24 }
  - { offset: 0x51F2F, size: 0x8, addend: 0x0, symName: __ZNSt3__113unordered_mapIiiNS_4hashIiEENS_8equal_toIiEENS_9allocatorINS_4pairIKiiEEEEEC2B9nqe220108Ev, symObjAddr: 0x2A9C, symBinAddr: 0x100017450, symSize: 0x2C }
  - { offset: 0x51F59, size: 0x8, addend: 0x0, symName: __ZNSt3__112__hash_tableINS_17__hash_value_typeIiiEENS_22__unordered_map_hasherIiNS_4pairIKiiEENS_4hashIiEENS_8equal_toIiEEEENS_21__unordered_map_equalIiS6_SA_S8_EENS_9allocatorIS6_EEEC1Ev, symObjAddr: 0x2AC8, symBinAddr: 0x10001747C, symSize: 0x2C }
  - { offset: 0x51F85, size: 0x8, addend: 0x0, symName: __ZNSt3__112__hash_tableINS_17__hash_value_typeIiiEENS_22__unordered_map_hasherIiNS_4pairIKiiEENS_4hashIiEENS_8equal_toIiEEEENS_21__unordered_map_equalIiS6_SA_S8_EENS_9allocatorIS6_EEEC2Ev, symObjAddr: 0x2AF4, symBinAddr: 0x1000174A8, symSize: 0x5C }
  - { offset: 0x51FB1, size: 0x8, addend: 0x0, symName: __ZNSt3__110unique_ptrIA_PNS_16__hash_node_baseIPNS_11__hash_nodeINS_17__hash_value_typeIiiEEPvEEEENS_25__bucket_list_deallocatorINS_9allocatorIS9_EEEEEC1B9nqe220108ILb1EvEEv, symObjAddr: 0x2B50, symBinAddr: 0x100017504, symSize: 0x2C }
  - { offset: 0x51FE6, size: 0x8, addend: 0x0, symName: __ZNSt3__116__hash_node_baseIPNS_11__hash_nodeINS_17__hash_value_typeIiiEEPvEEEC1B9nqe220108Ev, symObjAddr: 0x2B7C, symBinAddr: 0x100017530, symSize: 0x2C }
  - { offset: 0x52010, size: 0x8, addend: 0x0, symName: __ZNSt3__122__unordered_map_hasherIiNS_4pairIKiiEENS_4hashIiEENS_8equal_toIiEEEC1B9nqe220108Ev, symObjAddr: 0x2BA8, symBinAddr: 0x10001755C, symSize: 0x2C }
  - { offset: 0x5203A, size: 0x8, addend: 0x0, symName: __ZNSt3__121__unordered_map_equalIiNS_4pairIKiiEENS_8equal_toIiEENS_4hashIiEEEC1B9nqe220108Ev, symObjAddr: 0x2BD4, symBinAddr: 0x100017588, symSize: 0x2C }
  - { offset: 0x52064, size: 0x8, addend: 0x0, symName: __ZNSt3__110unique_ptrIA_PNS_16__hash_node_baseIPNS_11__hash_nodeINS_17__hash_value_typeIiiEEPvEEEENS_25__bucket_list_deallocatorINS_9allocatorIS9_EEEEEC2B9nqe220108ILb1EvEEv, symObjAddr: 0x2C00, symBinAddr: 0x1000175B4, symSize: 0x34 }
  - { offset: 0x52099, size: 0x8, addend: 0x0, symName: __ZNSt3__125__bucket_list_deallocatorINS_9allocatorIPNS_16__hash_node_baseIPNS_11__hash_nodeINS_17__hash_value_typeIiiEEPvEEEEEEEC1B9nqe220108Ev, symObjAddr: 0x2C34, symBinAddr: 0x1000175E8, symSize: 0x2C }
  - { offset: 0x520C3, size: 0x8, addend: 0x0, symName: __ZNSt3__125__bucket_list_deallocatorINS_9allocatorIPNS_16__hash_node_baseIPNS_11__hash_nodeINS_17__hash_value_typeIiiEEPvEEEEEEEC2B9nqe220108Ev, symObjAddr: 0x2C60, symBinAddr: 0x100017614, symSize: 0x18 }
  - { offset: 0x520ED, size: 0x8, addend: 0x0, symName: __ZNSt3__116__hash_node_baseIPNS_11__hash_nodeINS_17__hash_value_typeIiiEEPvEEEC2B9nqe220108Ev, symObjAddr: 0x2C78, symBinAddr: 0x10001762C, symSize: 0x18 }
  - { offset: 0x52117, size: 0x8, addend: 0x0, symName: __ZNSt3__122__unordered_map_hasherIiNS_4pairIKiiEENS_4hashIiEENS_8equal_toIiEEEC2B9nqe220108Ev, symObjAddr: 0x2C90, symBinAddr: 0x100017644, symSize: 0x14 }
  - { offset: 0x52141, size: 0x8, addend: 0x0, symName: __ZNSt3__121__unordered_map_equalIiNS_4pairIKiiEENS_8equal_toIiEENS_4hashIiEEEC2B9nqe220108Ev, symObjAddr: 0x2CA4, symBinAddr: 0x100017658, symSize: 0x14 }
  - { offset: 0x5216B, size: 0x8, addend: 0x0, symName: __ZNSt3__113unordered_mapIiiNS_4hashIiEENS_8equal_toIiEENS_9allocatorINS_4pairIKiiEEEEED2B9nqe220108Ev, symObjAddr: 0x2CB8, symBinAddr: 0x10001766C, symSize: 0x2C }
  - { offset: 0x52199, size: 0x8, addend: 0x0, symName: __ZNSt3__112__hash_tableINS_17__hash_value_typeIiiEENS_22__unordered_map_hasherIiNS_4pairIKiiEENS_4hashIiEENS_8equal_toIiEEEENS_21__unordered_map_equalIiS6_SA_S8_EENS_9allocatorIS6_EEED1Ev, symObjAddr: 0x2CE4, symBinAddr: 0x100017698, symSize: 0x2C }
  - { offset: 0x521C9, size: 0x8, addend: 0x0, symName: __ZNSt3__112__hash_tableINS_17__hash_value_typeIiiEENS_22__unordered_map_hasherIiNS_4pairIKiiEENS_4hashIiEENS_8equal_toIiEEEENS_21__unordered_map_equalIiS6_SA_S8_EENS_9allocatorIS6_EEED2Ev, symObjAddr: 0x2D10, symBinAddr: 0x1000176C4, symSize: 0x38 }
  - { offset: 0x521F9, size: 0x8, addend: 0x0, symName: __ZNSt3__112__hash_tableINS_17__hash_value_typeIiiEENS_22__unordered_map_hasherIiNS_4pairIKiiEENS_4hashIiEENS_8equal_toIiEEEENS_21__unordered_map_equalIiS6_SA_S8_EENS_9allocatorIS6_EEE22__deallocate_node_listB9nqe220108EPNS_16__hash_node_baseIPNS_11__hash_nodeIS2_PvEEEE, symObjAddr: 0x2D48, symBinAddr: 0x1000176FC, symSize: 0x64 }
  - { offset: 0x5224B, size: 0x8, addend: 0x0, symName: __ZNSt3__110unique_ptrIA_PNS_16__hash_node_baseIPNS_11__hash_nodeINS_17__hash_value_typeIiiEEPvEEEENS_25__bucket_list_deallocatorINS_9allocatorIS9_EEEEED1B9nqe220108Ev, symObjAddr: 0x2DAC, symBinAddr: 0x100017760, symSize: 0x2C }
  - { offset: 0x52279, size: 0x8, addend: 0x0, symName: __ZNSt3__112__hash_tableINS_17__hash_value_typeIiiEENS_22__unordered_map_hasherIiNS_4pairIKiiEENS_4hashIiEENS_8equal_toIiEEEENS_21__unordered_map_equalIiS6_SA_S8_EENS_9allocatorIS6_EEE17__deallocate_nodeB9nqe220108EPNS_11__hash_nodeIS2_PvEE, symObjAddr: 0x2DD8, symBinAddr: 0x10001778C, symSize: 0x78 }
  - { offset: 0x522BD, size: 0x8, addend: 0x0, symName: __ZNSt3__116__hash_node_baseIPNS_11__hash_nodeINS_17__hash_value_typeIiiEEPvEEE8__upcastB9nqe220108Ev, symObjAddr: 0x2E50, symBinAddr: 0x100017804, symSize: 0x24 }
  - { offset: 0x522E3, size: 0x8, addend: 0x0, symName: __ZNSt3__112__hash_tableINS_17__hash_value_typeIiiEENS_22__unordered_map_hasherIiNS_4pairIKiiEENS_4hashIiEENS_8equal_toIiEEEENS_21__unordered_map_equalIiS6_SA_S8_EENS_9allocatorIS6_EEE12__node_allocB9nqe220108Ev, symObjAddr: 0x2E74, symBinAddr: 0x100017828, symSize: 0x18 }
  - { offset: 0x52309, size: 0x8, addend: 0x0, symName: __ZNSt3__116allocator_traitsINS_9allocatorINS_11__hash_nodeINS_17__hash_value_typeIiiEEPvEEEEE7destroyB9nqe220108INS_4pairIKiiEETnNS_9enable_ifIXnt15__has_destroy_vIS7_PT_EEiE4typeELi0EEEvRS7_SF_, symObjAddr: 0x2E8C, symBinAddr: 0x100017840, symSize: 0x28 }
  - { offset: 0x52347, size: 0x8, addend: 0x0, symName: __ZNSt3__111__hash_nodeINS_17__hash_value_typeIiiEEPvE11__get_valueB9nqe220108Ev, symObjAddr: 0x2EB4, symBinAddr: 0x100017868, symSize: 0x18 }
  - { offset: 0x5236D, size: 0x8, addend: 0x0, symName: __ZNSt3__116allocator_traitsINS_9allocatorINS_11__hash_nodeINS_17__hash_value_typeIiiEEPvEEEEE10deallocateB9nqe220108ERS7_PS6_m, symObjAddr: 0x2F04, symBinAddr: 0x1000178B8, symSize: 0x34 }
  - { offset: 0x523AF, size: 0x8, addend: 0x0, symName: __ZNSt3__111__hash_nodeINS_17__hash_value_typeIiiEEPvED1B9nqe220108Ev, symObjAddr: 0x2F48, symBinAddr: 0x1000178FC, symSize: 0x2C }
  - { offset: 0x523DD, size: 0x8, addend: 0x0, symName: __ZNSt3__111__hash_nodeINS_17__hash_value_typeIiiEEPvED2B9nqe220108Ev, symObjAddr: 0x2F74, symBinAddr: 0x100017928, symSize: 0x14 }
  - { offset: 0x5240B, size: 0x8, addend: 0x0, symName: __ZNSt3__19allocatorINS_11__hash_nodeINS_17__hash_value_typeIiiEEPvEEE10deallocateB9nqe220108EPS5_m, symObjAddr: 0x2F88, symBinAddr: 0x10001793C, symSize: 0x34 }
  - { offset: 0x52453, size: 0x8, addend: 0x0, symName: __ZNSt3__114pointer_traitsIPNS_16__hash_node_baseIPNS_11__hash_nodeINS_17__hash_value_typeIiiEEPvEEEEE10pointer_toB9nqe220108ERS8_, symObjAddr: 0x2FF8, symBinAddr: 0x1000179AC, symSize: 0x14 }
  - { offset: 0x52476, size: 0x8, addend: 0x0, symName: __ZNSt3__110unique_ptrIA_PNS_16__hash_node_baseIPNS_11__hash_nodeINS_17__hash_value_typeIiiEEPvEEEENS_25__bucket_list_deallocatorINS_9allocatorIS9_EEEEED2B9nqe220108Ev, symObjAddr: 0x300C, symBinAddr: 0x1000179C0, symSize: 0x30 }
  - { offset: 0x524A4, size: 0x8, addend: 0x0, symName: __ZNSt3__110unique_ptrIA_PNS_16__hash_node_baseIPNS_11__hash_nodeINS_17__hash_value_typeIiiEEPvEEEENS_25__bucket_list_deallocatorINS_9allocatorIS9_EEEEE5resetB9nqe220108EDn, symObjAddr: 0x303C, symBinAddr: 0x1000179F0, symSize: 0x54 }
  - { offset: 0x524E4, size: 0x8, addend: 0x0, symName: __ZNSt3__125__bucket_list_deallocatorINS_9allocatorIPNS_16__hash_node_baseIPNS_11__hash_nodeINS_17__hash_value_typeIiiEEPvEEEEEEEclB9nqe220108EPSA_, symObjAddr: 0x3090, symBinAddr: 0x100017A44, symSize: 0x58 }
  - { offset: 0x52519, size: 0x8, addend: 0x0, symName: __ZNSt3__116allocator_traitsINS_9allocatorIPNS_16__hash_node_baseIPNS_11__hash_nodeINS_17__hash_value_typeIiiEEPvEEEEEEE10deallocateB9nqe220108ERSB_PSA_m, symObjAddr: 0x30E8, symBinAddr: 0x100017A9C, symSize: 0x34 }
  - { offset: 0x5255B, size: 0x8, addend: 0x0, symName: __ZNSt3__125__bucket_list_deallocatorINS_9allocatorIPNS_16__hash_node_baseIPNS_11__hash_nodeINS_17__hash_value_typeIiiEEPvEEEEEEE7__allocB9nqe220108Ev, symObjAddr: 0x311C, symBinAddr: 0x100017AD0, symSize: 0x14 }
  - { offset: 0x52581, size: 0x8, addend: 0x0, symName: __ZNSt3__125__bucket_list_deallocatorINS_9allocatorIPNS_16__hash_node_baseIPNS_11__hash_nodeINS_17__hash_value_typeIiiEEPvEEEEEEE4sizeB9nqe220108Ev, symObjAddr: 0x3130, symBinAddr: 0x100017AE4, symSize: 0x14 }
  - { offset: 0x525A7, size: 0x8, addend: 0x0, symName: __ZNSt3__19allocatorIPNS_16__hash_node_baseIPNS_11__hash_nodeINS_17__hash_value_typeIiiEEPvEEEEE10deallocateB9nqe220108EPS9_m, symObjAddr: 0x3144, symBinAddr: 0x100017AF8, symSize: 0x34 }
  - { offset: 0x525FB, size: 0x8, addend: 0x0, symName: __ZNSt3__112__hash_tableINS_17__hash_value_typeIiiEENS_22__unordered_map_hasherIiNS_4pairIKiiEENS_4hashIiEENS_8equal_toIiEEEENS_21__unordered_map_equalIiS6_SA_S8_EENS_9allocatorIS6_EEE16__emplace_uniqueB9nqe220108IJRKNS_21piecewise_construct_tENS_5tupleIJRS5_EEENSL_IJEEEEEENS4_INS_15__hash_iteratorIPNS_11__hash_nodeIS2_PvEEEEbEEDpOT_, symObjAddr: 0x31B0, symBinAddr: 0x100017B64, symSize: 0xAC }
  - { offset: 0x526D6, size: 0x8, addend: 0x0, symName: __ZNKSt3__115__hash_iteratorIPNS_11__hash_nodeINS_17__hash_value_typeIiiEEPvEEEptB9nqe220108Ev, symObjAddr: 0x328C, symBinAddr: 0x100017C3C, symSize: 0x30 }
  - { offset: 0x52716, size: 0x8, addend: 0x0, symName: __ZZNSt3__112__hash_tableINS_17__hash_value_typeIiiEENS_22__unordered_map_hasherIiNS_4pairIKiiEENS_4hashIiEENS_8equal_toIiEEEENS_21__unordered_map_equalIiS6_SA_S8_EENS_9allocatorIS6_EEE16__emplace_uniqueB9nqe220108IJRKNS_21piecewise_construct_tENS_5tupleIJRS5_EEENSL_IJEEEEEENS4_INS_15__hash_iteratorIPNS_11__hash_nodeIS2_PvEEEEbEEDpOT_ENKUlSM_SK_OSN_OSO_E_clESM_SK_SZ_S10_, symObjAddr: 0x3424, symBinAddr: 0x100017DD4, symSize: 0x49C }
  - { offset: 0x52805, size: 0x8, addend: 0x0, symName: __ZNSt3__112__hash_tableINS_17__hash_value_typeIiiEENS_22__unordered_map_hasherIiNS_4pairIKiiEENS_4hashIiEENS_8equal_toIiEEEENS_21__unordered_map_equalIiS6_SA_S8_EENS_9allocatorIS6_EEE13hash_functionB9nqe220108Ev, symObjAddr: 0x38E4, symBinAddr: 0x100018294, symSize: 0x18 }
  - { offset: 0x5282B, size: 0x8, addend: 0x0, symName: __ZNKSt3__122__unordered_map_hasherIiNS_4pairIKiiEENS_4hashIiEENS_8equal_toIiEEEclB9nqe220108ERS2_, symObjAddr: 0x38FC, symBinAddr: 0x1000182AC, symSize: 0x30 }
  - { offset: 0x52860, size: 0x8, addend: 0x0, symName: __ZNKSt3__112__hash_tableINS_17__hash_value_typeIiiEENS_22__unordered_map_hasherIiNS_4pairIKiiEENS_4hashIiEENS_8equal_toIiEEEENS_21__unordered_map_equalIiS6_SA_S8_EENS_9allocatorIS6_EEE12bucket_countB9nqe220108Ev, symObjAddr: 0x392C, symBinAddr: 0x1000182DC, symSize: 0x28 }
  - { offset: 0x52886, size: 0x8, addend: 0x0, symName: __ZNKSt3__110unique_ptrIA_PNS_16__hash_node_baseIPNS_11__hash_nodeINS_17__hash_value_typeIiiEEPvEEEENS_25__bucket_list_deallocatorINS_9allocatorIS9_EEEEEixB9nqe220108Em, symObjAddr: 0x39E4, symBinAddr: 0x100018304, symSize: 0x24 }
  - { offset: 0x528BB, size: 0x8, addend: 0x0, symName: __ZNKSt3__116__hash_node_baseIPNS_11__hash_nodeINS_17__hash_value_typeIiiEEPvEEE6__hashB9nqe220108Ev, symObjAddr: 0x3A08, symBinAddr: 0x100018328, symSize: 0x18 }
  - { offset: 0x528E1, size: 0x8, addend: 0x0, symName: __ZNSt3__112__hash_tableINS_17__hash_value_typeIiiEENS_22__unordered_map_hasherIiNS_4pairIKiiEENS_4hashIiEENS_8equal_toIiEEEENS_21__unordered_map_equalIiS6_SA_S8_EENS_9allocatorIS6_EEE6key_eqB9nqe220108Ev, symObjAddr: 0x3A20, symBinAddr: 0x100018340, symSize: 0x18 }
  - { offset: 0x52907, size: 0x8, addend: 0x0, symName: __ZNKSt3__121__unordered_map_equalIiNS_4pairIKiiEENS_8equal_toIiEENS_4hashIiEEEclB9nqe220108ERKS3_RS2_, symObjAddr: 0x3A38, symBinAddr: 0x100018358, symSize: 0x34 }
  - { offset: 0x5294B, size: 0x8, addend: 0x0, symName: __ZNSt3__112__hash_tableINS_17__hash_value_typeIiiEENS_22__unordered_map_hasherIiNS_4pairIKiiEENS_4hashIiEENS_8equal_toIiEEEENS_21__unordered_map_equalIiS6_SA_S8_EENS_9allocatorIS6_EEE21__construct_node_hashIJRKNS_21piecewise_construct_tENS_5tupleIJRS5_EEENSL_IJEEEEEENS_10unique_ptrINS_11__hash_nodeIS2_PvEENS_22__hash_node_destructorINSE_ISS_EEEEEEmDpOT_, symObjAddr: 0x3A6C, symBinAddr: 0x10001838C, symSize: 0x114 }
  - { offset: 0x529E1, size: 0x8, addend: 0x0, symName: __ZNSt3__112__hash_tableINS_17__hash_value_typeIiiEENS_22__unordered_map_hasherIiNS_4pairIKiiEENS_4hashIiEENS_8equal_toIiEEEENS_21__unordered_map_equalIiS6_SA_S8_EENS_9allocatorIS6_EEE4sizeB9nqe220108Ev, symObjAddr: 0x3B80, symBinAddr: 0x1000184A0, symSize: 0x18 }
  - { offset: 0x52A07, size: 0x8, addend: 0x0, symName: __ZNSt3__112__hash_tableINS_17__hash_value_typeIiiEENS_22__unordered_map_hasherIiNS_4pairIKiiEENS_4hashIiEENS_8equal_toIiEEEENS_21__unordered_map_equalIiS6_SA_S8_EENS_9allocatorIS6_EEE15max_load_factorB9nqe220108Ev, symObjAddr: 0x3B98, symBinAddr: 0x1000184B8, symSize: 0x18 }
  - { offset: 0x52A2D, size: 0x8, addend: 0x0, symName: __ZNSt3__112__hash_tableINS_17__hash_value_typeIiiEENS_22__unordered_map_hasherIiNS_4pairIKiiEENS_4hashIiEENS_8equal_toIiEEEENS_21__unordered_map_equalIiS6_SA_S8_EENS_9allocatorIS6_EEE15__rehash_uniqueB9nqe220108Em, symObjAddr: 0x3BB0, symBinAddr: 0x1000184D0, symSize: 0x2C }
  - { offset: 0x52A62, size: 0x8, addend: 0x0, symName: __ZNSt3__116__hash_node_baseIPNS_11__hash_nodeINS_17__hash_value_typeIiiEEPvEEE5__ptrB9nqe220108Ev, symObjAddr: 0x3C6C, symBinAddr: 0x10001858C, symSize: 0x24 }
  - { offset: 0x52A88, size: 0x8, addend: 0x0, symName: __ZNKSt3__110unique_ptrINS_11__hash_nodeINS_17__hash_value_typeIiiEEPvEENS_22__hash_node_destructorINS_9allocatorIS5_EEEEEptB9nqe220108Ev, symObjAddr: 0x3C90, symBinAddr: 0x1000185B0, symSize: 0x18 }
  - { offset: 0x52AAE, size: 0x8, addend: 0x0, symName: __ZNKSt3__110unique_ptrINS_11__hash_nodeINS_17__hash_value_typeIiiEEPvEENS_22__hash_node_destructorINS_9allocatorIS5_EEEEE3getB9nqe220108Ev, symObjAddr: 0x3CA8, symBinAddr: 0x1000185C8, symSize: 0x18 }
  - { offset: 0x52AD4, size: 0x8, addend: 0x0, symName: __ZNSt3__110unique_ptrINS_11__hash_nodeINS_17__hash_value_typeIiiEEPvEENS_22__hash_node_destructorINS_9allocatorIS5_EEEEE7releaseB9nqe220108Ev, symObjAddr: 0x3CC0, symBinAddr: 0x1000185E0, symSize: 0x24 }
  - { offset: 0x52B09, size: 0x8, addend: 0x0, symName: __ZNSt3__110unique_ptrINS_11__hash_nodeINS_17__hash_value_typeIiiEEPvEENS_22__hash_node_destructorINS_9allocatorIS5_EEEEED1B9nqe220108Ev, symObjAddr: 0x3CE4, symBinAddr: 0x100018604, symSize: 0x2C }
  - { offset: 0x52B37, size: 0x8, addend: 0x0, symName: __ZNSt3__115__hash_iteratorIPNS_11__hash_nodeINS_17__hash_value_typeIiiEEPvEEEC1B9nqe220108EPNS_16__hash_node_baseIS6_EE, symObjAddr: 0x3D10, symBinAddr: 0x100018630, symSize: 0x34 }
  - { offset: 0x52B7C, size: 0x8, addend: 0x0, symName: __ZNSt3__14pairINS_15__hash_iteratorIPNS_11__hash_nodeINS_17__hash_value_typeIiiEEPvEEEEbEC1B9nqe220108IS8_RbTnNS_9enable_ifIXclsr25__check_pair_constructionIS8_bEE23__is_pair_constructibleIT_T0_EEEiE4typeELi0EEEOSD_OSE_, symObjAddr: 0x3D44, symBinAddr: 0x100018664, symSize: 0x3C }
  - { offset: 0x52BDA, size: 0x8, addend: 0x0, symName: __ZNKSt3__111__hash_implIivEclB9nqe220108Ei, symObjAddr: 0x3D80, symBinAddr: 0x1000186A0, symSize: 0x18 }
  - { offset: 0x52C0F, size: 0x8, addend: 0x0, symName: __ZNKSt3__110unique_ptrIA_PNS_16__hash_node_baseIPNS_11__hash_nodeINS_17__hash_value_typeIiiEEPvEEEENS_25__bucket_list_deallocatorINS_9allocatorIS9_EEEEE11get_deleterB9nqe220108Ev, symObjAddr: 0x3D98, symBinAddr: 0x1000186B8, symSize: 0x18 }
  - { offset: 0x52C35, size: 0x8, addend: 0x0, symName: __ZNKSt3__125__bucket_list_deallocatorINS_9allocatorIPNS_16__hash_node_baseIPNS_11__hash_nodeINS_17__hash_value_typeIiiEEPvEEEEEEE4sizeB9nqe220108Ev, symObjAddr: 0x3DB0, symBinAddr: 0x1000186D0, symSize: 0x18 }
  - { offset: 0x52C5B, size: 0x8, addend: 0x0, symName: __ZNKSt3__18equal_toIiEclB9nqe220108ERKiS3_, symObjAddr: 0x3DC8, symBinAddr: 0x1000186E8, symSize: 0x30 }
  - { offset: 0x52C9F, size: 0x8, addend: 0x0, symName: __ZNSt3__116allocator_traitsINS_9allocatorINS_11__hash_nodeINS_17__hash_value_typeIiiEEPvEEEEE8allocateB9nqe220108ERS7_m, symObjAddr: 0x3DF8, symBinAddr: 0x100018718, symSize: 0x2C }
  - { offset: 0x52CD2, size: 0x8, addend: 0x0, symName: __ZNSt3__122__hash_node_destructorINS_9allocatorINS_11__hash_nodeINS_17__hash_value_typeIiiEEPvEEEEEC1B9nqe220108ERS7_b, symObjAddr: 0x3E24, symBinAddr: 0x100018744, symSize: 0x40 }
  - { offset: 0x52D20, size: 0x8, addend: 0x0, symName: __ZNSt3__110unique_ptrINS_11__hash_nodeINS_17__hash_value_typeIiiEEPvEENS_22__hash_node_destructorINS_9allocatorIS5_EEEEEC1B9nqe220108ILb1EvEEPS5_NS_16__dependent_typeINS_27__unique_ptr_deleter_sfinaeIS9_EEXT_EE20__good_rval_ref_typeE, symObjAddr: 0x3E64, symBinAddr: 0x100018784, symSize: 0x3C }
  - { offset: 0x52D71, size: 0x8, addend: 0x0, symName: __ZNKSt3__110unique_ptrINS_11__hash_nodeINS_17__hash_value_typeIiiEEPvEENS_22__hash_node_destructorINS_9allocatorIS5_EEEEEdeB9nqe220108Ev, symObjAddr: 0x3EF8, symBinAddr: 0x100018818, symSize: 0x18 }
  - { offset: 0x52D97, size: 0x8, addend: 0x0, symName: __ZNSt3__110unique_ptrINS_11__hash_nodeINS_17__hash_value_typeIiiEEPvEENS_22__hash_node_destructorINS_9allocatorIS5_EEEEE11get_deleterB9nqe220108Ev, symObjAddr: 0x3F10, symBinAddr: 0x100018830, symSize: 0x18 }
  - { offset: 0x52DBD, size: 0x8, addend: 0x0, symName: __ZNSt3__19allocatorINS_11__hash_nodeINS_17__hash_value_typeIiiEEPvEEE8allocateB9nqe220108Em, symObjAddr: 0x3F28, symBinAddr: 0x100018848, symSize: 0x50 }
  - { offset: 0x52DFC, size: 0x8, addend: 0x0, symName: __ZNSt3__116allocator_traitsINS_9allocatorINS_11__hash_nodeINS_17__hash_value_typeIiiEEPvEEEEE8max_sizeB9nqe220108IS7_TnNS_9enable_ifIX16__has_max_size_vIKT_EEiE4typeELi0EEEmRKS7_, symObjAddr: 0x3F78, symBinAddr: 0x100018898, symSize: 0x24 }
  - { offset: 0x52E2F, size: 0x8, addend: 0x0, symName: __ZNKSt3__19allocatorINS_11__hash_nodeINS_17__hash_value_typeIiiEEPvEEE8max_sizeB9nqe220108Ev, symObjAddr: 0x4008, symBinAddr: 0x1000188F4, symSize: 0x18 }
  - { offset: 0x52E55, size: 0x8, addend: 0x0, symName: __ZNSt3__122__hash_node_destructorINS_9allocatorINS_11__hash_nodeINS_17__hash_value_typeIiiEEPvEEEEEC2B9nqe220108ERS7_b, symObjAddr: 0x4020, symBinAddr: 0x10001890C, symSize: 0x30 }
  - { offset: 0x52E9D, size: 0x8, addend: 0x0, symName: __ZNSt3__110unique_ptrINS_11__hash_nodeINS_17__hash_value_typeIiiEEPvEENS_22__hash_node_destructorINS_9allocatorIS5_EEEEEC2B9nqe220108ILb1EvEEPS5_NS_16__dependent_typeINS_27__unique_ptr_deleter_sfinaeIS9_EEXT_EE20__good_rval_ref_typeE, symObjAddr: 0x4050, symBinAddr: 0x10001893C, symSize: 0x4C }
  - { offset: 0x52EF3, size: 0x8, addend: 0x0, symName: __ZNSt3__125__compressed_pair_paddingINS_22__hash_node_destructorINS_9allocatorINS_11__hash_nodeINS_17__hash_value_typeIiiEEPvEEEEEELb0EEC1Ev, symObjAddr: 0x409C, symBinAddr: 0x100018988, symSize: 0x2C }
  - { offset: 0x52F1F, size: 0x8, addend: 0x0, symName: __ZNSt3__125__compressed_pair_paddingINS_22__hash_node_destructorINS_9allocatorINS_11__hash_nodeINS_17__hash_value_typeIiiEEPvEEEEEELb0EEC2Ev, symObjAddr: 0x40C8, symBinAddr: 0x1000189B4, symSize: 0x4C }
  - { offset: 0x52F51, size: 0x8, addend: 0x0, symName: __ZNSt3__111__hash_nodeINS_17__hash_value_typeIiiEEPvEC1B9nqe220108INS_9allocatorIS4_EEJRKNS_21piecewise_construct_tENS_5tupleIJRKiEEENSB_IJEEEEEEmRT_DpOT0_, symObjAddr: 0x4114, symBinAddr: 0x100018A00, symSize: 0x54 }
  - { offset: 0x52FDF, size: 0x8, addend: 0x0, symName: __ZNSt3__111__hash_nodeINS_17__hash_value_typeIiiEEPvEC2B9nqe220108INS_9allocatorIS4_EEJRKNS_21piecewise_construct_tENS_5tupleIJRKiEEENSB_IJEEEEEEmRT_DpOT0_, symObjAddr: 0x4168, symBinAddr: 0x100018A54, symSize: 0x74 }
  - { offset: 0x5306D, size: 0x8, addend: 0x0, symName: __ZNSt3__116__hash_node_baseIPNS_11__hash_nodeINS_17__hash_value_typeIiiEEPvEEEC2B9nqe220108EPS7_, symObjAddr: 0x41DC, symBinAddr: 0x100018AC8, symSize: 0x20 }
  - { offset: 0x530A5, size: 0x8, addend: 0x0, symName: __ZNSt3__116allocator_traitsINS_9allocatorINS_11__hash_nodeINS_17__hash_value_typeIiiEEPvEEEEE9constructB9nqe220108INS_4pairIKiiEEJRKNS_21piecewise_construct_tENS_5tupleIJRSB_EEENSG_IJEEEETnNS_9enable_ifIX17__has_construct_vIS7_PT_DpT0_EEiE4typeELi0EEEvRS7_SM_DpOSN_, symObjAddr: 0x41FC, symBinAddr: 0x100018AE8, symSize: 0x44 }
  - { offset: 0x53129, size: 0x8, addend: 0x0, symName: __ZNSt3__19allocatorINS_11__hash_nodeINS_17__hash_value_typeIiiEEPvEEE9constructB9nqe220108INS_4pairIKiiEEJRKNS_21piecewise_construct_tENS_5tupleIJRS9_EEENSE_IJEEEEEEvPT_DpOT0_, symObjAddr: 0x4240, symBinAddr: 0x100018B2C, symSize: 0x44 }
  - { offset: 0x531A5, size: 0x8, addend: 0x0, symName: __ZNSt3__14pairIKiiEC1B9nqe220108IJRS1_EJEEENS_21piecewise_construct_tENS_5tupleIJDpT_EEENS6_IJDpT0_EEE, symObjAddr: 0x4284, symBinAddr: 0x100018B70, symSize: 0x44 }
  - { offset: 0x53209, size: 0x8, addend: 0x0, symName: __ZNSt3__14pairIKiiEC1B9nqe220108IJRS1_EJEJLm0EETpTnmJEEENS_21piecewise_construct_tERNS_5tupleIJDpT_EEERNS6_IJDpT0_EEENS_18__integer_sequenceImJXspT1_EEEENSF_ImJXspT2_EEEE, symObjAddr: 0x42C8, symBinAddr: 0x100018BB4, symSize: 0x3C }
  - { offset: 0x53293, size: 0x8, addend: 0x0, symName: __ZNSt3__14pairIKiiEC2B9nqe220108IJRS1_EJEJLm0EETpTnmJEEENS_21piecewise_construct_tERNS_5tupleIJDpT_EEERNS6_IJDpT0_EEENS_18__integer_sequenceImJXspT1_EEEENSF_ImJXspT2_EEEE, symObjAddr: 0x4304, symBinAddr: 0x100018BF0, symSize: 0x48 }
  - { offset: 0x5331D, size: 0x8, addend: 0x0, symName: __ZNSt3__112__hash_tableINS_17__hash_value_typeIiiEENS_22__unordered_map_hasherIiNS_4pairIKiiEENS_4hashIiEENS_8equal_toIiEEEENS_21__unordered_map_equalIiS6_SA_S8_EENS_9allocatorIS6_EEE8__rehashILb1EEEvm, symObjAddr: 0x434C, symBinAddr: 0x100018C38, symSize: 0x18C }
  - { offset: 0x5336B, size: 0x8, addend: 0x0, symName: __ZNSt3__112__hash_tableINS_17__hash_value_typeIiiEENS_22__unordered_map_hasherIiNS_4pairIKiiEENS_4hashIiEENS_8equal_toIiEEEENS_21__unordered_map_equalIiS6_SA_S8_EENS_9allocatorIS6_EEE11__do_rehashILb1EEEvm, symObjAddr: 0x44D8, symBinAddr: 0x100018DC4, symSize: 0x258 }
  - { offset: 0x53430, size: 0x8, addend: 0x0, symName: __ZNSt3__110unique_ptrIA_PNS_16__hash_node_baseIPNS_11__hash_nodeINS_17__hash_value_typeIiiEEPvEEEENS_25__bucket_list_deallocatorINS_9allocatorIS9_EEEEE11get_deleterB9nqe220108Ev, symObjAddr: 0x4790, symBinAddr: 0x10001907C, symSize: 0x18 }
  - { offset: 0x53456, size: 0x8, addend: 0x0, symName: __ZNSt3__110unique_ptrIA_PNS_16__hash_node_baseIPNS_11__hash_nodeINS_17__hash_value_typeIiiEEPvEEEENS_25__bucket_list_deallocatorINS_9allocatorIS9_EEEEE5resetB9nqe220108IPS9_TnNS_9enable_ifIXsr28_CheckArrayPointerConversionIT_EE5valueEiE4typeELi0EEEvSJ_, symObjAddr: 0x47A8, symBinAddr: 0x100019094, symSize: 0x58 }
  - { offset: 0x534A9, size: 0x8, addend: 0x0, symName: __ZNSt3__116allocator_traitsINS_9allocatorIPNS_16__hash_node_baseIPNS_11__hash_nodeINS_17__hash_value_typeIiiEEPvEEEEEEE8allocateB9nqe220108ERSB_m, symObjAddr: 0x4800, symBinAddr: 0x1000190EC, symSize: 0x2C }
  - { offset: 0x534DC, size: 0x8, addend: 0x0, symName: __ZNSt3__19allocatorIPNS_16__hash_node_baseIPNS_11__hash_nodeINS_17__hash_value_typeIiiEEPvEEEEE8allocateB9nqe220108Em, symObjAddr: 0x482C, symBinAddr: 0x100019118, symSize: 0x50 }
  - { offset: 0x5351B, size: 0x8, addend: 0x0, symName: __ZNSt3__116allocator_traitsINS_9allocatorIPNS_16__hash_node_baseIPNS_11__hash_nodeINS_17__hash_value_typeIiiEEPvEEEEEEE8max_sizeB9nqe220108ISB_TnNS_9enable_ifIX16__has_max_size_vIKT_EEiE4typeELi0EEEmRKSB_, symObjAddr: 0x487C, symBinAddr: 0x100019168, symSize: 0x24 }
  - { offset: 0x5354E, size: 0x8, addend: 0x0, symName: __ZNKSt3__19allocatorIPNS_16__hash_node_baseIPNS_11__hash_nodeINS_17__hash_value_typeIiiEEPvEEEEE8max_sizeB9nqe220108Ev, symObjAddr: 0x48D4, symBinAddr: 0x1000191C0, symSize: 0x14 }
  - { offset: 0x5357E, size: 0x8, addend: 0x0, symName: __ZNSt3__110unique_ptrINS_11__hash_nodeINS_17__hash_value_typeIiiEEPvEENS_22__hash_node_destructorINS_9allocatorIS5_EEEEED2B9nqe220108Ev, symObjAddr: 0x4994, symBinAddr: 0x100019250, symSize: 0x30 }
  - { offset: 0x535AC, size: 0x8, addend: 0x0, symName: __ZNSt3__110unique_ptrINS_11__hash_nodeINS_17__hash_value_typeIiiEEPvEENS_22__hash_node_destructorINS_9allocatorIS5_EEEEE5resetB9nqe220108EPS5_, symObjAddr: 0x49C4, symBinAddr: 0x100019280, symSize: 0x58 }
  - { offset: 0x535F0, size: 0x8, addend: 0x0, symName: __ZNSt3__122__hash_node_destructorINS_9allocatorINS_11__hash_nodeINS_17__hash_value_typeIiiEEPvEEEEEclB9nqe220108EPS6_, symObjAddr: 0x4A1C, symBinAddr: 0x1000192D8, symSize: 0x8C }
  - { offset: 0x53625, size: 0x8, addend: 0x0, symName: __ZNSt3__115__hash_iteratorIPNS_11__hash_nodeINS_17__hash_value_typeIiiEEPvEEEC2B9nqe220108EPNS_16__hash_node_baseIS6_EE, symObjAddr: 0x4AA8, symBinAddr: 0x100019364, symSize: 0x20 }
  - { offset: 0x5365E, size: 0x8, addend: 0x0, symName: __ZNSt3__14pairINS_15__hash_iteratorIPNS_11__hash_nodeINS_17__hash_value_typeIiiEEPvEEEEbEC2B9nqe220108IS8_RbTnNS_9enable_ifIXclsr25__check_pair_constructionIS8_bEE23__is_pair_constructibleIT_T0_EEEiE4typeELi0EEEOSD_OSE_, symObjAddr: 0x4AC8, symBinAddr: 0x100019384, symSize: 0x38 }
  - { offset: 0x536BC, size: 0x8, addend: 0x0, symName: __ZNSt3__112__tuple_leafILm0ERKiLb0EE3getB9nqe220108Ev, symObjAddr: 0x4B00, symBinAddr: 0x1000193BC, symSize: 0x18 }
  - { offset: 0x536E2, size: 0x8, addend: 0x0, symName: __ZNSt3__15tupleIJRKiEEC1B9nqe220108INS_4_AndETnNS_9enable_ifIXsrT_IJNS_17integral_constantIbLb1EEENS_21is_copy_constructibleIS2_EEEE5valueEiE4typeELi0EEES2_, symObjAddr: 0x4B18, symBinAddr: 0x1000193D4, symSize: 0x34 }
  - { offset: 0x5372A, size: 0x8, addend: 0x0, symName: __ZNSt3__15tupleIJRKiEEC2B9nqe220108INS_4_AndETnNS_9enable_ifIXsrT_IJNS_17integral_constantIbLb1EEENS_21is_copy_constructibleIS2_EEEE5valueEiE4typeELi0EEES2_, symObjAddr: 0x4B4C, symBinAddr: 0x100019408, symSize: 0x3C }
  - { offset: 0x53772, size: 0x8, addend: 0x0, symName: __ZNSt3__112__tuple_implINS_18__integer_sequenceImJLm0EEEEJRKiEEC1B9nqe220108IJS4_EEENS_14__forward_argsEDpOT_, symObjAddr: 0x4B88, symBinAddr: 0x100019444, symSize: 0x34 }
  - { offset: 0x537C1, size: 0x8, addend: 0x0, symName: __ZNSt3__112__tuple_implINS_18__integer_sequenceImJLm0EEEEJRKiEEC2B9nqe220108IJS4_EEENS_14__forward_argsEDpOT_, symObjAddr: 0x4BBC, symBinAddr: 0x100019478, symSize: 0x34 }
  - { offset: 0x53810, size: 0x8, addend: 0x0, symName: __ZNSt3__112__tuple_leafILm0ERKiLb0EEC2B9nqe220108IS2_TnNS_9enable_ifIXsr4_AndINS_17integral_constantIbXntu9__is_sameu14__remove_cvrefIT_ES3_EEEENS_16is_constructibleIS2_JS7_EEEEE5valueEiE4typeELi0EEEOS7_, symObjAddr: 0x4BF0, symBinAddr: 0x1000194AC, symSize: 0x20 }
  - { offset: 0x53858, size: 0x8, addend: 0x0, symName: __ZNSt3__114pointer_traitsIPNS_4pairIKiiEEE10pointer_toB9nqe220108ERS3_, symObjAddr: 0x4C10, symBinAddr: 0x1000194CC, symSize: 0x14 }
  - { offset: 0x5387B, size: 0x8, addend: 0x0, symName: __ZNSt3__112__hash_tableINS_17__hash_value_typeIiiEENS_22__unordered_map_hasherIiNS_4pairIKiiEENS_4hashIiEENS_8equal_toIiEEEENS_21__unordered_map_equalIiS6_SA_S8_EENS_9allocatorIS6_EEE4findIiEENS_15__hash_iteratorIPNS_11__hash_nodeIS2_PvEEEERKT_, symObjAddr: 0x4C24, symBinAddr: 0x1000194E0, symSize: 0x1A0 }
  - { offset: 0x53903, size: 0x8, addend: 0x0, symName: __ZNSt3__119__hash_map_iteratorINS_15__hash_iteratorIPNS_11__hash_nodeINS_17__hash_value_typeIiiEEPvEEEEEC1B9nqe220108ES8_, symObjAddr: 0x4DC4, symBinAddr: 0x100019680, symSize: 0x34 }
  - { offset: 0x5393C, size: 0x8, addend: 0x0, symName: __ZNSt3__112__hash_tableINS_17__hash_value_typeIiiEENS_22__unordered_map_hasherIiNS_4pairIKiiEENS_4hashIiEENS_8equal_toIiEEEENS_21__unordered_map_equalIiS6_SA_S8_EENS_9allocatorIS6_EEE3endEv, symObjAddr: 0x4DF8, symBinAddr: 0x1000196B4, symSize: 0x2C }
  - { offset: 0x53964, size: 0x8, addend: 0x0, symName: __ZNSt3__119__hash_map_iteratorINS_15__hash_iteratorIPNS_11__hash_nodeINS_17__hash_value_typeIiiEEPvEEEEEC2B9nqe220108ES8_, symObjAddr: 0x4E24, symBinAddr: 0x1000196E0, symSize: 0x20 }
  - { offset: 0x5399D, size: 0x8, addend: 0x0, symName: __ZNKSt3__115__hash_iteratorIPNS_11__hash_nodeINS_17__hash_value_typeIiiEEPvEEEdeB9nqe220108Ev, symObjAddr: 0x4E70, symBinAddr: 0x10001972C, symSize: 0x2C }
  - { offset: 0x539E3, size: 0x8, addend: 0x0, symName: '__ZZ19sample_token_greedyP20OPT_token_data_arrayENK3$_0clERK14OPT_token_dataS4_', symObjAddr: 0x4F30, symBinAddr: 0x1000197EC, symSize: 0x30 }
  - { offset: 0x53A33, size: 0x8, addend: 0x0, symName: '__ZZ14sample_softmaxP20OPT_token_data_arrayENK3$_0clERK14OPT_token_dataS4_', symObjAddr: 0x55C8, symBinAddr: 0x100019E84, symSize: 0x30 }
  - { offset: 0x53A7F, size: 0x8, addend: 0x0, symName: __ZNSt3__18_IterOpsINS_17_ClassicAlgPolicyEE9iter_swapB9nqe220108IRP14OPT_token_dataS6_EEvOT_OT0_, symObjAddr: 0x55F8, symBinAddr: 0x100019EB4, symSize: 0x34 }
  - { offset: 0x53AC8, size: 0x8, addend: 0x0, symName: __ZNSt3__18_IterOpsINS_17_ClassicAlgPolicyEE9iter_swapB9nqe220108IRP14OPT_token_dataS5_EEvOT_OT0_, symObjAddr: 0x5C24, symBinAddr: 0x10001A4E0, symSize: 0x34 }
  - { offset: 0x53B11, size: 0x8, addend: 0x0, symName: __ZNSt3__18_IterOpsINS_17_ClassicAlgPolicyEE11__iter_moveB9nqe220108IRP14OPT_token_dataTnNS_9enable_ifIXsr12is_referenceIDTdeclsr3stdE7declvalIRT_EEEEE5valueEiE4typeELi0EEEDTclsr3stdE4movedeclsr3stdE7declvalIS9_EEEEOS8_, symObjAddr: 0x67E0, symBinAddr: 0x10001B09C, symSize: 0x28 }
  - { offset: 0x53B43, size: 0x8, addend: 0x0, symName: __ZNSt3__18_IterOpsINS_17_ClassicAlgPolicyEE25__validate_iter_referenceB9nqe220108IRP14OPT_token_dataEEvv, symObjAddr: 0x6808, symBinAddr: 0x10001B0C4, symSize: 0x4 }
  - { offset: 0x53B61, size: 0x8, addend: 0x0, symName: __ZNSt3__18_IterOpsINS_17_ClassicAlgPolicyEE4nextB9nqe220108IP14OPT_token_dataEET_S6_S6_, symObjAddr: 0x680C, symBinAddr: 0x10001B0C8, symSize: 0x18 }
  - { offset: 0x53B97, size: 0x8, addend: 0x0, symName: __ZNSt3__18_IterOpsINS_17_ClassicAlgPolicyEE11__iter_moveB9nqe220108IP14OPT_token_dataTnNS_9enable_ifIXsr12is_referenceIDTdeclsr3stdE7declvalIRT_EEEEE5valueEiE4typeELi0EEEDTclsr3stdE4movedeclsr3stdE7declvalIS8_EEEEOS7_, symObjAddr: 0x6D00, symBinAddr: 0x10001B5BC, symSize: 0x28 }
  - { offset: 0x53BC9, size: 0x8, addend: 0x0, symName: __ZNSt3__18_IterOpsINS_17_ClassicAlgPolicyEE25__validate_iter_referenceB9nqe220108IP14OPT_token_dataEEvv, symObjAddr: 0x6D28, symBinAddr: 0x10001B5E4, symSize: 0x4 }
  - { offset: 0x53BE7, size: 0x8, addend: 0x0, symName: __ZNSt3__18_IterOpsINS_17_ClassicAlgPolicyEE9iter_swapB9nqe220108IP14OPT_token_dataS5_EEvOT_OT0_, symObjAddr: 0x77AC, symBinAddr: 0x10001C068, symSize: 0x34 }
  - { offset: 0x53C46, size: 0x8, addend: 0x0, symName: __ZNSt3__14pairIP14OPT_token_databEC1B9nqe220108IRS2_RbTnNS_9enable_ifIXclsr25__check_pair_constructionIS2_bEE23__is_pair_constructibleIT_T0_EEEiE4typeELi0EEEOS8_OS9_, symObjAddr: 0x7808, symBinAddr: 0x10001C0C4, symSize: 0x3C }
  - { offset: 0x53CA4, size: 0x8, addend: 0x0, symName: __ZNSt3__14pairIP14OPT_token_databEC2B9nqe220108IRS2_RbTnNS_9enable_ifIXclsr25__check_pair_constructionIS2_bEE23__is_pair_constructibleIT_T0_EEEiE4typeELi0EEEOS8_OS9_, symObjAddr: 0x7844, symBinAddr: 0x10001C100, symSize: 0x38 }
  - { offset: 0x53D02, size: 0x8, addend: 0x0, symName: __ZNSt3__118__unwrap_iter_implIP14OPT_token_dataLb1EE8__unwrapB9nqe220108ES2_, symObjAddr: 0x787C, symBinAddr: 0x10001C138, symSize: 0x24 }
  - { offset: 0x53D25, size: 0x8, addend: 0x0, symName: __ZNSt3__16vectorIfNS_9allocatorIfEEEC2B9nqe220108Ev, symObjAddr: 0x78B4, symBinAddr: 0x10001C170, symSize: 0x20 }
  - { offset: 0x53D4F, size: 0x8, addend: 0x0, symName: __ZNSt3__16vectorIfNS_9allocatorIfEEED2B9nqe220108Ev, symObjAddr: 0x78D4, symBinAddr: 0x10001C190, symSize: 0x44 }
  - { offset: 0x53D7D, size: 0x8, addend: 0x0, symName: __ZNSt3__16vectorIfNS_9allocatorIfEEE16__destroy_vectorC1B9nqe220108ERS3_, symObjAddr: 0x7918, symBinAddr: 0x10001C1D4, symSize: 0x34 }
  - { offset: 0x53DB5, size: 0x8, addend: 0x0, symName: __ZNSt3__16vectorIfNS_9allocatorIfEEE16__destroy_vectorclB9nqe220108Ev, symObjAddr: 0x794C, symBinAddr: 0x10001C208, symSize: 0x84 }
  - { offset: 0x53DDB, size: 0x8, addend: 0x0, symName: __ZNSt3__16vectorIfNS_9allocatorIfEEE16__destroy_vectorC2B9nqe220108ERS3_, symObjAddr: 0x79D0, symBinAddr: 0x10001C28C, symSize: 0x20 }
  - { offset: 0x53E13, size: 0x8, addend: 0x0, symName: __ZNSt3__16vectorIfNS_9allocatorIfEEE5clearB9nqe220108Ev, symObjAddr: 0x79F0, symBinAddr: 0x10001C2AC, symSize: 0x48 }
  - { offset: 0x53E48, size: 0x8, addend: 0x0, symName: __ZNKSt3__16vectorIfNS_9allocatorIfEEE17__annotate_deleteB9nqe220108Ev, symObjAddr: 0x7A38, symBinAddr: 0x10001C2F4, symSize: 0x80 }
  - { offset: 0x53E6E, size: 0x8, addend: 0x0, symName: __ZNSt3__116allocator_traitsINS_9allocatorIfEEE10deallocateB9nqe220108ERS2_Pfm, symObjAddr: 0x7AB8, symBinAddr: 0x10001C374, symSize: 0x34 }
  - { offset: 0x53EB0, size: 0x8, addend: 0x0, symName: __ZNKSt3__16vectorIfNS_9allocatorIfEEE8capacityB9nqe220108Ev, symObjAddr: 0x7AEC, symBinAddr: 0x10001C3A8, symSize: 0x28 }
  - { offset: 0x53ED6, size: 0x8, addend: 0x0, symName: __ZNSt3__16vectorIfNS_9allocatorIfEEE22__base_destruct_at_endB9nqe220108EPf, symObjAddr: 0x7B14, symBinAddr: 0x10001C3D0, symSize: 0x88 }
  - { offset: 0x53F1A, size: 0x8, addend: 0x0, symName: __ZNKSt3__16vectorIfNS_9allocatorIfEEE17__annotate_shrinkB9nqe220108Em, symObjAddr: 0x7B9C, symBinAddr: 0x10001C458, symSize: 0x7C }
  - { offset: 0x53F4F, size: 0x8, addend: 0x0, symName: __ZNSt3__116allocator_traitsINS_9allocatorIfEEE7destroyB9nqe220108IfTnNS_9enable_ifIX15__has_destroy_vIS2_PT_EEiE4typeELi0EEEvRS2_S7_, symObjAddr: 0x7C18, symBinAddr: 0x10001C4D4, symSize: 0x2C }
  - { offset: 0x53F91, size: 0x8, addend: 0x0, symName: __ZNSt3__19allocatorIfE7destroyB9nqe220108EPf, symObjAddr: 0x7C58, symBinAddr: 0x10001C514, symSize: 0x14 }
  - { offset: 0x53FC5, size: 0x8, addend: 0x0, symName: __ZNKSt3__16vectorIfNS_9allocatorIfEEE31__annotate_contiguous_containerB9nqe220108EPKvS5_, symObjAddr: 0x7C6C, symBinAddr: 0x10001C528, symSize: 0x6C }
  - { offset: 0x54009, size: 0x8, addend: 0x0, symName: __ZNKSt3__16vectorIfNS_9allocatorIfEEE4dataB9nqe220108Ev, symObjAddr: 0x7CD8, symBinAddr: 0x10001C594, symSize: 0x28 }
  - { offset: 0x5402F, size: 0x8, addend: 0x0, symName: __ZNSt3__19allocatorIfE10deallocateB9nqe220108EPfm, symObjAddr: 0x7D1C, symBinAddr: 0x10001C5D8, symSize: 0x34 }
  - { offset: 0x54071, size: 0x8, addend: 0x0, symName: __ZNKSt3__16vectorIfNS_9allocatorIfEEE8max_sizeB9nqe220108Ev, symObjAddr: 0x7D88, symBinAddr: 0x10001C644, symSize: 0x60 }
  - { offset: 0x54097, size: 0x8, addend: 0x0, symName: __ZNSt3__16vectorIfNS_9allocatorIfEEE20__throw_length_errorB9nqe220108Ev, symObjAddr: 0x7DE8, symBinAddr: 0x10001C6A4, symSize: 0x14 }
  - { offset: 0x540AB, size: 0x8, addend: 0x0, symName: __ZNSt3__114__split_bufferIfNS_9allocatorIfEENS_29__split_buffer_pointer_layoutEEC1EmmRS2_, symObjAddr: 0x7DFC, symBinAddr: 0x10001C6B8, symSize: 0x44 }
  - { offset: 0x54104, size: 0x8, addend: 0x0, symName: __ZNSt3__16vectorIfNS_9allocatorIfEEE26__swap_out_circular_bufferERNS_14__split_bufferIfS2_NS_29__split_buffer_pointer_layoutEEE, symObjAddr: 0x7E40, symBinAddr: 0x10001C6FC, symSize: 0x108 }
  - { offset: 0x5414A, size: 0x8, addend: 0x0, symName: __ZNSt3__114__split_bufferIfNS_9allocatorIfEENS_29__split_buffer_pointer_layoutEED1Ev, symObjAddr: 0x7F48, symBinAddr: 0x10001C804, symSize: 0x2C }
  - { offset: 0x54185, size: 0x8, addend: 0x0, symName: __ZNSt3__116allocator_traitsINS_9allocatorIfEEE8max_sizeB9nqe220108IS2_TnNS_9enable_ifIX16__has_max_size_vIKT_EEiE4typeELi0EEEmRKS2_, symObjAddr: 0x7FA0, symBinAddr: 0x10001C830, symSize: 0x24 }
  - { offset: 0x541B8, size: 0x8, addend: 0x0, symName: __ZNKSt3__19allocatorIfE8max_sizeB9nqe220108Ev, symObjAddr: 0x802C, symBinAddr: 0x10001C854, symSize: 0x14 }
  - { offset: 0x541DE, size: 0x8, addend: 0x0, symName: __ZNSt3__114__split_bufferIfNS_9allocatorIfEENS_29__split_buffer_pointer_layoutEEC2EmmRS2_, symObjAddr: 0x8124, symBinAddr: 0x10001C868, symSize: 0xB8 }
  - { offset: 0x54271, size: 0x8, addend: 0x0, symName: __ZNSt3__129__split_buffer_pointer_layoutINS_14__split_bufferIfNS_9allocatorIfEES0_EEfS3_EC2B9nqe220108ERKS3_, symObjAddr: 0x81DC, symBinAddr: 0x10001C920, symSize: 0x28 }
  - { offset: 0x542A9, size: 0x8, addend: 0x0, symName: __ZNSt3__129__split_buffer_pointer_layoutINS_14__split_bufferIfNS_9allocatorIfEES0_EEfS3_E15__get_allocatorB9nqe220108Ev, symObjAddr: 0x8248, symBinAddr: 0x10001C98C, symSize: 0x18 }
  - { offset: 0x542CF, size: 0x8, addend: 0x0, symName: __ZNSt3__129__split_buffer_pointer_layoutINS_14__split_bufferIfNS_9allocatorIfEES0_EEfS3_E10__set_dataB9nqe220108EPf, symObjAddr: 0x8260, symBinAddr: 0x10001C9A4, symSize: 0x20 }
  - { offset: 0x54303, size: 0x8, addend: 0x0, symName: __ZNSt3__129__split_buffer_pointer_layoutINS_14__split_bufferIfNS_9allocatorIfEES0_EEfS3_E11__front_capB9nqe220108Ev, symObjAddr: 0x8280, symBinAddr: 0x10001C9C4, symSize: 0x18 }
  - { offset: 0x54329, size: 0x8, addend: 0x0, symName: __ZNSt3__129__split_buffer_pointer_layoutINS_14__split_bufferIfNS_9allocatorIfEES0_EEfS3_E17__set_valid_rangeB9nqe220108EPfS6_, symObjAddr: 0x8298, symBinAddr: 0x10001C9DC, symSize: 0x2C }
  - { offset: 0x5436B, size: 0x8, addend: 0x0, symName: __ZNSt3__129__split_buffer_pointer_layoutINS_14__split_bufferIfNS_9allocatorIfEES0_EEfS3_E14__set_capacityB9nqe220108Em, symObjAddr: 0x82C4, symBinAddr: 0x10001CA08, symSize: 0x28 }
  - { offset: 0x5439F, size: 0x8, addend: 0x0, symName: __ZNSt3__19allocatorIfE8allocateB9nqe220108Em, symObjAddr: 0x82EC, symBinAddr: 0x10001CA30, symSize: 0x50 }
  - { offset: 0x543D8, size: 0x8, addend: 0x0, symName: __ZNSt3__119__allocation_resultIPfmEC1B9nqe220108ES1_m, symObjAddr: 0x833C, symBinAddr: 0x10001CA80, symSize: 0x3C }
  - { offset: 0x5441E, size: 0x8, addend: 0x0, symName: __ZNSt3__119__allocation_resultIPfmEC2B9nqe220108ES1_m, symObjAddr: 0x83AC, symBinAddr: 0x10001CAF0, symSize: 0x2C }
  - { offset: 0x54464, size: 0x8, addend: 0x0, symName: __ZNSt3__129__split_buffer_pointer_layoutINS_14__split_bufferIfNS_9allocatorIfEES0_EEfS3_E5beginB9nqe220108Ev, symObjAddr: 0x83D8, symBinAddr: 0x10001CB1C, symSize: 0x18 }
  - { offset: 0x5448A, size: 0x8, addend: 0x0, symName: __ZNSt3__129__split_buffer_pointer_layoutINS_14__split_bufferIfNS_9allocatorIfEES0_EEfS3_E3endB9nqe220108Ev, symObjAddr: 0x8450, symBinAddr: 0x10001CB94, symSize: 0x18 }
  - { offset: 0x544B0, size: 0x8, addend: 0x0, symName: __ZNSt3__16vectorIfNS_9allocatorIfEEE14__swap_layoutsB9nqe220108ERNS_14__split_bufferIfS2_NS_29__split_buffer_pointer_layoutEEE, symObjAddr: 0x8468, symBinAddr: 0x10001CBAC, symSize: 0x9C }
  - { offset: 0x5453F, size: 0x8, addend: 0x0, symName: __ZNKSt3__16vectorIfNS_9allocatorIfEEE14__annotate_newB9nqe220108Em, symObjAddr: 0x8504, symBinAddr: 0x10001CC48, symSize: 0x74 }
  - { offset: 0x54574, size: 0x8, addend: 0x0, symName: __ZNKSt3__129__split_buffer_pointer_layoutINS_14__split_bufferIfNS_9allocatorIfEES0_EEfS3_E14__raw_sentinelB9nqe220108Ev, symObjAddr: 0x8578, symBinAddr: 0x10001CCBC, symSize: 0x18 }
  - { offset: 0x5459A, size: 0x8, addend: 0x0, symName: __ZNKSt3__129__split_buffer_pointer_layoutINS_14__split_bufferIfNS_9allocatorIfEES0_EEfS3_E14__raw_capacityB9nqe220108Ev, symObjAddr: 0x8590, symBinAddr: 0x10001CCD4, symSize: 0x18 }
  - { offset: 0x545C0, size: 0x8, addend: 0x0, symName: __ZNSt3__129__split_buffer_pointer_layoutINS_14__split_bufferIfNS_9allocatorIfEES0_EEfS3_E14__set_capacityB9nqe220108EPf, symObjAddr: 0x85A8, symBinAddr: 0x10001CCEC, symSize: 0x20 }
  - { offset: 0x545F4, size: 0x8, addend: 0x0, symName: __ZNSt3__114__split_bufferIfNS_9allocatorIfEENS_29__split_buffer_pointer_layoutEED2Ev, symObjAddr: 0x85C8, symBinAddr: 0x10001CD0C, symSize: 0x7C }
  - { offset: 0x54624, size: 0x8, addend: 0x0, symName: __ZNSt3__114__split_bufferIfNS_9allocatorIfEENS_29__split_buffer_pointer_layoutEE5clearB9nqe220108Ev, symObjAddr: 0x8644, symBinAddr: 0x10001CD88, symSize: 0x34 }
  - { offset: 0x5464A, size: 0x8, addend: 0x0, symName: __ZNKSt3__129__split_buffer_pointer_layoutINS_14__split_bufferIfNS_9allocatorIfEES0_EEfS3_E8capacityB9nqe220108Ev, symObjAddr: 0x8678, symBinAddr: 0x10001CDBC, symSize: 0x28 }
  - { offset: 0x54670, size: 0x8, addend: 0x0, symName: __ZNSt3__114__split_bufferIfNS_9allocatorIfEENS_29__split_buffer_pointer_layoutEE17__destruct_at_endB9nqe220108EPf, symObjAddr: 0x86A0, symBinAddr: 0x10001CDE4, symSize: 0x2C }
  - { offset: 0x546A5, size: 0x8, addend: 0x0, symName: __ZNSt3__114__split_bufferIfNS_9allocatorIfEENS_29__split_buffer_pointer_layoutEE17__destruct_at_endB9nqe220108EPfNS_17integral_constantIbLb0EEE, symObjAddr: 0x86CC, symBinAddr: 0x10001CE10, symSize: 0x88 }
  - { offset: 0x546F6, size: 0x8, addend: 0x0, symName: __ZNSt3__129__split_buffer_pointer_layoutINS_14__split_bufferIfNS_9allocatorIfEES0_EEfS3_E14__set_sentinelB9nqe220108EPf, symObjAddr: 0x8754, symBinAddr: 0x10001CE98, symSize: 0x20 }
  - { offset: 0x5472A, size: 0x8, addend: 0x0, symName: __ZNSt3__16vectorIfNS_9allocatorIfEEE12emplace_backIJRKfEEEvDpOT_, symObjAddr: 0x8774, symBinAddr: 0x10001CEB8, symSize: 0x84 }
  - { offset: 0x54808, size: 0x8, addend: 0x0, symName: __ZZNSt3__16vectorIfNS_9allocatorIfEEE12emplace_backIJRKfEEEvDpOT_ENKUlvE_clEv, symObjAddr: 0x8850, symBinAddr: 0x10001CF94, symSize: 0x44 }
  - { offset: 0x5483C, size: 0x8, addend: 0x0, symName: __ZZNSt3__16vectorIfNS_9allocatorIfEEE12emplace_backIJRKfEEEvDpOT_ENKUlvE0_clEv, symObjAddr: 0x8894, symBinAddr: 0x10001CFD8, symSize: 0x3C }
  - { offset: 0x54866, size: 0x8, addend: 0x0, symName: __ZNSt3__16vectorIfNS_9allocatorIfEEE30__emplace_back_assume_capacityB9nqe220108IJRKfEEEvDpOT_, symObjAddr: 0x88D0, symBinAddr: 0x10001D014, symSize: 0x88 }
  - { offset: 0x548D0, size: 0x8, addend: 0x0, symName: __ZNSt3__16vectorIfNS_9allocatorIfEEE21_ConstructTransactionC1B9nqe220108ERS3_m, symObjAddr: 0x8958, symBinAddr: 0x10001D09C, symSize: 0x3C }
  - { offset: 0x54918, size: 0x8, addend: 0x0, symName: __ZNSt3__116allocator_traitsINS_9allocatorIfEEE9constructB9nqe220108IfJRKfETnNS_9enable_ifIX17__has_construct_vIS2_PT_DpT0_EEiE4typeELi0EEEvRS2_S9_DpOSA_, symObjAddr: 0x8994, symBinAddr: 0x10001D0D8, symSize: 0x34 }
  - { offset: 0x54974, size: 0x8, addend: 0x0, symName: __ZNSt3__16vectorIfNS_9allocatorIfEEE21_ConstructTransactionD1B9nqe220108Ev, symObjAddr: 0x89C8, symBinAddr: 0x10001D10C, symSize: 0x2C }
  - { offset: 0x549A2, size: 0x8, addend: 0x0, symName: __ZNSt3__16vectorIfNS_9allocatorIfEEE21_ConstructTransactionC2B9nqe220108ERS3_m, symObjAddr: 0x89F4, symBinAddr: 0x10001D138, symSize: 0x64 }
  - { offset: 0x549EA, size: 0x8, addend: 0x0, symName: __ZNKSt3__16vectorIfNS_9allocatorIfEEE19__annotate_increaseB9nqe220108Em, symObjAddr: 0x8A58, symBinAddr: 0x10001D19C, symSize: 0x8C }
  - { offset: 0x54A1F, size: 0x8, addend: 0x0, symName: __ZNSt3__19allocatorIfE9constructB9nqe220108IfJRKfEEEvPT_DpOT0_, symObjAddr: 0x8AE4, symBinAddr: 0x10001D228, symSize: 0x28 }
  - { offset: 0x54A75, size: 0x8, addend: 0x0, symName: __ZNSt3__16vectorIfNS_9allocatorIfEEE21_ConstructTransactionD2B9nqe220108Ev, symObjAddr: 0x8B0C, symBinAddr: 0x10001D250, symSize: 0x78 }
  - { offset: 0x54AA3, size: 0x8, addend: 0x0, symName: __ZNSt3__16vectorIfNS_9allocatorIfEEE24__emplace_back_slow_pathIJRKfEEEPfDpOT_, symObjAddr: 0x8B84, symBinAddr: 0x10001D2C8, symSize: 0xF8 }
  - { offset: 0x54B01, size: 0x8, addend: 0x0, symName: __ZNKSt3__16vectorIfNS_9allocatorIfEEE11__recommendB9nqe220108Em, symObjAddr: 0x8C7C, symBinAddr: 0x10001D3C0, symSize: 0xA8 }
  - { offset: 0x54B56, size: 0x8, addend: 0x0, symName: __ZNSt3__16vectorIfNS_9allocatorIfEEE11__make_iterB9nqe220108EPf, symObjAddr: 0x8D24, symBinAddr: 0x10001D468, symSize: 0x30 }
  - { offset: 0x54B8B, size: 0x8, addend: 0x0, symName: __ZNSt3__16vectorIfNS_9allocatorIfEEE26__add_alignment_assumptionB9nqe220108IPfTnNS_9enable_ifIXsr10is_pointerIT_EE5valueEiE4typeELi0EEES5_S7_, symObjAddr: 0x8D54, symBinAddr: 0x10001D498, symSize: 0x14 }
  - { offset: 0x54BBE, size: 0x8, addend: 0x0, symName: __ZNSt3__111__wrap_iterIPfEC1B9nqe220108ES1_, symObjAddr: 0x8D68, symBinAddr: 0x10001D4AC, symSize: 0x34 }
  - { offset: 0x54BF6, size: 0x8, addend: 0x0, symName: __ZNSt3__111__wrap_iterIPfEC2B9nqe220108ES1_, symObjAddr: 0x8D9C, symBinAddr: 0x10001D4E0, symSize: 0x20 }
  - { offset: 0x54C2E, size: 0x8, addend: 0x0, symName: __ZNSt3__121discrete_distributionIiEC2B9nqe220108INS_11__wrap_iterIPfEEEET_S6_, symObjAddr: 0x8DBC, symBinAddr: 0x10001D500, symSize: 0x4C }
  - { offset: 0x54C7D, size: 0x8, addend: 0x0, symName: __ZNSt3__121discrete_distributionIiE10param_typeC1B9nqe220108INS_11__wrap_iterIPfEEEET_S7_, symObjAddr: 0x8E08, symBinAddr: 0x10001D54C, symSize: 0x3C }
  - { offset: 0x54CCC, size: 0x8, addend: 0x0, symName: __ZNSt3__121discrete_distributionIiE10param_typeC2B9nqe220108INS_11__wrap_iterIPfEEEET_S7_, symObjAddr: 0x8E44, symBinAddr: 0x10001D588, symSize: 0x7C }
  - { offset: 0x54D1B, size: 0x8, addend: 0x0, symName: __ZNSt3__16vectorIdNS_9allocatorIdEEEC1B9nqe220108INS_11__wrap_iterIPfEETnNS_9enable_ifIXaasr31__has_forward_iterator_categoryIT_EE5valuesr16is_constructibleIdNS_15iterator_traitsIS9_E9referenceEEE5valueEiE4typeELi0EEES9_S9_, symObjAddr: 0x8EC0, symBinAddr: 0x10001D604, symSize: 0x3C }
  - { offset: 0x54D70, size: 0x8, addend: 0x0, symName: __ZNSt3__121discrete_distributionIiE10param_type6__initEv, symObjAddr: 0x8EFC, symBinAddr: 0x10001D640, symSize: 0x1A4 }
  - { offset: 0x54DE4, size: 0x8, addend: 0x0, symName: __ZNSt3__16vectorIdNS_9allocatorIdEEEC2B9nqe220108INS_11__wrap_iterIPfEETnNS_9enable_ifIXaasr31__has_forward_iterator_categoryIT_EE5valuesr16is_constructibleIdNS_15iterator_traitsIS9_E9referenceEEE5valueEiE4typeELi0EEES9_S9_, symObjAddr: 0x90A0, symBinAddr: 0x10001D7E4, symSize: 0x84 }
  - { offset: 0x54E55, size: 0x8, addend: 0x0, symName: __ZNSt3__16vectorIdNS_9allocatorIdEEE16__init_with_sizeB9nqe220108INS_11__wrap_iterIPfEES7_EEvT_T0_m, symObjAddr: 0x9160, symBinAddr: 0x10001D8A4, symSize: 0xC4 }
  - { offset: 0x54EC9, size: 0x8, addend: 0x0, symName: __ZNSt3__16vectorIdNS_9allocatorIdEEE11__vallocateB9nqe220108Em, symObjAddr: 0x92DC, symBinAddr: 0x10001DA20, symSize: 0x90 }
  - { offset: 0x54F0D, size: 0x8, addend: 0x0, symName: __ZNSt3__16vectorIdNS_9allocatorIdEEE18__construct_at_endINS_11__wrap_iterIPfEES7_EEvT_T0_m, symObjAddr: 0x936C, symBinAddr: 0x10001DAB0, symSize: 0x9C }
  - { offset: 0x54F81, size: 0x8, addend: 0x0, symName: __ZNSt3__128__exception_guard_exceptionsINS_6vectorIdNS_9allocatorIdEEE16__destroy_vectorEE10__completeB9nqe220108Ev, symObjAddr: 0x9408, symBinAddr: 0x10001DB4C, symSize: 0x1C }
  - { offset: 0x54FA7, size: 0x8, addend: 0x0, symName: __ZNSt3__128__exception_guard_exceptionsINS_6vectorIdNS_9allocatorIdEEE16__destroy_vectorEED1B9nqe220108Ev, symObjAddr: 0x9424, symBinAddr: 0x10001DB68, symSize: 0x2C }
  - { offset: 0x54FD5, size: 0x8, addend: 0x0, symName: __ZNSt3__128__exception_guard_exceptionsINS_6vectorIdNS_9allocatorIdEEE16__destroy_vectorEEC1B9nqe220108ES5_, symObjAddr: 0x9450, symBinAddr: 0x10001DB94, symSize: 0x34 }
  - { offset: 0x5500D, size: 0x8, addend: 0x0, symName: __ZNSt3__128__exception_guard_exceptionsINS_6vectorIdNS_9allocatorIdEEE16__destroy_vectorEEC2B9nqe220108ES5_, symObjAddr: 0x9484, symBinAddr: 0x10001DBC8, symSize: 0x24 }
  - { offset: 0x55045, size: 0x8, addend: 0x0, symName: __ZNKSt3__16vectorIdNS_9allocatorIdEEE8max_sizeB9nqe220108Ev, symObjAddr: 0x94A8, symBinAddr: 0x10001DBEC, symSize: 0x60 }
  - { offset: 0x5506B, size: 0x8, addend: 0x0, symName: __ZNSt3__16vectorIdNS_9allocatorIdEEE20__throw_length_errorB9nqe220108Ev, symObjAddr: 0x9508, symBinAddr: 0x10001DC4C, symSize: 0x14 }
  - { offset: 0x5507F, size: 0x8, addend: 0x0, symName: __ZNKSt3__16vectorIdNS_9allocatorIdEEE14__annotate_newB9nqe220108Em, symObjAddr: 0x9560, symBinAddr: 0x10001DCA4, symSize: 0x74 }
  - { offset: 0x550BF, size: 0x8, addend: 0x0, symName: __ZNSt3__116allocator_traitsINS_9allocatorIdEEE8max_sizeB9nqe220108IS2_TnNS_9enable_ifIX16__has_max_size_vIKT_EEiE4typeELi0EEEmRKS2_, symObjAddr: 0x95D4, symBinAddr: 0x10001DD18, symSize: 0x24 }
  - { offset: 0x550F2, size: 0x8, addend: 0x0, symName: __ZNKSt3__19allocatorIdE8max_sizeB9nqe220108Ev, symObjAddr: 0x95F8, symBinAddr: 0x10001DD3C, symSize: 0x14 }
  - { offset: 0x55118, size: 0x8, addend: 0x0, symName: __ZNSt3__19allocatorIdE8allocateB9nqe220108Em, symObjAddr: 0x960C, symBinAddr: 0x10001DD50, symSize: 0x50 }
  - { offset: 0x55151, size: 0x8, addend: 0x0, symName: __ZNSt3__119__allocation_resultIPdmEC1B9nqe220108ES1_m, symObjAddr: 0x965C, symBinAddr: 0x10001DDA0, symSize: 0x3C }
  - { offset: 0x55197, size: 0x8, addend: 0x0, symName: __ZNSt3__119__allocation_resultIPdmEC2B9nqe220108ES1_m, symObjAddr: 0x96CC, symBinAddr: 0x10001DE10, symSize: 0x2C }
  - { offset: 0x551F8, size: 0x8, addend: 0x0, symName: __ZNSt3__16vectorIdNS_9allocatorIdEEE21_ConstructTransactionC1B9nqe220108ERS3_m, symObjAddr: 0x96F8, symBinAddr: 0x10001DE3C, symSize: 0x3C }
  - { offset: 0x55240, size: 0x8, addend: 0x0, symName: __ZNSt3__16vectorIdNS_9allocatorIdEEE21_ConstructTransactionD1B9nqe220108Ev, symObjAddr: 0x97C4, symBinAddr: 0x10001DF08, symSize: 0x2C }
  - { offset: 0x5526E, size: 0x8, addend: 0x0, symName: __ZNSt3__16vectorIdNS_9allocatorIdEEE21_ConstructTransactionC2B9nqe220108ERS3_m, symObjAddr: 0x97F0, symBinAddr: 0x10001DF34, symSize: 0x64 }
  - { offset: 0x552B6, size: 0x8, addend: 0x0, symName: __ZNKSt3__16vectorIdNS_9allocatorIdEEE19__annotate_increaseB9nqe220108Em, symObjAddr: 0x9854, symBinAddr: 0x10001DF98, symSize: 0x8C }
  - { offset: 0x5530D, size: 0x8, addend: 0x0, symName: __ZNSt3__14pairIPfS1_EC1B9nqe220108IS1_S1_TnNS_9enable_ifIXclsr25__check_pair_constructionIS1_S1_EE23__is_pair_constructibleIT_T0_EEEiE4typeELi0EEEOS5_OS6_, symObjAddr: 0x9B04, symBinAddr: 0x10001E248, symSize: 0x3C }
  - { offset: 0x5536B, size: 0x8, addend: 0x0, symName: __ZNSt3__14pairIPfS1_EC2B9nqe220108IS1_S1_TnNS_9enable_ifIXclsr25__check_pair_constructionIS1_S1_EE23__is_pair_constructibleIT_T0_EEEiE4typeELi0EEEOS5_OS6_, symObjAddr: 0x9B40, symBinAddr: 0x10001E284, symSize: 0x34 }
  - { offset: 0x553CE, size: 0x8, addend: 0x0, symName: __ZNSt3__118__unwrap_iter_implINS_11__wrap_iterIPfEELb1EE8__unwrapB9nqe220108ES3_, symObjAddr: 0x9B74, symBinAddr: 0x10001E2B8, symSize: 0x28 }
  - { offset: 0x553F7, size: 0x8, addend: 0x0, symName: __ZNSt3__119__to_address_helperINS_11__wrap_iterIPfEEvE6__callB9nqe220108ERKS3_, symObjAddr: 0x9BC0, symBinAddr: 0x10001E304, symSize: 0x30 }
  - { offset: 0x5541A, size: 0x8, addend: 0x0, symName: __ZNSt3__114pointer_traitsINS_11__wrap_iterIPfEEE10to_addressB9nqe220108ES3_, symObjAddr: 0x9BF0, symBinAddr: 0x10001E334, symSize: 0x2C }
  - { offset: 0x5543D, size: 0x8, addend: 0x0, symName: __ZNSt3__129_AllocatorDestroyRangeReverseINS_9allocatorIdEEPdEC1B9nqe220108ERS2_RS3_S6_, symObjAddr: 0x9C68, symBinAddr: 0x10001E3AC, symSize: 0x44 }
  - { offset: 0x55494, size: 0x8, addend: 0x0, symName: __ZNSt3__116allocator_traitsINS_9allocatorIdEEE9constructB9nqe220108IdJRfETnNS_9enable_ifIX17__has_construct_vIS2_PT_DpT0_EEiE4typeELi0EEEvRS2_S8_DpOS9_, symObjAddr: 0x9CAC, symBinAddr: 0x10001E3F0, symSize: 0x34 }
  - { offset: 0x554F0, size: 0x8, addend: 0x0, symName: __ZNSt3__128__exception_guard_exceptionsINS_29_AllocatorDestroyRangeReverseINS_9allocatorIdEEPdEEE10__completeB9nqe220108Ev, symObjAddr: 0x9CE0, symBinAddr: 0x10001E424, symSize: 0x1C }
  - { offset: 0x55516, size: 0x8, addend: 0x0, symName: __ZNSt3__128__exception_guard_exceptionsINS_29_AllocatorDestroyRangeReverseINS_9allocatorIdEEPdEEED1B9nqe220108Ev, symObjAddr: 0x9CFC, symBinAddr: 0x10001E440, symSize: 0x2C }
  - { offset: 0x55544, size: 0x8, addend: 0x0, symName: __ZNSt3__128__exception_guard_exceptionsINS_29_AllocatorDestroyRangeReverseINS_9allocatorIdEEPdEEEC1B9nqe220108ES5_, symObjAddr: 0x9D28, symBinAddr: 0x10001E46C, symSize: 0x34 }
  - { offset: 0x5557D, size: 0x8, addend: 0x0, symName: __ZNSt3__128__exception_guard_exceptionsINS_29_AllocatorDestroyRangeReverseINS_9allocatorIdEEPdEEEC2B9nqe220108ES5_, symObjAddr: 0x9D5C, symBinAddr: 0x10001E4A0, symSize: 0x30 }
  - { offset: 0x555B6, size: 0x8, addend: 0x0, symName: __ZNSt3__129_AllocatorDestroyRangeReverseINS_9allocatorIdEEPdEC2B9nqe220108ERS2_RS3_S6_, symObjAddr: 0x9D8C, symBinAddr: 0x10001E4D0, symSize: 0x38 }
  - { offset: 0x5560D, size: 0x8, addend: 0x0, symName: __ZNSt3__19allocatorIdE9constructB9nqe220108IdJRfEEEvPT_DpOT0_, symObjAddr: 0x9DC4, symBinAddr: 0x10001E508, symSize: 0x2C }
  - { offset: 0x55663, size: 0x8, addend: 0x0, symName: __ZNSt3__128__exception_guard_exceptionsINS_29_AllocatorDestroyRangeReverseINS_9allocatorIdEEPdEEED2B9nqe220108Ev, symObjAddr: 0x9DF0, symBinAddr: 0x10001E534, symSize: 0x50 }
  - { offset: 0x55691, size: 0x8, addend: 0x0, symName: __ZNKSt3__129_AllocatorDestroyRangeReverseINS_9allocatorIdEEPdEclB9nqe220108Ev, symObjAddr: 0x9E40, symBinAddr: 0x10001E584, symSize: 0x68 }
  - { offset: 0x556B7, size: 0x8, addend: 0x0, symName: __ZNSt3__116reverse_iteratorIPdEC1B9nqe220108ES1_, symObjAddr: 0x9F18, symBinAddr: 0x10001E65C, symSize: 0x34 }
  - { offset: 0x556EF, size: 0x8, addend: 0x0, symName: __ZNKSt3__116reverse_iteratorIPdEdeB9nqe220108Ev, symObjAddr: 0x9F90, symBinAddr: 0x10001E6D4, symSize: 0x28 }
  - { offset: 0x55723, size: 0x8, addend: 0x0, symName: __ZNSt3__116reverse_iteratorIPdEppB9nqe220108Ev, symObjAddr: 0x9FB8, symBinAddr: 0x10001E6FC, symSize: 0x20 }
  - { offset: 0x55749, size: 0x8, addend: 0x0, symName: __ZNKSt3__116reverse_iteratorIPdE4baseB9nqe220108Ev, symObjAddr: 0x9FD8, symBinAddr: 0x10001E71C, symSize: 0x18 }
  - { offset: 0x5576F, size: 0x8, addend: 0x0, symName: __ZNSt3__116reverse_iteratorIPdEC2B9nqe220108ES1_, symObjAddr: 0x9FF0, symBinAddr: 0x10001E734, symSize: 0x28 }
  - { offset: 0x557A7, size: 0x8, addend: 0x0, symName: __ZNSt3__118__unwrap_iter_implIPdLb1EE8__unwrapB9nqe220108ES1_, symObjAddr: 0xA018, symBinAddr: 0x10001E75C, symSize: 0x24 }
  - { offset: 0x557CA, size: 0x8, addend: 0x0, symName: __ZNSt3__118__unwrap_iter_implIPdLb1EE8__rewrapB9nqe220108ES1_S1_, symObjAddr: 0xA03C, symBinAddr: 0x10001E780, symSize: 0x50 }
  - { offset: 0x557FB, size: 0x8, addend: 0x0, symName: __ZNSt3__16vectorIdNS_9allocatorIdEEE21_ConstructTransactionD2B9nqe220108Ev, symObjAddr: 0xA08C, symBinAddr: 0x10001E7D0, symSize: 0x78 }
  - { offset: 0x55829, size: 0x8, addend: 0x0, symName: __ZNSt3__128__exception_guard_exceptionsINS_6vectorIdNS_9allocatorIdEEE16__destroy_vectorEED2B9nqe220108Ev, symObjAddr: 0xA104, symBinAddr: 0x10001E848, symSize: 0x48 }
  - { offset: 0x55857, size: 0x8, addend: 0x0, symName: __ZNKSt3__16vectorIdNS_9allocatorIdEEE5emptyB9nqe220108Ev, symObjAddr: 0xA14C, symBinAddr: 0x10001E890, symSize: 0x24 }
  - { offset: 0x5587D, size: 0x8, addend: 0x0, symName: __ZNSt3__16vectorIdNS_9allocatorIdEEE5beginB9nqe220108Ev, symObjAddr: 0xA1E0, symBinAddr: 0x10001E924, symSize: 0x40 }
  - { offset: 0x558A3, size: 0x8, addend: 0x0, symName: __ZNSt3__16vectorIdNS_9allocatorIdEEE3endB9nqe220108Ev, symObjAddr: 0xA220, symBinAddr: 0x10001E964, symSize: 0x40 }
  - { offset: 0x558C9, size: 0x8, addend: 0x0, symName: __ZNKSt3__111__wrap_iterIPdEdeB9nqe220108Ev, symObjAddr: 0xA2A4, symBinAddr: 0x10001E9E8, symSize: 0x18 }
  - { offset: 0x558EF, size: 0x8, addend: 0x0, symName: __ZNSt3__111__wrap_iterIPdEppB9nqe220108Ev, symObjAddr: 0xA2BC, symBinAddr: 0x10001EA00, symSize: 0x20 }
  - { offset: 0x55915, size: 0x8, addend: 0x0, symName: __ZNSt3__16vectorIdNS_9allocatorIdEEEC1B9nqe220108Em, symObjAddr: 0xA2DC, symBinAddr: 0x10001EA20, symSize: 0x34 }
  - { offset: 0x5594D, size: 0x8, addend: 0x0, symName: __ZNKSt3__111__wrap_iterIPdEmiB9nqe220108El, symObjAddr: 0xA40C, symBinAddr: 0x10001EB50, symSize: 0x3C }
  - { offset: 0x55981, size: 0x8, addend: 0x0, symName: __ZNSt3__16vectorIdNS_9allocatorIdEEE13shrink_to_fitEv, symObjAddr: 0xA474, symBinAddr: 0x10001EBB8, symSize: 0x110 }
  - { offset: 0x559BE, size: 0x8, addend: 0x0, symName: __ZNKSt3__111__wrap_iterIPdE4baseB9nqe220108Ev, symObjAddr: 0xA5F8, symBinAddr: 0x10001ED3C, symSize: 0x18 }
  - { offset: 0x559E4, size: 0x8, addend: 0x0, symName: __ZNSt3__16vectorIdNS_9allocatorIdEEE11__make_iterB9nqe220108EPd, symObjAddr: 0xA610, symBinAddr: 0x10001ED54, symSize: 0x30 }
  - { offset: 0x55A19, size: 0x8, addend: 0x0, symName: __ZNSt3__16vectorIdNS_9allocatorIdEEE26__add_alignment_assumptionB9nqe220108IPdTnNS_9enable_ifIXsr10is_pointerIT_EE5valueEiE4typeELi0EEES5_S7_, symObjAddr: 0xA640, symBinAddr: 0x10001ED84, symSize: 0x14 }
  - { offset: 0x55A4C, size: 0x8, addend: 0x0, symName: __ZNSt3__111__wrap_iterIPdEC1B9nqe220108ES1_, symObjAddr: 0xA654, symBinAddr: 0x10001ED98, symSize: 0x34 }
  - { offset: 0x55A84, size: 0x8, addend: 0x0, symName: __ZNSt3__111__wrap_iterIPdEC2B9nqe220108ES1_, symObjAddr: 0xA688, symBinAddr: 0x10001EDCC, symSize: 0x20 }
  - { offset: 0x55ABC, size: 0x8, addend: 0x0, symName: __ZNSt3__16vectorIdNS_9allocatorIdEEEC2B9nqe220108Em, symObjAddr: 0xA6A8, symBinAddr: 0x10001EDEC, symSize: 0xBC }
  - { offset: 0x55B08, size: 0x8, addend: 0x0, symName: __ZNSt3__16vectorIdNS_9allocatorIdEEE18__construct_at_endEm, symObjAddr: 0xA764, symBinAddr: 0x10001EEA8, symSize: 0xC4 }
  - { offset: 0x55B7A, size: 0x8, addend: 0x0, symName: __ZNSt3__116allocator_traitsINS_9allocatorIdEEE9constructB9nqe220108IdJETnNS_9enable_ifIX17__has_construct_vIS2_PT_DpT0_EEiE4typeELi0EEEvRS2_S7_DpOS8_, symObjAddr: 0xA828, symBinAddr: 0x10001EF6C, symSize: 0x2C }
  - { offset: 0x55BC1, size: 0x8, addend: 0x0, symName: __ZNSt3__19allocatorIdE9constructB9nqe220108IdJEEEvPT_DpOT0_, symObjAddr: 0xA854, symBinAddr: 0x10001EF98, symSize: 0x1C }
  - { offset: 0x55C03, size: 0x8, addend: 0x0, symName: __ZNKSt3__111__wrap_iterIPdEplB9nqe220108El, symObjAddr: 0xA870, symBinAddr: 0x10001EFB4, symSize: 0x3C }
  - { offset: 0x55C45, size: 0x8, addend: 0x0, symName: __ZNSt3__111__wrap_iterIPdEpLB9nqe220108El, symObjAddr: 0xA8AC, symBinAddr: 0x10001EFF0, symSize: 0x28 }
  - { offset: 0x55C79, size: 0x8, addend: 0x0, symName: __ZNSt3__16vectorIdNS_9allocatorIdEEE4swapERS3_, symObjAddr: 0xA8D4, symBinAddr: 0x10001F018, symSize: 0x6C }
  - { offset: 0x55CB0, size: 0x8, addend: 0x0, symName: __ZNSt3__114__split_bufferIdNS_9allocatorIdEENS_29__split_buffer_pointer_layoutEEC1EmmRS2_, symObjAddr: 0xA9BC, symBinAddr: 0x10001F100, symSize: 0x44 }
  - { offset: 0x55D09, size: 0x8, addend: 0x0, symName: __ZNKSt3__129__split_buffer_pointer_layoutINS_14__split_bufferIdNS_9allocatorIdEES0_EEdS3_E8capacityB9nqe220108Ev, symObjAddr: 0xAA00, symBinAddr: 0x10001F144, symSize: 0x28 }
  - { offset: 0x55D2F, size: 0x8, addend: 0x0, symName: __ZNSt3__16vectorIdNS_9allocatorIdEEE26__swap_out_circular_bufferERNS_14__split_bufferIdS2_NS_29__split_buffer_pointer_layoutEEE, symObjAddr: 0xAA28, symBinAddr: 0x10001F16C, symSize: 0x108 }
  - { offset: 0x55D75, size: 0x8, addend: 0x0, symName: __ZNSt3__114__split_bufferIdNS_9allocatorIdEENS_29__split_buffer_pointer_layoutEED1Ev, symObjAddr: 0xAB30, symBinAddr: 0x10001F274, symSize: 0x2C }
  - { offset: 0x55DA5, size: 0x8, addend: 0x0, symName: __ZNSt3__114__split_bufferIdNS_9allocatorIdEENS_29__split_buffer_pointer_layoutEEC2EmmRS2_, symObjAddr: 0xAB5C, symBinAddr: 0x10001F2A0, symSize: 0xB8 }
  - { offset: 0x55E38, size: 0x8, addend: 0x0, symName: __ZNSt3__129__split_buffer_pointer_layoutINS_14__split_bufferIdNS_9allocatorIdEES0_EEdS3_EC2B9nqe220108ERKS3_, symObjAddr: 0xAC14, symBinAddr: 0x10001F358, symSize: 0x28 }
  - { offset: 0x55E70, size: 0x8, addend: 0x0, symName: __ZNSt3__129__split_buffer_pointer_layoutINS_14__split_bufferIdNS_9allocatorIdEES0_EEdS3_E15__get_allocatorB9nqe220108Ev, symObjAddr: 0xAC3C, symBinAddr: 0x10001F380, symSize: 0x18 }
  - { offset: 0x55E96, size: 0x8, addend: 0x0, symName: __ZNSt3__129__split_buffer_pointer_layoutINS_14__split_bufferIdNS_9allocatorIdEES0_EEdS3_E10__set_dataB9nqe220108EPd, symObjAddr: 0xAC54, symBinAddr: 0x10001F398, symSize: 0x20 }
  - { offset: 0x55ECA, size: 0x8, addend: 0x0, symName: __ZNSt3__129__split_buffer_pointer_layoutINS_14__split_bufferIdNS_9allocatorIdEES0_EEdS3_E11__front_capB9nqe220108Ev, symObjAddr: 0xAC74, symBinAddr: 0x10001F3B8, symSize: 0x18 }
  - { offset: 0x55EF0, size: 0x8, addend: 0x0, symName: __ZNSt3__129__split_buffer_pointer_layoutINS_14__split_bufferIdNS_9allocatorIdEES0_EEdS3_E17__set_valid_rangeB9nqe220108EPdS6_, symObjAddr: 0xAC8C, symBinAddr: 0x10001F3D0, symSize: 0x2C }
  - { offset: 0x55F32, size: 0x8, addend: 0x0, symName: __ZNSt3__129__split_buffer_pointer_layoutINS_14__split_bufferIdNS_9allocatorIdEES0_EEdS3_E14__set_capacityB9nqe220108Em, symObjAddr: 0xACB8, symBinAddr: 0x10001F3FC, symSize: 0x28 }
  - { offset: 0x55F66, size: 0x8, addend: 0x0, symName: __ZNSt3__129__split_buffer_pointer_layoutINS_14__split_bufferIdNS_9allocatorIdEES0_EEdS3_E5beginB9nqe220108Ev, symObjAddr: 0xACE0, symBinAddr: 0x10001F424, symSize: 0x18 }
  - { offset: 0x55F8C, size: 0x8, addend: 0x0, symName: __ZNSt3__129__split_buffer_pointer_layoutINS_14__split_bufferIdNS_9allocatorIdEES0_EEdS3_E3endB9nqe220108Ev, symObjAddr: 0xAD58, symBinAddr: 0x10001F49C, symSize: 0x18 }
  - { offset: 0x55FB2, size: 0x8, addend: 0x0, symName: __ZNSt3__16vectorIdNS_9allocatorIdEEE14__swap_layoutsB9nqe220108ERNS_14__split_bufferIdS2_NS_29__split_buffer_pointer_layoutEEE, symObjAddr: 0xAD70, symBinAddr: 0x10001F4B4, symSize: 0x9C }
  - { offset: 0x56041, size: 0x8, addend: 0x0, symName: __ZNKSt3__129__split_buffer_pointer_layoutINS_14__split_bufferIdNS_9allocatorIdEES0_EEdS3_E14__raw_sentinelB9nqe220108Ev, symObjAddr: 0xAE0C, symBinAddr: 0x10001F550, symSize: 0x18 }
  - { offset: 0x56067, size: 0x8, addend: 0x0, symName: __ZNKSt3__129__split_buffer_pointer_layoutINS_14__split_bufferIdNS_9allocatorIdEES0_EEdS3_E14__raw_capacityB9nqe220108Ev, symObjAddr: 0xAE24, symBinAddr: 0x10001F568, symSize: 0x18 }
  - { offset: 0x5608D, size: 0x8, addend: 0x0, symName: __ZNSt3__129__split_buffer_pointer_layoutINS_14__split_bufferIdNS_9allocatorIdEES0_EEdS3_E14__set_capacityB9nqe220108EPd, symObjAddr: 0xAE3C, symBinAddr: 0x10001F580, symSize: 0x20 }
  - { offset: 0x560C1, size: 0x8, addend: 0x0, symName: __ZNSt3__114__split_bufferIdNS_9allocatorIdEENS_29__split_buffer_pointer_layoutEED2Ev, symObjAddr: 0xAE5C, symBinAddr: 0x10001F5A0, symSize: 0x7C }
  - { offset: 0x560F1, size: 0x8, addend: 0x0, symName: __ZNSt3__114__split_bufferIdNS_9allocatorIdEENS_29__split_buffer_pointer_layoutEE5clearB9nqe220108Ev, symObjAddr: 0xAED8, symBinAddr: 0x10001F61C, symSize: 0x34 }
  - { offset: 0x56117, size: 0x8, addend: 0x0, symName: __ZNSt3__114__split_bufferIdNS_9allocatorIdEENS_29__split_buffer_pointer_layoutEE17__destruct_at_endB9nqe220108EPd, symObjAddr: 0xAF0C, symBinAddr: 0x10001F650, symSize: 0x2C }
  - { offset: 0x5614C, size: 0x8, addend: 0x0, symName: __ZNSt3__114__split_bufferIdNS_9allocatorIdEENS_29__split_buffer_pointer_layoutEE17__destruct_at_endB9nqe220108EPdNS_17integral_constantIbLb0EEE, symObjAddr: 0xAF38, symBinAddr: 0x10001F67C, symSize: 0x88 }
  - { offset: 0x5619D, size: 0x8, addend: 0x0, symName: __ZNSt3__129__split_buffer_pointer_layoutINS_14__split_bufferIdNS_9allocatorIdEES0_EEdS3_E14__set_sentinelB9nqe220108EPd, symObjAddr: 0xAFC0, symBinAddr: 0x10001F704, symSize: 0x20 }
  - { offset: 0x561D1, size: 0x8, addend: 0x0, symName: __ZNSt3__121discrete_distributionIiEclINS_23mersenne_twister_engineIjLm32ELm624ELm397ELm31ELj2567483615ELm11ELj4294967295ELm7ELj2636928640ELm15ELj4022730752ELm18ELj1812433253EEEEEiRT_RKNS1_10param_typeE, symObjAddr: 0xAFE0, symBinAddr: 0x10001F724, symSize: 0x94 }
  - { offset: 0x5624E, size: 0x8, addend: 0x0, symName: __ZNSt3__125uniform_real_distributionIdEC1B9nqe220108Ev, symObjAddr: 0xB074, symBinAddr: 0x10001F7B8, symSize: 0x34 }
  - { offset: 0x56278, size: 0x8, addend: 0x0, symName: __ZNKSt3__16vectorIdNS_9allocatorIdEEE5beginB9nqe220108Ev, symObjAddr: 0xB13C, symBinAddr: 0x10001F880, symSize: 0x40 }
  - { offset: 0x5629E, size: 0x8, addend: 0x0, symName: __ZNKSt3__16vectorIdNS_9allocatorIdEEE3endB9nqe220108Ev, symObjAddr: 0xB17C, symBinAddr: 0x10001F8C0, symSize: 0x40 }
  - { offset: 0x562C4, size: 0x8, addend: 0x0, symName: __ZNSt3__125uniform_real_distributionIdEclB9nqe220108INS_23mersenne_twister_engineIjLm32ELm624ELm397ELm31ELj2567483615ELm11ELj4294967295ELm7ELj2636928640ELm15ELj4022730752ELm18ELj1812433253EEEEEdRT_, symObjAddr: 0xB1BC, symBinAddr: 0x10001F900, symSize: 0x30 }
  - { offset: 0x56301, size: 0x8, addend: 0x0, symName: __ZNSt3__125uniform_real_distributionIdEC1B9nqe220108Edd, symObjAddr: 0xB1EC, symBinAddr: 0x10001F930, symSize: 0x3C }
  - { offset: 0x56347, size: 0x8, addend: 0x0, symName: __ZNSt3__125uniform_real_distributionIdEC2B9nqe220108Edd, symObjAddr: 0xB228, symBinAddr: 0x10001F96C, symSize: 0x3C }
  - { offset: 0x5638D, size: 0x8, addend: 0x0, symName: __ZNSt3__125uniform_real_distributionIdE10param_typeC1B9nqe220108Edd, symObjAddr: 0xB264, symBinAddr: 0x10001F9A8, symSize: 0x3C }
  - { offset: 0x563D3, size: 0x8, addend: 0x0, symName: __ZNSt3__125uniform_real_distributionIdE10param_typeC2B9nqe220108Edd, symObjAddr: 0xB2A0, symBinAddr: 0x10001F9E4, symSize: 0x2C }
  - { offset: 0x56419, size: 0x8, addend: 0x0, symName: __ZNKSt3__111__wrap_iterIPKdE4baseB9nqe220108Ev, symObjAddr: 0xB2CC, symBinAddr: 0x10001FA10, symSize: 0x18 }
  - { offset: 0x5643F, size: 0x8, addend: 0x0, symName: __ZNSt3__18_IterOpsINS_17_ClassicAlgPolicyEE8distanceB9nqe220108INS_11__wrap_iterIPKdEEEENS_15iterator_traitsIT_E15difference_typeES9_S9_, symObjAddr: 0xB43C, symBinAddr: 0x10001FB80, symSize: 0x3C }
  - { offset: 0x56479, size: 0x8, addend: 0x0, symName: __ZNSt3__18_IterOpsINS_17_ClassicAlgPolicyEE4nextB9nqe220108IRNS_11__wrap_iterIPKdEEEEu14__remove_cvrefIT_EOS9_NS_15iterator_traitsISA_E15difference_typeE, symObjAddr: 0xB494, symBinAddr: 0x10001FBD8, symSize: 0x40 }
  - { offset: 0x564B3, size: 0x8, addend: 0x0, symName: __ZNKSt3__111__wrap_iterIPKdEdeB9nqe220108Ev, symObjAddr: 0xB534, symBinAddr: 0x10001FC78, symSize: 0x18 }
  - { offset: 0x564D9, size: 0x8, addend: 0x0, symName: __ZNSt3__111__wrap_iterIPKdEppB9nqe220108Ev, symObjAddr: 0xB54C, symBinAddr: 0x10001FC90, symSize: 0x20 }
  - { offset: 0x564FF, size: 0x8, addend: 0x0, symName: __ZNSt3__111__wrap_iterIPKdEpLB9nqe220108El, symObjAddr: 0xB68C, symBinAddr: 0x10001FDD0, symSize: 0x28 }
  - { offset: 0x56533, size: 0x8, addend: 0x0, symName: __ZNKSt3__16__lessIvvEclB9nqe220108IddEEbRKT_RKT0_, symObjAddr: 0xB6B4, symBinAddr: 0x10001FDF8, symSize: 0x30 }
  - { offset: 0x56591, size: 0x8, addend: 0x0, symName: __ZNKSt3__110__identityclB9nqe220108IRKdEEOT_S5_, symObjAddr: 0xB6E4, symBinAddr: 0x10001FE28, symSize: 0x18 }
  - { offset: 0x565CE, size: 0x8, addend: 0x0, symName: __ZNKSt3__16vectorIdNS_9allocatorIdEEE11__make_iterB9nqe220108EPKd, symObjAddr: 0xB6FC, symBinAddr: 0x10001FE40, symSize: 0x30 }
  - { offset: 0x56603, size: 0x8, addend: 0x0, symName: __ZNSt3__111__wrap_iterIPKdEC1B9nqe220108ES2_, symObjAddr: 0xB72C, symBinAddr: 0x10001FE70, symSize: 0x34 }
  - { offset: 0x5663B, size: 0x8, addend: 0x0, symName: __ZNSt3__111__wrap_iterIPKdEC2B9nqe220108ES2_, symObjAddr: 0xB760, symBinAddr: 0x10001FEA4, symSize: 0x20 }
  - { offset: 0x56673, size: 0x8, addend: 0x0, symName: __ZNSt3__125uniform_real_distributionIdEclINS_23mersenne_twister_engineIjLm32ELm624ELm397ELm31ELj2567483615ELm11ELj4294967295ELm7ELj2636928640ELm15ELj4022730752ELm18ELj1812433253EEEEEdRT_RKNS1_10param_typeE, symObjAddr: 0xB780, symBinAddr: 0x10001FEC4, symSize: 0x6C }
  - { offset: 0x566BE, size: 0x8, addend: 0x0, symName: __ZNKSt3__125uniform_real_distributionIdE10param_type1bB9nqe220108Ev, symObjAddr: 0xB7EC, symBinAddr: 0x10001FF30, symSize: 0x18 }
  - { offset: 0x566E4, size: 0x8, addend: 0x0, symName: __ZNKSt3__125uniform_real_distributionIdE10param_type1aB9nqe220108Ev, symObjAddr: 0xB804, symBinAddr: 0x10001FF48, symSize: 0x18 }
  - { offset: 0x5670A, size: 0x8, addend: 0x0, symName: __ZNSt3__123mersenne_twister_engineIjLm32ELm624ELm397ELm31ELj2567483615ELm11ELj4294967295ELm7ELj2636928640ELm15ELj4022730752ELm18ELj1812433253EE3maxB9nqe220108Ev, symObjAddr: 0xB928, symBinAddr: 0x10002006C, symSize: 0x8 }
  - { offset: 0x5671E, size: 0x8, addend: 0x0, symName: __ZNSt3__123mersenne_twister_engineIjLm32ELm624ELm397ELm31ELj2567483615ELm11ELj4294967295ELm7ELj2636928640ELm15ELj4022730752ELm18ELj1812433253EE3minB9nqe220108Ev, symObjAddr: 0xB930, symBinAddr: 0x100020074, symSize: 0x8 }
  - { offset: 0x56732, size: 0x8, addend: 0x0, symName: __ZNSt3__123mersenne_twister_engineIjLm32ELm624ELm397ELm31ELj2567483615ELm11ELj4294967295ELm7ELj2636928640ELm15ELj4022730752ELm18ELj1812433253EEclB9nqe220108Ev, symObjAddr: 0xB938, symBinAddr: 0x10002007C, symSize: 0x14C }
  - { offset: 0x5679E, size: 0x8, addend: 0x0, symName: __ZNSt3__123mersenne_twister_engineIjLm32ELm624ELm397ELm31ELj2567483615ELm11ELj4294967295ELm7ELj2636928640ELm15ELj4022730752ELm18ELj1812433253EE8__rshiftB9nqe220108ILm1ETnNS_9enable_ifIXltT_L_ZNS1_3_DtEEEiE4typeELi0EEEjj, symObjAddr: 0xBA84, symBinAddr: 0x1000201C8, symSize: 0x18 }
  - { offset: 0x567D2, size: 0x8, addend: 0x0, symName: __ZNSt3__123mersenne_twister_engineIjLm32ELm624ELm397ELm31ELj2567483615ELm11ELj4294967295ELm7ELj2636928640ELm15ELj4022730752ELm18ELj1812433253EE8__rshiftB9nqe220108ILm11ETnNS_9enable_ifIXltT_L_ZNS1_3_DtEEEiE4typeELi0EEEjj, symObjAddr: 0xBA9C, symBinAddr: 0x1000201E0, symSize: 0x18 }
  - { offset: 0x56806, size: 0x8, addend: 0x0, symName: __ZNSt3__123mersenne_twister_engineIjLm32ELm624ELm397ELm31ELj2567483615ELm11ELj4294967295ELm7ELj2636928640ELm15ELj4022730752ELm18ELj1812433253EE8__lshiftB9nqe220108ILm7ETnNS_9enable_ifIXltT_Lm32EEiE4typeELi0EEEjj, symObjAddr: 0xBAB4, symBinAddr: 0x1000201F8, symSize: 0x1C }
  - { offset: 0x5683A, size: 0x8, addend: 0x0, symName: __ZNSt3__123mersenne_twister_engineIjLm32ELm624ELm397ELm31ELj2567483615ELm11ELj4294967295ELm7ELj2636928640ELm15ELj4022730752ELm18ELj1812433253EE8__lshiftB9nqe220108ILm15ETnNS_9enable_ifIXltT_Lm32EEiE4typeELi0EEEjj, symObjAddr: 0xBAD0, symBinAddr: 0x100020214, symSize: 0x1C }
  - { offset: 0x5686E, size: 0x8, addend: 0x0, symName: __ZNSt3__123mersenne_twister_engineIjLm32ELm624ELm397ELm31ELj2567483615ELm11ELj4294967295ELm7ELj2636928640ELm15ELj4022730752ELm18ELj1812433253EE8__rshiftB9nqe220108ILm18ETnNS_9enable_ifIXltT_L_ZNS1_3_DtEEEiE4typeELi0EEEjj, symObjAddr: 0xBAEC, symBinAddr: 0x100020230, symSize: 0x18 }
  - { offset: 0x568A2, size: 0x8, addend: 0x0, symName: __ZNKSt3__16__lessIvvEclB9nqe220108IiiEEbRKT_RKT0_, symObjAddr: 0xBB58, symBinAddr: 0x10002029C, symSize: 0x30 }
  - { offset: 0x56900, size: 0x8, addend: 0x0, symName: '__ZZ12sample_top_kP20OPT_token_data_arrayimENK3$_0clERK14OPT_token_dataS4_', symObjAddr: 0xC1C4, symBinAddr: 0x100020908, symSize: 0x30 }
  - { offset: 0x56956, size: 0x8, addend: 0x0, symName: '__ZZ21sample_token_mirostatiP20OPT_token_data_arrayffiPfENK3$_0clERK14OPT_token_data', symObjAddr: 0xDF94, symBinAddr: 0x1000226D8, symSize: 0x30 }
  - { offset: 0x5699E, size: 0x8, addend: 0x0, symName: '__ZZ24sample_token_mirostat_v2P20OPT_token_data_arrayffPfENK3$_0clERK14OPT_token_data', symObjAddr: 0xDFEC, symBinAddr: 0x100022730, symSize: 0x50 }
  - { offset: 0x569E0, size: 0x8, addend: 0x0, symName: '__ZZ24sample_token_mirostat_v2P20OPT_token_data_arrayffPfENK3$_1clERK14OPT_token_data', symObjAddr: 0xE03C, symBinAddr: 0x100022780, symSize: 0x30 }
  - { offset: 0x56A18, size: 0x8, addend: 0x0, symName: __ZNSt3__16vectorIfNS_9allocatorIfEEEC2B9nqe220108Em, symObjAddr: 0xE06C, symBinAddr: 0x1000227B0, symSize: 0xBC }
  - { offset: 0x56A64, size: 0x8, addend: 0x0, symName: __ZNSt3__16vectorIfNS_9allocatorIfEEE11__vallocateB9nqe220108Em, symObjAddr: 0xE168, symBinAddr: 0x1000228AC, symSize: 0x90 }
  - { offset: 0x56AA8, size: 0x8, addend: 0x0, symName: __ZNSt3__16vectorIfNS_9allocatorIfEEE18__construct_at_endEm, symObjAddr: 0xE1F8, symBinAddr: 0x10002293C, symSize: 0xC4 }
  - { offset: 0x56B1A, size: 0x8, addend: 0x0, symName: __ZNSt3__128__exception_guard_exceptionsINS_6vectorIfNS_9allocatorIfEEE16__destroy_vectorEE10__completeB9nqe220108Ev, symObjAddr: 0xE2BC, symBinAddr: 0x100022A00, symSize: 0x1C }
  - { offset: 0x56B40, size: 0x8, addend: 0x0, symName: __ZNSt3__128__exception_guard_exceptionsINS_6vectorIfNS_9allocatorIfEEE16__destroy_vectorEED1B9nqe220108Ev, symObjAddr: 0xE2D8, symBinAddr: 0x100022A1C, symSize: 0x2C }
  - { offset: 0x56B6E, size: 0x8, addend: 0x0, symName: __ZNSt3__128__exception_guard_exceptionsINS_6vectorIfNS_9allocatorIfEEE16__destroy_vectorEEC1B9nqe220108ES5_, symObjAddr: 0xE304, symBinAddr: 0x100022A48, symSize: 0x34 }
  - { offset: 0x56BA6, size: 0x8, addend: 0x0, symName: __ZNSt3__128__exception_guard_exceptionsINS_6vectorIfNS_9allocatorIfEEE16__destroy_vectorEEC2B9nqe220108ES5_, symObjAddr: 0xE338, symBinAddr: 0x100022A7C, symSize: 0x24 }
  - { offset: 0x56BDE, size: 0x8, addend: 0x0, symName: __ZNSt3__116allocator_traitsINS_9allocatorIfEEE9constructB9nqe220108IfJETnNS_9enable_ifIX17__has_construct_vIS2_PT_DpT0_EEiE4typeELi0EEEvRS2_S7_DpOS8_, symObjAddr: 0xE35C, symBinAddr: 0x100022AA0, symSize: 0x2C }
  - { offset: 0x56C25, size: 0x8, addend: 0x0, symName: __ZNSt3__19allocatorIfE9constructB9nqe220108IfJEEEvPT_DpOT0_, symObjAddr: 0xE388, symBinAddr: 0x100022ACC, symSize: 0x1C }
  - { offset: 0x56C67, size: 0x8, addend: 0x0, symName: __ZNSt3__128__exception_guard_exceptionsINS_6vectorIfNS_9allocatorIfEEE16__destroy_vectorEED2B9nqe220108Ev, symObjAddr: 0xE3A4, symBinAddr: 0x100022AE8, symSize: 0x48 }
  - { offset: 0x56C95, size: 0x8, addend: 0x0, symName: __ZNSt3__16vectorImNS_9allocatorImEEEC2B9nqe220108Em, symObjAddr: 0xE3EC, symBinAddr: 0x100022B30, symSize: 0xBC }
  - { offset: 0x56CE1, size: 0x8, addend: 0x0, symName: __ZNSt3__16vectorImNS_9allocatorImEEE16__destroy_vectorC1B9nqe220108ERS3_, symObjAddr: 0xE4E8, symBinAddr: 0x100022C2C, symSize: 0x34 }
  - { offset: 0x56D19, size: 0x8, addend: 0x0, symName: __ZNSt3__16vectorImNS_9allocatorImEEE11__vallocateB9nqe220108Em, symObjAddr: 0xE51C, symBinAddr: 0x100022C60, symSize: 0x90 }
  - { offset: 0x56D5D, size: 0x8, addend: 0x0, symName: __ZNSt3__16vectorImNS_9allocatorImEEE18__construct_at_endEm, symObjAddr: 0xE5AC, symBinAddr: 0x100022CF0, symSize: 0xC4 }
  - { offset: 0x56DCF, size: 0x8, addend: 0x0, symName: __ZNSt3__128__exception_guard_exceptionsINS_6vectorImNS_9allocatorImEEE16__destroy_vectorEE10__completeB9nqe220108Ev, symObjAddr: 0xE670, symBinAddr: 0x100022DB4, symSize: 0x1C }
  - { offset: 0x56DF5, size: 0x8, addend: 0x0, symName: __ZNSt3__128__exception_guard_exceptionsINS_6vectorImNS_9allocatorImEEE16__destroy_vectorEED1B9nqe220108Ev, symObjAddr: 0xE68C, symBinAddr: 0x100022DD0, symSize: 0x2C }
  - { offset: 0x56E23, size: 0x8, addend: 0x0, symName: __ZNSt3__128__exception_guard_exceptionsINS_6vectorImNS_9allocatorImEEE16__destroy_vectorEEC1B9nqe220108ES5_, symObjAddr: 0xE6B8, symBinAddr: 0x100022DFC, symSize: 0x34 }
  - { offset: 0x56E5B, size: 0x8, addend: 0x0, symName: __ZNSt3__128__exception_guard_exceptionsINS_6vectorImNS_9allocatorImEEE16__destroy_vectorEEC2B9nqe220108ES5_, symObjAddr: 0xE6EC, symBinAddr: 0x100022E30, symSize: 0x24 }
  - { offset: 0x56E93, size: 0x8, addend: 0x0, symName: __ZNSt3__16vectorImNS_9allocatorImEEE16__destroy_vectorC2B9nqe220108ERS3_, symObjAddr: 0xE710, symBinAddr: 0x100022E54, symSize: 0x20 }
  - { offset: 0x56ECB, size: 0x8, addend: 0x0, symName: __ZNKSt3__16vectorImNS_9allocatorImEEE8max_sizeB9nqe220108Ev, symObjAddr: 0xE730, symBinAddr: 0x100022E74, symSize: 0x60 }
  - { offset: 0x56EF1, size: 0x8, addend: 0x0, symName: __ZNSt3__16vectorImNS_9allocatorImEEE20__throw_length_errorB9nqe220108Ev, symObjAddr: 0xE790, symBinAddr: 0x100022ED4, symSize: 0x14 }
  - { offset: 0x56F05, size: 0x8, addend: 0x0, symName: __ZNKSt3__16vectorImNS_9allocatorImEEE14__annotate_newB9nqe220108Em, symObjAddr: 0xE7E8, symBinAddr: 0x100022F2C, symSize: 0x74 }
  - { offset: 0x56F45, size: 0x8, addend: 0x0, symName: __ZNSt3__116allocator_traitsINS_9allocatorImEEE8max_sizeB9nqe220108IS2_TnNS_9enable_ifIX16__has_max_size_vIKT_EEiE4typeELi0EEEmRKS2_, symObjAddr: 0xE85C, symBinAddr: 0x100022FA0, symSize: 0x24 }
  - { offset: 0x56F78, size: 0x8, addend: 0x0, symName: __ZNKSt3__19allocatorImE8max_sizeB9nqe220108Ev, symObjAddr: 0xE880, symBinAddr: 0x100022FC4, symSize: 0x14 }
  - { offset: 0x56F9E, size: 0x8, addend: 0x0, symName: __ZNSt3__19allocatorImE8allocateB9nqe220108Em, symObjAddr: 0xE894, symBinAddr: 0x100022FD8, symSize: 0x50 }
  - { offset: 0x56FD7, size: 0x8, addend: 0x0, symName: __ZNSt3__119__allocation_resultIPmmEC1B9nqe220108ES1_m, symObjAddr: 0xE8E4, symBinAddr: 0x100023028, symSize: 0x3C }
  - { offset: 0x5701D, size: 0x8, addend: 0x0, symName: __ZNSt3__119__allocation_resultIPmmEC2B9nqe220108ES1_m, symObjAddr: 0xE954, symBinAddr: 0x100023098, symSize: 0x2C }
  - { offset: 0x57063, size: 0x8, addend: 0x0, symName: __ZNKSt3__16vectorImNS_9allocatorImEEE31__annotate_contiguous_containerB9nqe220108EPKvS5_, symObjAddr: 0xE980, symBinAddr: 0x1000230C4, symSize: 0x6C }
  - { offset: 0x570A7, size: 0x8, addend: 0x0, symName: __ZNKSt3__16vectorImNS_9allocatorImEEE4dataB9nqe220108Ev, symObjAddr: 0xE9EC, symBinAddr: 0x100023130, symSize: 0x28 }
  - { offset: 0x570CD, size: 0x8, addend: 0x0, symName: __ZNKSt3__16vectorImNS_9allocatorImEEE8capacityB9nqe220108Ev, symObjAddr: 0xEA14, symBinAddr: 0x100023158, symSize: 0x28 }
  - { offset: 0x5710E, size: 0x8, addend: 0x0, symName: __ZNSt3__16vectorImNS_9allocatorImEEE21_ConstructTransactionC1B9nqe220108ERS3_m, symObjAddr: 0xEA6C, symBinAddr: 0x1000231B0, symSize: 0x3C }
  - { offset: 0x57156, size: 0x8, addend: 0x0, symName: __ZNSt3__116allocator_traitsINS_9allocatorImEEE9constructB9nqe220108ImJETnNS_9enable_ifIX17__has_construct_vIS2_PT_DpT0_EEiE4typeELi0EEEvRS2_S7_DpOS8_, symObjAddr: 0xEAA8, symBinAddr: 0x1000231EC, symSize: 0x2C }
  - { offset: 0x5719D, size: 0x8, addend: 0x0, symName: __ZNSt3__16vectorImNS_9allocatorImEEE21_ConstructTransactionD1B9nqe220108Ev, symObjAddr: 0xEAD4, symBinAddr: 0x100023218, symSize: 0x2C }
  - { offset: 0x571CB, size: 0x8, addend: 0x0, symName: __ZNSt3__16vectorImNS_9allocatorImEEE21_ConstructTransactionC2B9nqe220108ERS3_m, symObjAddr: 0xEB00, symBinAddr: 0x100023244, symSize: 0x64 }
  - { offset: 0x57213, size: 0x8, addend: 0x0, symName: __ZNKSt3__16vectorImNS_9allocatorImEEE19__annotate_increaseB9nqe220108Em, symObjAddr: 0xEB64, symBinAddr: 0x1000232A8, symSize: 0x8C }
  - { offset: 0x57248, size: 0x8, addend: 0x0, symName: __ZNSt3__19allocatorImE9constructB9nqe220108ImJEEEvPT_DpOT0_, symObjAddr: 0xEBF0, symBinAddr: 0x100023334, symSize: 0x1C }
  - { offset: 0x5728A, size: 0x8, addend: 0x0, symName: __ZNSt3__16vectorImNS_9allocatorImEEE21_ConstructTransactionD2B9nqe220108Ev, symObjAddr: 0xEC0C, symBinAddr: 0x100023350, symSize: 0x78 }
  - { offset: 0x572B8, size: 0x8, addend: 0x0, symName: __ZNKSt3__16vectorImNS_9allocatorImEEE17__annotate_shrinkB9nqe220108Em, symObjAddr: 0xEC84, symBinAddr: 0x1000233C8, symSize: 0x7C }
  - { offset: 0x572ED, size: 0x8, addend: 0x0, symName: __ZNSt3__128__exception_guard_exceptionsINS_6vectorImNS_9allocatorImEEE16__destroy_vectorEED2B9nqe220108Ev, symObjAddr: 0xED00, symBinAddr: 0x100023444, symSize: 0x50 }
  - { offset: 0x5731B, size: 0x8, addend: 0x0, symName: __ZNSt3__16vectorImNS_9allocatorImEEE16__destroy_vectorclB9nqe220108Ev, symObjAddr: 0xED50, symBinAddr: 0x100023494, symSize: 0x84 }
  - { offset: 0x57341, size: 0x8, addend: 0x0, symName: __ZNSt3__16vectorImNS_9allocatorImEEE5clearB9nqe220108Ev, symObjAddr: 0xEDD4, symBinAddr: 0x100023518, symSize: 0x48 }
  - { offset: 0x57376, size: 0x8, addend: 0x0, symName: __ZNKSt3__16vectorImNS_9allocatorImEEE17__annotate_deleteB9nqe220108Ev, symObjAddr: 0xEE1C, symBinAddr: 0x100023560, symSize: 0x80 }
  - { offset: 0x5739C, size: 0x8, addend: 0x0, symName: __ZNSt3__116allocator_traitsINS_9allocatorImEEE10deallocateB9nqe220108ERS2_Pmm, symObjAddr: 0xEE9C, symBinAddr: 0x1000235E0, symSize: 0x34 }
  - { offset: 0x573DE, size: 0x8, addend: 0x0, symName: __ZNSt3__16vectorImNS_9allocatorImEEE22__base_destruct_at_endB9nqe220108EPm, symObjAddr: 0xEED0, symBinAddr: 0x100023614, symSize: 0x88 }
  - { offset: 0x57422, size: 0x8, addend: 0x0, symName: __ZNSt3__116allocator_traitsINS_9allocatorImEEE7destroyB9nqe220108ImTnNS_9enable_ifIX15__has_destroy_vIS2_PT_EEiE4typeELi0EEEvRS2_S7_, symObjAddr: 0xEF58, symBinAddr: 0x10002369C, symSize: 0x2C }
  - { offset: 0x57464, size: 0x8, addend: 0x0, symName: __ZNSt3__19allocatorImE7destroyB9nqe220108EPm, symObjAddr: 0xEF84, symBinAddr: 0x1000236C8, symSize: 0x14 }
  - { offset: 0x57498, size: 0x8, addend: 0x0, symName: __ZNSt3__19allocatorImE10deallocateB9nqe220108EPmm, symObjAddr: 0xEF98, symBinAddr: 0x1000236DC, symSize: 0x34 }
  - { offset: 0x574DA, size: 0x8, addend: 0x0, symName: __ZNSt3__16vectorImNS_9allocatorImEEED2B9nqe220108Ev, symObjAddr: 0xF004, symBinAddr: 0x100023748, symSize: 0x40 }
  - { offset: 0x57508, size: 0x8, addend: 0x0, symName: __ZNSt3__16vectorImNS_9allocatorImEEE11__make_iterB9nqe220108EPm, symObjAddr: 0xF044, symBinAddr: 0x100023788, symSize: 0x30 }
  - { offset: 0x5753D, size: 0x8, addend: 0x0, symName: __ZNSt3__16vectorImNS_9allocatorImEEE26__add_alignment_assumptionB9nqe220108IPmTnNS_9enable_ifIXsr10is_pointerIT_EE5valueEiE4typeELi0EEES5_S7_, symObjAddr: 0xF074, symBinAddr: 0x1000237B8, symSize: 0x14 }
  - { offset: 0x57570, size: 0x8, addend: 0x0, symName: __ZNSt3__111__wrap_iterIPmEC1B9nqe220108ES1_, symObjAddr: 0xF088, symBinAddr: 0x1000237CC, symSize: 0x34 }
  - { offset: 0x575A8, size: 0x8, addend: 0x0, symName: __ZNSt3__111__wrap_iterIPmEC2B9nqe220108ES1_, symObjAddr: 0xF0BC, symBinAddr: 0x100023800, symSize: 0x20 }
  - { offset: 0x575E0, size: 0x8, addend: 0x0, symName: __ZNKSt3__111__wrap_iterIPmEdeB9nqe220108Ev, symObjAddr: 0xF10C, symBinAddr: 0x100023850, symSize: 0x18 }
  - { offset: 0x57606, size: 0x8, addend: 0x0, symName: __ZNSt3__111__wrap_iterIPmEppB9nqe220108Ev, symObjAddr: 0xF124, symBinAddr: 0x100023868, symSize: 0x20 }
  - { offset: 0x5762C, size: 0x8, addend: 0x0, symName: __ZNKSt3__111__wrap_iterIPmE4baseB9nqe220108Ev, symObjAddr: 0xF188, symBinAddr: 0x1000238CC, symSize: 0x18 }
  - { offset: 0x5765C, size: 0x8, addend: 0x0, symName: '__ZZ14sample_typicalP20OPT_token_data_arrayfmENK3$_0clEmm', symObjAddr: 0xF7C8, symBinAddr: 0x100023F0C, symSize: 0x60 }
  - { offset: 0x576AA, size: 0x8, addend: 0x0, symName: __ZNSt3__18_IterOpsINS_17_ClassicAlgPolicyEE9iter_swapB9nqe220108IRPmS5_EEvOT_OT0_, symObjAddr: 0xF828, symBinAddr: 0x100023F6C, symSize: 0x34 }
  - { offset: 0x576F3, size: 0x8, addend: 0x0, symName: __ZNSt3__18_IterOpsINS_17_ClassicAlgPolicyEE9iter_swapB9nqe220108IRPmS4_EEvOT_OT0_, symObjAddr: 0xFE9C, symBinAddr: 0x1000245E0, symSize: 0x34 }
  - { offset: 0x5773C, size: 0x8, addend: 0x0, symName: __ZNSt3__18_IterOpsINS_17_ClassicAlgPolicyEE11__iter_moveB9nqe220108IRPmTnNS_9enable_ifIXsr12is_referenceIDTdeclsr3stdE7declvalIRT_EEEEE5valueEiE4typeELi0EEEDTclsr3stdE4movedeclsr3stdE7declvalIS8_EEEEOS7_, symObjAddr: 0x10A20, symBinAddr: 0x100025164, symSize: 0x28 }
  - { offset: 0x5776E, size: 0x8, addend: 0x0, symName: __ZNSt3__18_IterOpsINS_17_ClassicAlgPolicyEE25__validate_iter_referenceB9nqe220108IRPmEEvv, symObjAddr: 0x10A48, symBinAddr: 0x10002518C, symSize: 0x4 }
  - { offset: 0x5778C, size: 0x8, addend: 0x0, symName: __ZNSt3__18_IterOpsINS_17_ClassicAlgPolicyEE4nextB9nqe220108IPmEET_S5_S5_, symObjAddr: 0x10A4C, symBinAddr: 0x100025190, symSize: 0x18 }
  - { offset: 0x577C2, size: 0x8, addend: 0x0, symName: __ZNSt3__18_IterOpsINS_17_ClassicAlgPolicyEE11__iter_moveB9nqe220108IPmTnNS_9enable_ifIXsr12is_referenceIDTdeclsr3stdE7declvalIRT_EEEEE5valueEiE4typeELi0EEEDTclsr3stdE4movedeclsr3stdE7declvalIS7_EEEEOS6_, symObjAddr: 0x11220, symBinAddr: 0x100025964, symSize: 0x28 }
  - { offset: 0x577F4, size: 0x8, addend: 0x0, symName: __ZNSt3__18_IterOpsINS_17_ClassicAlgPolicyEE25__validate_iter_referenceB9nqe220108IPmEEvv, symObjAddr: 0x11248, symBinAddr: 0x10002598C, symSize: 0x4 }
  - { offset: 0x57812, size: 0x8, addend: 0x0, symName: __ZNSt3__18_IterOpsINS_17_ClassicAlgPolicyEE9iter_swapB9nqe220108IPmS4_EEvOT_OT0_, symObjAddr: 0x11B1C, symBinAddr: 0x100026260, symSize: 0x34 }
  - { offset: 0x57871, size: 0x8, addend: 0x0, symName: __ZNSt3__14pairIPmbEC1B9nqe220108IRS1_RbTnNS_9enable_ifIXclsr25__check_pair_constructionIS1_bEE23__is_pair_constructibleIT_T0_EEEiE4typeELi0EEEOS7_OS8_, symObjAddr: 0x11B50, symBinAddr: 0x100026294, symSize: 0x3C }
  - { offset: 0x578CF, size: 0x8, addend: 0x0, symName: __ZNSt3__14pairIPmbEC2B9nqe220108IRS1_RbTnNS_9enable_ifIXclsr25__check_pair_constructionIS1_bEE23__is_pair_constructibleIT_T0_EEEiE4typeELi0EEEOS7_OS8_, symObjAddr: 0x11B8C, symBinAddr: 0x1000262D0, symSize: 0x38 }
  - { offset: 0x57932, size: 0x8, addend: 0x0, symName: __ZNSt3__118__unwrap_iter_implINS_11__wrap_iterIPmEELb1EE8__unwrapB9nqe220108ES3_, symObjAddr: 0x11BC4, symBinAddr: 0x100026308, symSize: 0x28 }
  - { offset: 0x5795B, size: 0x8, addend: 0x0, symName: __ZNSt3__119__to_address_helperINS_11__wrap_iterIPmEEvE6__callB9nqe220108ERKS3_, symObjAddr: 0x11C10, symBinAddr: 0x100026354, symSize: 0x30 }
  - { offset: 0x5797E, size: 0x8, addend: 0x0, symName: __ZNSt3__114pointer_traitsINS_11__wrap_iterIPmEEE10to_addressB9nqe220108ES3_, symObjAddr: 0x11C40, symBinAddr: 0x100026384, symSize: 0x2C }
  - { offset: 0x579A1, size: 0x8, addend: 0x0, symName: __ZNSt3__16vectorI14OPT_token_dataNS_9allocatorIS1_EEEC2B9nqe220108Ev, symObjAddr: 0x11C6C, symBinAddr: 0x1000263B0, symSize: 0x20 }
  - { offset: 0x579CB, size: 0x8, addend: 0x0, symName: __ZNSt3__16vectorI14OPT_token_dataNS_9allocatorIS1_EEED2B9nqe220108Ev, symObjAddr: 0x11C8C, symBinAddr: 0x1000263D0, symSize: 0x44 }
  - { offset: 0x579F9, size: 0x8, addend: 0x0, symName: __ZNSt3__16vectorI14OPT_token_dataNS_9allocatorIS1_EEE16__destroy_vectorC1B9nqe220108ERS4_, symObjAddr: 0x11CD0, symBinAddr: 0x100026414, symSize: 0x34 }
  - { offset: 0x57A31, size: 0x8, addend: 0x0, symName: __ZNSt3__16vectorI14OPT_token_dataNS_9allocatorIS1_EEE16__destroy_vectorclB9nqe220108Ev, symObjAddr: 0x11D04, symBinAddr: 0x100026448, symSize: 0x84 }
  - { offset: 0x57A57, size: 0x8, addend: 0x0, symName: __ZNSt3__16vectorI14OPT_token_dataNS_9allocatorIS1_EEE16__destroy_vectorC2B9nqe220108ERS4_, symObjAddr: 0x11D88, symBinAddr: 0x1000264CC, symSize: 0x20 }
  - { offset: 0x57A8F, size: 0x8, addend: 0x0, symName: __ZNSt3__16vectorI14OPT_token_dataNS_9allocatorIS1_EEE5clearB9nqe220108Ev, symObjAddr: 0x11DA8, symBinAddr: 0x1000264EC, symSize: 0x48 }
  - { offset: 0x57AC4, size: 0x8, addend: 0x0, symName: __ZNKSt3__16vectorI14OPT_token_dataNS_9allocatorIS1_EEE17__annotate_deleteB9nqe220108Ev, symObjAddr: 0x11DF0, symBinAddr: 0x100026534, symSize: 0x94 }
  - { offset: 0x57AEA, size: 0x8, addend: 0x0, symName: __ZNSt3__116allocator_traitsINS_9allocatorI14OPT_token_dataEEE10deallocateB9nqe220108ERS3_PS2_m, symObjAddr: 0x11E84, symBinAddr: 0x1000265C8, symSize: 0x34 }
  - { offset: 0x57B2C, size: 0x8, addend: 0x0, symName: __ZNKSt3__16vectorI14OPT_token_dataNS_9allocatorIS1_EEE8capacityB9nqe220108Ev, symObjAddr: 0x11EB8, symBinAddr: 0x1000265FC, symSize: 0x28 }
  - { offset: 0x57B52, size: 0x8, addend: 0x0, symName: __ZNSt3__16vectorI14OPT_token_dataNS_9allocatorIS1_EEE22__base_destruct_at_endB9nqe220108EPS1_, symObjAddr: 0x11EE0, symBinAddr: 0x100026624, symSize: 0x88 }
  - { offset: 0x57B96, size: 0x8, addend: 0x0, symName: __ZNKSt3__16vectorI14OPT_token_dataNS_9allocatorIS1_EEE17__annotate_shrinkB9nqe220108Em, symObjAddr: 0x11F68, symBinAddr: 0x1000266AC, symSize: 0x90 }
  - { offset: 0x57BCB, size: 0x8, addend: 0x0, symName: __ZNSt3__116allocator_traitsINS_9allocatorI14OPT_token_dataEEE7destroyB9nqe220108IS2_TnNS_9enable_ifIX15__has_destroy_vIS3_PT_EEiE4typeELi0EEEvRS3_S8_, symObjAddr: 0x11FF8, symBinAddr: 0x10002673C, symSize: 0x2C }
  - { offset: 0x57C0D, size: 0x8, addend: 0x0, symName: __ZNSt3__19allocatorI14OPT_token_dataE7destroyB9nqe220108EPS1_, symObjAddr: 0x12024, symBinAddr: 0x100026768, symSize: 0x14 }
  - { offset: 0x57C41, size: 0x8, addend: 0x0, symName: __ZNKSt3__16vectorI14OPT_token_dataNS_9allocatorIS1_EEE31__annotate_contiguous_containerB9nqe220108EPKvS6_, symObjAddr: 0x12038, symBinAddr: 0x10002677C, symSize: 0x74 }
  - { offset: 0x57C85, size: 0x8, addend: 0x0, symName: __ZNKSt3__16vectorI14OPT_token_dataNS_9allocatorIS1_EEE4dataB9nqe220108Ev, symObjAddr: 0x120AC, symBinAddr: 0x1000267F0, symSize: 0x28 }
  - { offset: 0x57CAB, size: 0x8, addend: 0x0, symName: __ZNSt3__19allocatorI14OPT_token_dataE10deallocateB9nqe220108EPS1_m, symObjAddr: 0x120F0, symBinAddr: 0x100026834, symSize: 0x34 }
  - { offset: 0x57CED, size: 0x8, addend: 0x0, symName: __ZNSt3__16vectorI14OPT_token_dataNS_9allocatorIS1_EEE12emplace_backIJRKS1_EEEvDpOT_, symObjAddr: 0x12160, symBinAddr: 0x1000268A4, symSize: 0x84 }
  - { offset: 0x57DCB, size: 0x8, addend: 0x0, symName: __ZZNSt3__16vectorI14OPT_token_dataNS_9allocatorIS1_EEE12emplace_backIJRKS1_EEEvDpOT_ENKUlvE_clEv, symObjAddr: 0x1223C, symBinAddr: 0x100026980, symSize: 0x44 }
  - { offset: 0x57DFF, size: 0x8, addend: 0x0, symName: __ZZNSt3__16vectorI14OPT_token_dataNS_9allocatorIS1_EEE12emplace_backIJRKS1_EEEvDpOT_ENKUlvE0_clEv, symObjAddr: 0x12280, symBinAddr: 0x1000269C4, symSize: 0x3C }
  - { offset: 0x57E29, size: 0x8, addend: 0x0, symName: __ZNSt3__16vectorI14OPT_token_dataNS_9allocatorIS1_EEE30__emplace_back_assume_capacityB9nqe220108IJRKS1_EEEvDpOT_, symObjAddr: 0x122BC, symBinAddr: 0x100026A00, symSize: 0x88 }
  - { offset: 0x57E93, size: 0x8, addend: 0x0, symName: __ZNSt3__16vectorI14OPT_token_dataNS_9allocatorIS1_EEE21_ConstructTransactionC1B9nqe220108ERS4_m, symObjAddr: 0x12344, symBinAddr: 0x100026A88, symSize: 0x3C }
  - { offset: 0x57EDB, size: 0x8, addend: 0x0, symName: __ZNSt3__116allocator_traitsINS_9allocatorI14OPT_token_dataEEE9constructB9nqe220108IS2_JRKS2_ETnNS_9enable_ifIX17__has_construct_vIS3_PT_DpT0_EEiE4typeELi0EEEvRS3_SA_DpOSB_, symObjAddr: 0x12380, symBinAddr: 0x100026AC4, symSize: 0x34 }
  - { offset: 0x57F37, size: 0x8, addend: 0x0, symName: __ZNSt3__16vectorI14OPT_token_dataNS_9allocatorIS1_EEE21_ConstructTransactionD1B9nqe220108Ev, symObjAddr: 0x123B4, symBinAddr: 0x100026AF8, symSize: 0x2C }
  - { offset: 0x57F65, size: 0x8, addend: 0x0, symName: __ZNSt3__16vectorI14OPT_token_dataNS_9allocatorIS1_EEE21_ConstructTransactionC2B9nqe220108ERS4_m, symObjAddr: 0x123E0, symBinAddr: 0x100026B24, symSize: 0x6C }
  - { offset: 0x57FAD, size: 0x8, addend: 0x0, symName: __ZNKSt3__16vectorI14OPT_token_dataNS_9allocatorIS1_EEE19__annotate_increaseB9nqe220108Em, symObjAddr: 0x1244C, symBinAddr: 0x100026B90, symSize: 0xA4 }
  - { offset: 0x57FE2, size: 0x8, addend: 0x0, symName: __ZNSt3__19allocatorI14OPT_token_dataE9constructB9nqe220108IS1_JRKS1_EEEvPT_DpOT0_, symObjAddr: 0x124F0, symBinAddr: 0x100026C34, symSize: 0x30 }
  - { offset: 0x58038, size: 0x8, addend: 0x0, symName: __ZNSt3__16vectorI14OPT_token_dataNS_9allocatorIS1_EEE21_ConstructTransactionD2B9nqe220108Ev, symObjAddr: 0x12520, symBinAddr: 0x100026C64, symSize: 0x78 }
  - { offset: 0x58066, size: 0x8, addend: 0x0, symName: __ZNSt3__16vectorI14OPT_token_dataNS_9allocatorIS1_EEE24__emplace_back_slow_pathIJRKS1_EEEPS1_DpOT_, symObjAddr: 0x12598, symBinAddr: 0x100026CDC, symSize: 0xF8 }
  - { offset: 0x580C4, size: 0x8, addend: 0x0, symName: __ZNKSt3__16vectorI14OPT_token_dataNS_9allocatorIS1_EEE11__recommendB9nqe220108Em, symObjAddr: 0x12690, symBinAddr: 0x100026DD4, symSize: 0xA8 }
  - { offset: 0x58119, size: 0x8, addend: 0x0, symName: __ZNSt3__114__split_bufferI14OPT_token_dataNS_9allocatorIS1_EENS_29__split_buffer_pointer_layoutEEC1EmmRS3_, symObjAddr: 0x12738, symBinAddr: 0x100026E7C, symSize: 0x44 }
  - { offset: 0x58172, size: 0x8, addend: 0x0, symName: __ZNSt3__129__split_buffer_pointer_layoutINS_14__split_bufferI14OPT_token_dataNS_9allocatorIS2_EES0_EES2_S4_E3endB9nqe220108Ev, symObjAddr: 0x1277C, symBinAddr: 0x100026EC0, symSize: 0x18 }
  - { offset: 0x58198, size: 0x8, addend: 0x0, symName: __ZNSt3__129__split_buffer_pointer_layoutINS_14__split_bufferI14OPT_token_dataNS_9allocatorIS2_EES0_EES2_S4_E14__set_sentinelB9nqe220108EPS2_, symObjAddr: 0x12794, symBinAddr: 0x100026ED8, symSize: 0x20 }
  - { offset: 0x581CC, size: 0x8, addend: 0x0, symName: __ZNSt3__16vectorI14OPT_token_dataNS_9allocatorIS1_EEE26__swap_out_circular_bufferERNS_14__split_bufferIS1_S3_NS_29__split_buffer_pointer_layoutEEE, symObjAddr: 0x127B4, symBinAddr: 0x100026EF8, symSize: 0x108 }
  - { offset: 0x58212, size: 0x8, addend: 0x0, symName: __ZNSt3__114__split_bufferI14OPT_token_dataNS_9allocatorIS1_EENS_29__split_buffer_pointer_layoutEED1Ev, symObjAddr: 0x128BC, symBinAddr: 0x100027000, symSize: 0x2C }
  - { offset: 0x58242, size: 0x8, addend: 0x0, symName: __ZNKSt3__16vectorI14OPT_token_dataNS_9allocatorIS1_EEE8max_sizeB9nqe220108Ev, symObjAddr: 0x128E8, symBinAddr: 0x10002702C, symSize: 0x60 }
  - { offset: 0x58268, size: 0x8, addend: 0x0, symName: __ZNSt3__16vectorI14OPT_token_dataNS_9allocatorIS1_EEE20__throw_length_errorB9nqe220108Ev, symObjAddr: 0x12948, symBinAddr: 0x10002708C, symSize: 0x14 }
  - { offset: 0x58287, size: 0x8, addend: 0x0, symName: __ZNSt3__116allocator_traitsINS_9allocatorI14OPT_token_dataEEE8max_sizeB9nqe220108IS3_TnNS_9enable_ifIX16__has_max_size_vIKT_EEiE4typeELi0EEEmRKS3_, symObjAddr: 0x1295C, symBinAddr: 0x1000270A0, symSize: 0x24 }
  - { offset: 0x582BA, size: 0x8, addend: 0x0, symName: __ZNKSt3__19allocatorI14OPT_token_dataE8max_sizeB9nqe220108Ev, symObjAddr: 0x12980, symBinAddr: 0x1000270C4, symSize: 0x18 }
  - { offset: 0x582E0, size: 0x8, addend: 0x0, symName: __ZNSt3__114__split_bufferI14OPT_token_dataNS_9allocatorIS1_EENS_29__split_buffer_pointer_layoutEEC2EmmRS3_, symObjAddr: 0x12998, symBinAddr: 0x1000270DC, symSize: 0xC0 }
  - { offset: 0x58373, size: 0x8, addend: 0x0, symName: __ZNSt3__129__split_buffer_pointer_layoutINS_14__split_bufferI14OPT_token_dataNS_9allocatorIS2_EES0_EES2_S4_EC2B9nqe220108ERKS4_, symObjAddr: 0x12A58, symBinAddr: 0x10002719C, symSize: 0x28 }
  - { offset: 0x583AB, size: 0x8, addend: 0x0, symName: __ZNSt3__129__split_buffer_pointer_layoutINS_14__split_bufferI14OPT_token_dataNS_9allocatorIS2_EES0_EES2_S4_E15__get_allocatorB9nqe220108Ev, symObjAddr: 0x12AC4, symBinAddr: 0x100027208, symSize: 0x18 }
  - { offset: 0x583D1, size: 0x8, addend: 0x0, symName: __ZNSt3__129__split_buffer_pointer_layoutINS_14__split_bufferI14OPT_token_dataNS_9allocatorIS2_EES0_EES2_S4_E10__set_dataB9nqe220108EPS2_, symObjAddr: 0x12ADC, symBinAddr: 0x100027220, symSize: 0x20 }
  - { offset: 0x58405, size: 0x8, addend: 0x0, symName: __ZNSt3__129__split_buffer_pointer_layoutINS_14__split_bufferI14OPT_token_dataNS_9allocatorIS2_EES0_EES2_S4_E11__front_capB9nqe220108Ev, symObjAddr: 0x12AFC, symBinAddr: 0x100027240, symSize: 0x18 }
  - { offset: 0x5842B, size: 0x8, addend: 0x0, symName: __ZNSt3__129__split_buffer_pointer_layoutINS_14__split_bufferI14OPT_token_dataNS_9allocatorIS2_EES0_EES2_S4_E17__set_valid_rangeB9nqe220108EPS2_S7_, symObjAddr: 0x12B14, symBinAddr: 0x100027258, symSize: 0x2C }
  - { offset: 0x5846D, size: 0x8, addend: 0x0, symName: __ZNSt3__129__split_buffer_pointer_layoutINS_14__split_bufferI14OPT_token_dataNS_9allocatorIS2_EES0_EES2_S4_E14__set_capacityB9nqe220108Em, symObjAddr: 0x12B40, symBinAddr: 0x100027284, symSize: 0x30 }
  - { offset: 0x584A1, size: 0x8, addend: 0x0, symName: __ZNSt3__19allocatorI14OPT_token_dataE8allocateB9nqe220108Em, symObjAddr: 0x12B70, symBinAddr: 0x1000272B4, symSize: 0x50 }
  - { offset: 0x584DA, size: 0x8, addend: 0x0, symName: __ZNSt3__119__allocation_resultIP14OPT_token_datamEC1B9nqe220108ES2_m, symObjAddr: 0x12BC0, symBinAddr: 0x100027304, symSize: 0x3C }
  - { offset: 0x58520, size: 0x8, addend: 0x0, symName: __ZNSt3__119__allocation_resultIP14OPT_token_datamEC2B9nqe220108ES2_m, symObjAddr: 0x12C34, symBinAddr: 0x100027378, symSize: 0x2C }
  - { offset: 0x58566, size: 0x8, addend: 0x0, symName: __ZNSt3__129__split_buffer_pointer_layoutINS_14__split_bufferI14OPT_token_dataNS_9allocatorIS2_EES0_EES2_S4_E5beginB9nqe220108Ev, symObjAddr: 0x12C60, symBinAddr: 0x1000273A4, symSize: 0x18 }
  - { offset: 0x5858C, size: 0x8, addend: 0x0, symName: __ZNSt3__16vectorI14OPT_token_dataNS_9allocatorIS1_EEE14__swap_layoutsB9nqe220108ERNS_14__split_bufferIS1_S3_NS_29__split_buffer_pointer_layoutEEE, symObjAddr: 0x12CD8, symBinAddr: 0x10002741C, symSize: 0x9C }
  - { offset: 0x5861B, size: 0x8, addend: 0x0, symName: __ZNKSt3__16vectorI14OPT_token_dataNS_9allocatorIS1_EEE14__annotate_newB9nqe220108Em, symObjAddr: 0x12D74, symBinAddr: 0x1000274B8, symSize: 0x88 }
  - { offset: 0x58650, size: 0x8, addend: 0x0, symName: __ZNKSt3__129__split_buffer_pointer_layoutINS_14__split_bufferI14OPT_token_dataNS_9allocatorIS2_EES0_EES2_S4_E14__raw_sentinelB9nqe220108Ev, symObjAddr: 0x12DFC, symBinAddr: 0x100027540, symSize: 0x18 }
  - { offset: 0x58676, size: 0x8, addend: 0x0, symName: __ZNKSt3__129__split_buffer_pointer_layoutINS_14__split_bufferI14OPT_token_dataNS_9allocatorIS2_EES0_EES2_S4_E14__raw_capacityB9nqe220108Ev, symObjAddr: 0x12E14, symBinAddr: 0x100027558, symSize: 0x18 }
  - { offset: 0x5869C, size: 0x8, addend: 0x0, symName: __ZNSt3__129__split_buffer_pointer_layoutINS_14__split_bufferI14OPT_token_dataNS_9allocatorIS2_EES0_EES2_S4_E14__set_capacityB9nqe220108EPS2_, symObjAddr: 0x12E2C, symBinAddr: 0x100027570, symSize: 0x20 }
  - { offset: 0x586D0, size: 0x8, addend: 0x0, symName: __ZNSt3__114__split_bufferI14OPT_token_dataNS_9allocatorIS1_EENS_29__split_buffer_pointer_layoutEED2Ev, symObjAddr: 0x12E4C, symBinAddr: 0x100027590, symSize: 0x7C }
  - { offset: 0x58700, size: 0x8, addend: 0x0, symName: __ZNSt3__114__split_bufferI14OPT_token_dataNS_9allocatorIS1_EENS_29__split_buffer_pointer_layoutEE5clearB9nqe220108Ev, symObjAddr: 0x12EC8, symBinAddr: 0x10002760C, symSize: 0x34 }
  - { offset: 0x58726, size: 0x8, addend: 0x0, symName: __ZNKSt3__129__split_buffer_pointer_layoutINS_14__split_bufferI14OPT_token_dataNS_9allocatorIS2_EES0_EES2_S4_E8capacityB9nqe220108Ev, symObjAddr: 0x12EFC, symBinAddr: 0x100027640, symSize: 0x28 }
  - { offset: 0x5874C, size: 0x8, addend: 0x0, symName: __ZNSt3__114__split_bufferI14OPT_token_dataNS_9allocatorIS1_EENS_29__split_buffer_pointer_layoutEE17__destruct_at_endB9nqe220108EPS1_, symObjAddr: 0x12F24, symBinAddr: 0x100027668, symSize: 0x2C }
  - { offset: 0x58781, size: 0x8, addend: 0x0, symName: __ZNSt3__114__split_bufferI14OPT_token_dataNS_9allocatorIS1_EENS_29__split_buffer_pointer_layoutEE17__destruct_at_endB9nqe220108EPS1_NS_17integral_constantIbLb0EEE, symObjAddr: 0x12F50, symBinAddr: 0x100027694, symSize: 0x88 }
  - { offset: 0x587D2, size: 0x8, addend: 0x0, symName: __ZNSt3__16vectorI14OPT_token_dataNS_9allocatorIS1_EEE11__make_iterB9nqe220108EPS1_, symObjAddr: 0x12FD8, symBinAddr: 0x10002771C, symSize: 0x30 }
  - { offset: 0x58807, size: 0x8, addend: 0x0, symName: __ZNSt3__16vectorI14OPT_token_dataNS_9allocatorIS1_EEE26__add_alignment_assumptionB9nqe220108IPS1_TnNS_9enable_ifIXsr10is_pointerIT_EE5valueEiE4typeELi0EEES6_S8_, symObjAddr: 0x13008, symBinAddr: 0x10002774C, symSize: 0x14 }
  - { offset: 0x5883A, size: 0x8, addend: 0x0, symName: __ZNSt3__111__wrap_iterIP14OPT_token_dataEC1B9nqe220108ES2_, symObjAddr: 0x1301C, symBinAddr: 0x100027760, symSize: 0x34 }
  - { offset: 0x58872, size: 0x8, addend: 0x0, symName: __ZNSt3__111__wrap_iterIP14OPT_token_dataEC2B9nqe220108ES2_, symObjAddr: 0x13050, symBinAddr: 0x100027794, symSize: 0x20 }
  - { offset: 0x588D0, size: 0x8, addend: 0x0, symName: __ZNKSt3__111__copy_implclB9nqe220108I14OPT_token_dataS2_TnNS_9enable_ifIXsr38__can_lower_copy_assignment_to_memmoveIT_T0_EE5valueEiE4typeELi0EEENS_4pairIPS4_PS5_EES9_S9_SA_, symObjAddr: 0x13200, symBinAddr: 0x100027944, symSize: 0x48 }
  - { offset: 0x58938, size: 0x8, addend: 0x0, symName: __ZNSt3__14pairIP14OPT_token_dataS2_EC1B9nqe220108IS2_S2_TnNS_9enable_ifIXclsr25__check_pair_constructionIS2_S2_EE23__is_pair_constructibleIT_T0_EEEiE4typeELi0EEEOS6_OS7_, symObjAddr: 0x1335C, symBinAddr: 0x100027AA0, symSize: 0x3C }
  - { offset: 0x58996, size: 0x8, addend: 0x0, symName: __ZNSt3__14pairIP14OPT_token_dataS2_EC2B9nqe220108IS2_S2_TnNS_9enable_ifIXclsr25__check_pair_constructionIS2_S2_EE23__is_pair_constructibleIT_T0_EEEiE4typeELi0EEEOS6_OS7_, symObjAddr: 0x13398, symBinAddr: 0x100027ADC, symSize: 0x34 }
  - { offset: 0x589F9, size: 0x8, addend: 0x0, symName: __ZNSt3__118__unwrap_iter_implINS_11__wrap_iterIP14OPT_token_dataEELb1EE8__unwrapB9nqe220108ES4_, symObjAddr: 0x133CC, symBinAddr: 0x100027B10, symSize: 0x28 }
  - { offset: 0x58A22, size: 0x8, addend: 0x0, symName: __ZNSt3__119__to_address_helperINS_11__wrap_iterIP14OPT_token_dataEEvE6__callB9nqe220108ERKS4_, symObjAddr: 0x13418, symBinAddr: 0x100027B5C, symSize: 0x30 }
  - { offset: 0x58A45, size: 0x8, addend: 0x0, symName: __ZNSt3__114pointer_traitsINS_11__wrap_iterIP14OPT_token_dataEEE10to_addressB9nqe220108ES4_, symObjAddr: 0x13448, symBinAddr: 0x100027B8C, symSize: 0x2C }
  - { offset: 0x58A68, size: 0x8, addend: 0x0, symName: __ZNKSt3__111__wrap_iterIP14OPT_token_dataE4baseB9nqe220108Ev, symObjAddr: 0x13474, symBinAddr: 0x100027BB8, symSize: 0x18 }
  - { offset: 0x58A8E, size: 0x8, addend: 0x0, symName: __ZNSt3__14pairIP14OPT_token_dataS2_EC1B9nqe220108IRS2_S2_TnNS_9enable_ifIXclsr25__check_pair_constructionIS2_S2_EE23__is_pair_constructibleIT_T0_EEEiE4typeELi0EEEOS7_OS8_, symObjAddr: 0x13594, symBinAddr: 0x100027CD8, symSize: 0x3C }
  - { offset: 0x58AEC, size: 0x8, addend: 0x0, symName: __ZNSt3__14pairIP14OPT_token_dataS2_EC2B9nqe220108IRS2_S2_TnNS_9enable_ifIXclsr25__check_pair_constructionIS2_S2_EE23__is_pair_constructibleIT_T0_EEEiE4typeELi0EEEOS7_OS8_, symObjAddr: 0x135D0, symBinAddr: 0x100027D14, symSize: 0x34 }
  - { offset: 0x58B6C, size: 0x8, addend: 0x0, symName: __ZNSt3__14pairINS_11__wrap_iterIP14OPT_token_dataEES3_EC1B9nqe220108IS4_S3_TnNS_9enable_ifIXclsr25__check_pair_constructionIS4_S3_EE23__is_pair_constructibleIT_T0_EEEiE4typeELi0EEEOS8_OS9_, symObjAddr: 0x13604, symBinAddr: 0x100027D48, symSize: 0x3C }
  - { offset: 0x58BCA, size: 0x8, addend: 0x0, symName: __ZNSt3__14pairINS_11__wrap_iterIP14OPT_token_dataEES3_EC2B9nqe220108IS4_S3_TnNS_9enable_ifIXclsr25__check_pair_constructionIS4_S3_EE23__is_pair_constructibleIT_T0_EEEiE4typeELi0EEEOS8_OS9_, symObjAddr: 0x13640, symBinAddr: 0x100027D84, symSize: 0x34 }
  - { offset: 0x58C28, size: 0x8, addend: 0x0, symName: __ZNSt3__118__unwrap_iter_implINS_11__wrap_iterIP14OPT_token_dataEELb1EE8__rewrapB9nqe220108ES4_S3_, symObjAddr: 0x136C0, symBinAddr: 0x100027E04, symSize: 0x5C }
  - { offset: 0x58C59, size: 0x8, addend: 0x0, symName: __ZNKSt3__111__wrap_iterIP14OPT_token_dataEplB9nqe220108El, symObjAddr: 0x1371C, symBinAddr: 0x100027E60, symSize: 0x3C }
  - { offset: 0x58C9B, size: 0x8, addend: 0x0, symName: __ZNSt3__111__wrap_iterIP14OPT_token_dataEpLB9nqe220108El, symObjAddr: 0x13758, symBinAddr: 0x100027E9C, symSize: 0x30 }
  - { offset: 0x58CCF, size: 0x8, addend: 0x0, symName: __ZNSt3__118__unwrap_iter_implIP14OPT_token_dataLb1EE8__rewrapB9nqe220108ES2_S2_, symObjAddr: 0x13788, symBinAddr: 0x100027ECC, symSize: 0x58 }
  - { offset: 0x5B28B, size: 0x8, addend: 0x0, symName: __ZL8opt_6_7B, symObjAddr: 0x11B828, symBinAddr: 0x1000C8B58, symSize: 0x0 }
  - { offset: 0x5B2B0, size: 0x8, addend: 0x0, symName: __ZL8opt_1_3B, symObjAddr: 0x11B84C, symBinAddr: 0x1000C8B7C, symSize: 0x0 }
  - { offset: 0x5B2C9, size: 0x8, addend: 0x0, symName: __ZL8opt_125m, symObjAddr: 0x11B870, symBinAddr: 0x1000C8BA0, symSize: 0x0 }
  - { offset: 0x5B2E2, size: 0x8, addend: 0x0, symName: __ZL8llama_7B, symObjAddr: 0x11B894, symBinAddr: 0x1000C8BC4, symSize: 0x0 }
  - { offset: 0x5DF88, size: 0x8, addend: 0x0, symName: __ZNSt3__16chronomiB9nqe220108IxNS_5ratioILl1ELl1000000000EEExS3_EENS_11common_typeIJNS0_8durationIT_T0_EENS5_IT1_T2_EEEE4typeERKS8_RKSB_, symObjAddr: 0x60D4, symBinAddr: 0x10002CB1C, symSize: 0x6C }
  - { offset: 0x5E035, size: 0x8, addend: 0x0, symName: __ZNSt3__16chrono13duration_castB9nqe220108INS0_8durationIxNS_5ratioILl1ELl1000000EEEEExNS3_ILl1ELl1000000000EEETnNS_9enable_ifIX15__is_duration_vIT_EEiE4typeELi0EEES8_RKNS2_IT0_T1_EE, symObjAddr: 0x5E18, symBinAddr: 0x10002C914, symSize: 0x30 }
  - { offset: 0x5E082, size: 0x8, addend: 0x0, symName: __ZNSt3__16chronomiB9nqe220108INS0_12steady_clockENS0_8durationIxNS_5ratioILl1ELl1000000000EEEEES6_EENS_11common_typeIJT0_T1_EE4typeERKNS0_10time_pointIT_S8_EERKNSC_ISD_S9_EE, symObjAddr: 0x5E48, symBinAddr: 0x10002C944, symSize: 0x58 }
  - { offset: 0x61FE3, size: 0x8, addend: 0x0, symName: __ZNSt3__1L19piecewise_constructE, symObjAddr: 0x120A2, symBinAddr: 0x1000BE51A, symSize: 0x0 }
  - { offset: 0x69499, size: 0x8, addend: 0x0, symName: __ZNSt3__14fillB9nqe220108INS_11__wrap_iterIPiEEiEEvT_S4_RKT0_, symObjAddr: 0x1244, symBinAddr: 0x100029284, symSize: 0x48 }
  - { offset: 0x694EF, size: 0x8, addend: 0x0, symName: __ZNSt3__112__to_addressB9nqe220108I8Matrix3DIfEEEPT_S4_, symObjAddr: 0x2C7C, symBinAddr: 0x10002A99C, symSize: 0x14 }
  - { offset: 0x69524, size: 0x8, addend: 0x0, symName: __ZNSt3__131__annotate_contiguous_containerB9nqe220108INS_9allocatorI8Matrix3DIfEEEEEvPKvS6_S6_S6_, symObjAddr: 0x2D50, symBinAddr: 0x10002AA60, symSize: 0x1C }
  - { offset: 0x6957F, size: 0x8, addend: 0x0, symName: __ZNSt3__119__libcpp_deallocateB9nqe220108I8Matrix3DIfEEEvPNS_15__type_identityIT_E4typeENS_15__element_countEm, symObjAddr: 0x2DA0, symBinAddr: 0x10002AAB0, symSize: 0x3C }
  - { offset: 0x695DA, size: 0x8, addend: 0x0, symName: __ZNSt3__112__destroy_atB9nqe220108INS_4pairIKNS_12basic_stringIcNS_11char_traitsIcEENS_9allocatorIcEEEExEEEEvPT_, symObjAddr: 0x3A18, symBinAddr: 0x10002B250, symSize: 0x24 }
  - { offset: 0x6960B, size: 0x8, addend: 0x0, symName: __ZNSt3__119__libcpp_deallocateB9nqe220108INS_11__tree_nodeINS_12__value_typeINS_12basic_stringIcNS_11char_traitsIcEENS_9allocatorIcEEEExEEPvEEEEvPNS_15__type_identityIT_E4typeENS_15__element_countEm, symObjAddr: 0x3AC8, symBinAddr: 0x10002B300, symSize: 0x38 }
  - { offset: 0x69666, size: 0x8, addend: 0x0, symName: __ZNSt3__112__destroy_atB9nqe220108INS_4pairIKNS_12basic_stringIcNS_11char_traitsIcEENS_9allocatorIcEEEENS_6chrono10time_pointINS9_12steady_clockENS9_8durationIxNS_5ratioILl1ELl1000000000EEEEEEEEEEEvPT_, symObjAddr: 0x3D88, symBinAddr: 0x10002B5C0, symSize: 0x24 }
  - { offset: 0x69697, size: 0x8, addend: 0x0, symName: __ZNSt3__119__libcpp_deallocateB9nqe220108INS_11__tree_nodeINS_12__value_typeINS_12basic_stringIcNS_11char_traitsIcEENS_9allocatorIcEEEENS_6chrono10time_pointINS9_12steady_clockENS9_8durationIxNS_5ratioILl1ELl1000000000EEEEEEEEEPvEEEEvPNS_15__type_identityIT_E4typeENS_15__element_countEm, symObjAddr: 0x3E38, symBinAddr: 0x10002B670, symSize: 0x38 }
  - { offset: 0x697D0, size: 0x8, addend: 0x0, symName: __ZNSt3__120__try_key_extractionB9nqe220108INS_12basic_stringIcNS_11char_traitsIcEENS_9allocatorIcEEEEZNS_6__treeINS_12__value_typeIS6_NS_6chrono10time_pointINS9_12steady_clockENS9_8durationIxNS_5ratioILl1ELl1000000000EEEEEEEEENS_19__map_value_compareIS6_NS_4pairIKS6_SG_EENS_4lessIS6_EEEENS4_ISL_EEE16__emplace_uniqueB9nqe220108IJRKNS_21piecewise_construct_tENS_5tupleIJRSK_EEENSV_IJEEEEEENSJ_INS_15__tree_iteratorISH_PNS_11__tree_nodeISH_PvEElEEbEEDpOT_EUlSW_SU_OSX_OSY_E_ZNSR_IJSU_SX_SY_EEES15_S18_EUlSU_S19_S1A_E_JSU_SX_SY_EEEDTclclsr3stdE7declvalIT1_EEspclsr3stdE7declvalIT2_EEEET0_S1D_DpOS1E_, symObjAddr: 0x4054, symBinAddr: 0x10002B85C, symSize: 0xB4 }
  - { offset: 0x69865, size: 0x8, addend: 0x0, symName: __ZNSt3__125__try_key_extraction_implB9nqe220108INS_12basic_stringIcNS_11char_traitsIcEENS_9allocatorIcEEEENS_4pairINS_15__tree_iteratorINS_12__value_typeIS6_NS_6chrono10time_pointINSA_12steady_clockENSA_8durationIxNS_5ratioILl1ELl1000000000EEEEEEEEEPNS_11__tree_nodeISI_PvEElEEbEEZNS_6__treeISI_NS_19__map_value_compareIS6_NS7_IKS6_SH_EENS_4lessIS6_EEEENS4_ISS_EEE16__emplace_uniqueB9nqe220108IJRKNS_21piecewise_construct_tENS_5tupleIJRSR_EEENS12_IJEEEEEESO_DpOT_EUlS13_S11_OS14_OS15_E_ZNSY_IJS11_S14_S15_EEESO_S18_EUlS11_S19_S1A_E_S11_S14_S15_TnNS_9enable_ifIXaaaaaasr7is_sameIu14__remove_constIu20__remove_reference_tIT3_EESZ_EE5value12__is_tuple_vIT4_Eeqsr10tuple_sizeIS1H_EE5valueLi1Esr7is_sameIu14__remove_constIu20__remove_reference_tINS_13tuple_elementILm0ES1H_E4typeEEET_EE5valueEiE4typeELi0EEET0_NS_14__priority_tagILm1EEET1_T2_OS1E_OS1H_OT5_, symObjAddr: 0x4108, symBinAddr: 0x10002B910, symSize: 0xB4 }
  - { offset: 0x69914, size: 0x8, addend: 0x0, symName: __ZNSt3__116__as_transparentB9nqe220108INS_12basic_stringIcNS_11char_traitsIcEENS_9allocatorIcEEEENS_19__map_value_compareIS6_NS_4pairIKS6_NS_6chrono10time_pointINSA_12steady_clockENSA_8durationIxNS_5ratioILl1ELl1000000000EEEEEEEEENS_4lessIS6_EEEETnNS_9enable_ifIXsr7is_sameIT0_NS_18__make_transparentIT_SN_E4typeEEE5valueEiE4typeELi0EEERSN_SU_, symObjAddr: 0x47BC, symBinAddr: 0x10002BF1C, symSize: 0x14 }
  - { offset: 0x69976, size: 0x8, addend: 0x0, symName: __ZNSt3__114__construct_atB9nqe220108INS_11__tree_nodeINS_12__value_typeINS_12basic_stringIcNS_11char_traitsIcEENS_9allocatorIcEEEENS_6chrono10time_pointINS9_12steady_clockENS9_8durationIxNS_5ratioILl1ELl1000000000EEEEEEEEEPvEEJRNS6_ISJ_EERKNS_21piecewise_construct_tENS_5tupleIJRKS8_EEENSP_IJEEEEPSJ_EEPT_SW_DpOT0_, symObjAddr: 0x5090, symBinAddr: 0x10002C1FC, symSize: 0x4C }
  - { offset: 0x69A02, size: 0x8, addend: 0x0, symName: __ZNSt3__117__libcpp_allocateB9nqe220108INS_11__tree_nodeINS_12__value_typeINS_12basic_stringIcNS_11char_traitsIcEENS_9allocatorIcEEEENS_6chrono10time_pointINS9_12steady_clockENS9_8durationIxNS_5ratioILl1ELl1000000000EEEEEEEEEPvEEEEPT_NS_15__element_countEm, symObjAddr: 0x51B4, symBinAddr: 0x10002C2EC, symSize: 0x34 }
  - { offset: 0x69B64, size: 0x8, addend: 0x0, symName: __ZNSt3__120__try_key_extractionB9nqe220108INS_12basic_stringIcNS_11char_traitsIcEENS_9allocatorIcEEEEZNS_6__treeINS_12__value_typeIS6_xEENS_19__map_value_compareIS6_NS_4pairIKS6_xEENS_4lessIS6_EEEENS4_ISD_EEE16__emplace_uniqueB9nqe220108IJRKNS_21piecewise_construct_tENS_5tupleIJRSC_EEENSN_IJEEEEEENSB_INS_15__tree_iteratorIS9_PNS_11__tree_nodeIS9_PvEElEEbEEDpOT_EUlSO_SM_OSP_OSQ_E_ZNSJ_IJSM_SP_SQ_EEESX_S10_EUlSM_S11_S12_E_JSM_SP_SQ_EEEDTclclsr3stdE7declvalIT1_EEspclsr3stdE7declvalIT2_EEEET0_S15_DpOS16_, symObjAddr: 0x6238, symBinAddr: 0x10002CC80, symSize: 0xB4 }
  - { offset: 0x69BF9, size: 0x8, addend: 0x0, symName: __ZNSt3__125__try_key_extraction_implB9nqe220108INS_12basic_stringIcNS_11char_traitsIcEENS_9allocatorIcEEEENS_4pairINS_15__tree_iteratorINS_12__value_typeIS6_xEEPNS_11__tree_nodeISA_PvEElEEbEEZNS_6__treeISA_NS_19__map_value_compareIS6_NS7_IKS6_xEENS_4lessIS6_EEEENS4_ISK_EEE16__emplace_uniqueB9nqe220108IJRKNS_21piecewise_construct_tENS_5tupleIJRSJ_EEENSU_IJEEEEEESG_DpOT_EUlSV_ST_OSW_OSX_E_ZNSQ_IJST_SW_SX_EEESG_S10_EUlST_S11_S12_E_ST_SW_SX_TnNS_9enable_ifIXaaaaaasr7is_sameIu14__remove_constIu20__remove_reference_tIT3_EESR_EE5value12__is_tuple_vIT4_Eeqsr10tuple_sizeIS19_EE5valueLi1Esr7is_sameIu14__remove_constIu20__remove_reference_tINS_13tuple_elementILm0ES19_E4typeEEET_EE5valueEiE4typeELi0EEET0_NS_14__priority_tagILm1EEET1_T2_OS16_OS19_OT5_, symObjAddr: 0x62EC, symBinAddr: 0x10002CD34, symSize: 0xB4 }
  - { offset: 0x69CA8, size: 0x8, addend: 0x0, symName: __ZNSt3__116__as_transparentB9nqe220108INS_12basic_stringIcNS_11char_traitsIcEENS_9allocatorIcEEEENS_19__map_value_compareIS6_NS_4pairIKS6_xEENS_4lessIS6_EEEETnNS_9enable_ifIXsr7is_sameIT0_NS_18__make_transparentIT_SF_E4typeEEE5valueEiE4typeELi0EEERSF_SM_, symObjAddr: 0x68F8, symBinAddr: 0x10002D340, symSize: 0x14 }
  - { offset: 0x69D0A, size: 0x8, addend: 0x0, symName: __ZNSt3__114__construct_atB9nqe220108INS_11__tree_nodeINS_12__value_typeINS_12basic_stringIcNS_11char_traitsIcEENS_9allocatorIcEEEExEEPvEEJRNS6_ISB_EERKNS_21piecewise_construct_tENS_5tupleIJRKS8_EEENSH_IJEEEEPSB_EEPT_SO_DpOT0_, symObjAddr: 0x6BD8, symBinAddr: 0x10002D620, symSize: 0x4C }
  - { offset: 0x69D96, size: 0x8, addend: 0x0, symName: __ZNSt3__117__libcpp_allocateB9nqe220108INS_11__tree_nodeINS_12__value_typeINS_12basic_stringIcNS_11char_traitsIcEENS_9allocatorIcEEEExEEPvEEEEPT_NS_15__element_countEm, symObjAddr: 0x6CC8, symBinAddr: 0x10002D710, symSize: 0x34 }
  - { offset: 0x69E1A, size: 0x8, addend: 0x0, symName: __ZNSt3__1neB9nqe220108ERKNS_20__map_const_iteratorINS_21__tree_const_iteratorINS_12__value_typeINS_12basic_stringIcNS_11char_traitsIcEENS_9allocatorIcEEEExEEPNS_11__tree_nodeIS9_PvEElEEEESH_, symObjAddr: 0x8420, symBinAddr: 0x10002DE3C, symSize: 0x2C }
  - { offset: 0x69E57, size: 0x8, addend: 0x0, symName: __ZNSt3__1plB9nqe220108IcNS_11char_traitsIcEENS_9allocatorIcEEEENS_12basic_stringIT_T0_T1_EERKS9_PKS6_, symObjAddr: 0x849C, symBinAddr: 0x10002DE8C, symSize: 0x68 }
  - { offset: 0x69EAF, size: 0x8, addend: 0x0, symName: __ZNSt3__1neB9nqe220108ERKNS_21__tree_const_iteratorINS_12__value_typeINS_12basic_stringIcNS_11char_traitsIcEENS_9allocatorIcEEEExEEPNS_11__tree_nodeIS8_PvEElEESF_, symObjAddr: 0x8828, symBinAddr: 0x10002E18C, symSize: 0x30 }
  - { offset: 0x69EEC, size: 0x8, addend: 0x0, symName: __ZNSt3__1eqB9nqe220108ERKNS_21__tree_const_iteratorINS_12__value_typeINS_12basic_stringIcNS_11char_traitsIcEENS_9allocatorIcEEEExEEPNS_11__tree_nodeIS8_PvEElEESF_, symObjAddr: 0x8858, symBinAddr: 0x10002E1BC, symSize: 0x2C }
  - { offset: 0x69F29, size: 0x8, addend: 0x0, symName: __ZNSt3__121__concatenate_stringsB9nqe220108IcNS_11char_traitsIcEENS_9allocatorIcEEEENS_12basic_stringIT_T0_T1_EERKS8_NS_15__type_identityINS_17basic_string_viewIS6_S7_EEE4typeESG_, symObjAddr: 0x8A08, symBinAddr: 0x10002E228, symSize: 0x194 }
  - { offset: 0x69FBB, size: 0x8, addend: 0x0, symName: __ZNSt3__128__char_traits_length_checkedB9nqe220108INS_11char_traitsIcEEEEmPKNT_9char_typeE, symObjAddr: 0x93DC, symBinAddr: 0x10002E4C8, symSize: 0x24 }
  - { offset: 0x69FF2, size: 0x8, addend: 0x0, symName: __ZNSt3__120__throw_out_of_rangeB9nqe220108EPKc, symObjAddr: 0x9678, symBinAddr: 0x10002E574, symSize: 0x64 }
  - { offset: 0x6A01A, size: 0x8, addend: 0x0, symName: __ZNSt3__112__to_addressB9nqe220108IN11llama_vocab11token_scoreEEEPT_S4_, symObjAddr: 0xA724, symBinAddr: 0x10002ED20, symSize: 0x14 }
  - { offset: 0x6A04F, size: 0x8, addend: 0x0, symName: __ZNSt3__131__annotate_contiguous_containerB9nqe220108INS_9allocatorIN11llama_vocab11token_scoreEEEEEvPKvS6_S6_S6_, symObjAddr: 0xA84C, symBinAddr: 0x10002EE48, symSize: 0x1C }
  - { offset: 0x6A0AA, size: 0x8, addend: 0x0, symName: __ZNSt3__119__libcpp_deallocateB9nqe220108IN11llama_vocab11token_scoreEEEvPNS_15__type_identityIT_E4typeENS_15__element_countEm, symObjAddr: 0xA89C, symBinAddr: 0x10002EE98, symSize: 0x38 }
  - { offset: 0x6A105, size: 0x8, addend: 0x0, symName: __ZNSt3__122__make_exception_guardB9nqe220108INS_6vectorI8Matrix3DIfENS_9allocatorIS3_EEE16__destroy_vectorEEENS_28__exception_guard_exceptionsIT_EES9_, symObjAddr: 0xB080, symBinAddr: 0x10002F148, symSize: 0x40 }
  - { offset: 0x6A13A, size: 0x8, addend: 0x0, symName: __ZNSt3__119__allocate_at_leastB9nqe220108INS_9allocatorI8Matrix3DIfEEENS_16allocator_traitsIS4_EEEENS_19__allocation_resultINT0_7pointerENS8_9size_typeEEERT_m, symObjAddr: 0xB2F8, symBinAddr: 0x10002F3C0, symSize: 0x44 }
  - { offset: 0x6A1D5, size: 0x8, addend: 0x0, symName: __ZNSt3__117__libcpp_allocateB9nqe220108I8Matrix3DIfEEEPT_NS_15__element_countEm, symObjAddr: 0xB4A8, symBinAddr: 0x10002F554, symSize: 0x38 }
  - { offset: 0x6A226, size: 0x8, addend: 0x0, symName: __ZNSt3__130__uninitialized_allocator_copyB9nqe220108INS_9allocatorI8Matrix3DIfEEEPS3_S5_S5_EET2_RT_T0_T1_S6_, symObjAddr: 0xB548, symBinAddr: 0x10002F5F4, symSize: 0x80 }
  - { offset: 0x6A2C3, size: 0x8, addend: 0x0, symName: __ZNSt3__114__unwrap_rangeB9nqe220108IP8Matrix3DIfES3_EENS_4pairIT0_S5_EET_S7_, symObjAddr: 0xB704, symBinAddr: 0x10002F7B0, symSize: 0x60 }
  - { offset: 0x6A30F, size: 0x8, addend: 0x0, symName: __ZNSt3__135__uninitialized_allocator_copy_implB9nqe220108INS_9allocatorI8Matrix3DIfEEES3_S3_TnNS_9enable_ifIXaaaaaasr31is_trivially_copy_constructibleIT0_EE5valuesr28is_trivially_copy_assignableIS6_EE5valuesr7is_sameIu14__remove_constIS6_Eu14__remove_constIT1_EEE5value40__allocator_has_trivial_copy_construct_vIT_S6_EEiE4typeELi0EEEPS8_RSA_PS6_SF_SD_, symObjAddr: 0xB764, symBinAddr: 0x10002F810, symSize: 0x38 }
  - { offset: 0x6A387, size: 0x8, addend: 0x0, symName: __ZNSt3__113__unwrap_iterB9nqe220108IP8Matrix3DIfENS_18__unwrap_iter_implIS3_Lb1EEETnNS_9enable_ifIXsr21is_copy_constructibleIT_EE5valueEiE4typeELi0EEEDTclsrT0_8__unwrapclsr3stdE7declvalIS7_EEEES7_, symObjAddr: 0xB79C, symBinAddr: 0x10002F848, symSize: 0x24 }
  - { offset: 0x6A3CB, size: 0x8, addend: 0x0, symName: __ZNSt3__113__rewrap_iterB9nqe220108IP8Matrix3DIfES3_NS_18__unwrap_iter_implIS3_Lb1EEEEET_S6_T0_, symObjAddr: 0xB7C0, symBinAddr: 0x10002F86C, symSize: 0x3C }
  - { offset: 0x6A420, size: 0x8, addend: 0x0, symName: __ZNSt3__19make_pairB9nqe220108IP8Matrix3DIfES3_EENS_4pairINS_18__unwrap_referenceIu7__decayIT_EE4typeENS5_Iu7__decayIT0_EE4typeEEEOS6_OSA_, symObjAddr: 0xB7FC, symBinAddr: 0x10002F8A8, symSize: 0x38 }
  - { offset: 0x6A580, size: 0x8, addend: 0x0, symName: __ZNSt3__14copyB9nqe220108IP8Matrix3DIfES3_EET0_T_S5_S4_, symObjAddr: 0xB8A4, symBinAddr: 0x10002F950, symSize: 0x40 }
  - { offset: 0x6A5DA, size: 0x8, addend: 0x0, symName: __ZNSt3__16__copyB9nqe220108IP8Matrix3DIfES3_S3_EENS_4pairIT_T1_EES5_T0_S6_, symObjAddr: 0xB8E4, symBinAddr: 0x10002F990, symSize: 0x44 }
  - { offset: 0x6A63D, size: 0x8, addend: 0x0, symName: __ZNSt3__124__copy_move_unwrap_itersB9nqe220108INS_11__copy_implEP8Matrix3DIfES4_S4_TnNS_9enable_ifIXsr12__can_rewrapIT0_T2_EE5valueEiE4typeELi0EEENS_4pairIS6_S7_EES6_T1_S7_, symObjAddr: 0xB928, symBinAddr: 0x10002F9D4, symSize: 0xB4 }
  - { offset: 0x6A711, size: 0x8, addend: 0x0, symName: __ZNSt3__114__rewrap_rangeB9nqe220108IP8Matrix3DIfES3_EET_S4_T0_, symObjAddr: 0xBA24, symBinAddr: 0x10002FAD0, symSize: 0x2C }
  - { offset: 0x6A75D, size: 0x8, addend: 0x0, symName: __ZNSt3__119__copy_trivial_implB9nqe220108I8Matrix3DIfES2_EENS_4pairIPT_PT0_EES5_S5_S7_, symObjAddr: 0xBA50, symBinAddr: 0x10002FAFC, symSize: 0x88 }
  - { offset: 0x6A7C5, size: 0x8, addend: 0x0, symName: __ZNSt3__119__constexpr_memmoveB9nqe220108I8Matrix3DIfES2_EEPT_S4_PT0_NS_15__element_countE, symObjAddr: 0xBAD8, symBinAddr: 0x10002FB84, symSize: 0x64 }
  - { offset: 0x6A82D, size: 0x8, addend: 0x0, symName: __ZNSt3__19make_pairB9nqe220108IRP8Matrix3DIfES3_EENS_4pairINS_18__unwrap_referenceIu7__decayIT_EE4typeENS6_Iu7__decayIT0_EE4typeEEEOS7_OSB_, symObjAddr: 0xBB3C, symBinAddr: 0x10002FBE8, symSize: 0x38 }
  - { offset: 0x6A8C4, size: 0x8, addend: 0x0, symName: __ZNSt3__16__fillB9nqe220108INS_11__wrap_iterIPiEEiTnNS_9enable_ifIXaasr37__has_random_access_iterator_categoryIT_EE5valuent25__is_segmented_iterator_vIS5_EEiE4typeELi0EEES5_S5_S5_RKT0_, symObjAddr: 0xCB54, symBinAddr: 0x10003002C, symSize: 0x54 }
  - { offset: 0x6A924, size: 0x8, addend: 0x0, symName: __ZNSt3__18__fill_nB9nqe220108INS_11__wrap_iterIPiEEliTnNS_9enable_ifIXntsr23__specialized_algorithmINS_10_Algorithm8__fill_nENS_17__single_iteratorIT_EEEE15__has_algorithmEiE4typeELi0EEES8_S8_T0_RKT1_, symObjAddr: 0xCBA8, symBinAddr: 0x100030080, symSize: 0x7C }
  - { offset: 0x6A98D, size: 0x8, addend: 0x0, symName: __ZNSt3__1miB9nqe220108IPiS1_EEDTmicldtfp_4baseEcldtfp0_4baseEERKNS_11__wrap_iterIT_EERKNS3_IT0_EE, symObjAddr: 0xCC24, symBinAddr: 0x1000300FC, symSize: 0x48 }
  - { offset: 0x6A9D9, size: 0x8, addend: 0x0, symName: __ZNSt3__134__uninitialized_allocator_relocateB9nqe220108INS_9allocatorIiEEPiEEvRT_T0_S6_S6_, symObjAddr: 0xD338, symBinAddr: 0x100030790, symSize: 0x60 }
  - { offset: 0x6AA42, size: 0x8, addend: 0x0, symName: __ZNSt3__116__if_likely_elseB9nqe220108IZNS_6vectorIiNS_9allocatorIiEEE12emplace_backIJRKiEEEvDpOT_EUlvE_ZNS5_IJS7_EEEvSA_EUlvE0_EEvbT_T0_, symObjAddr: 0xD694, symBinAddr: 0x100030AEC, symSize: 0x58 }
  - { offset: 0x6AA9E, size: 0x8, addend: 0x0, symName: __ZNSt3__1miB9nqe220108IPKiS2_EEDTmicldtfp_4baseEcldtfp0_4baseEERKNS_11__wrap_iterIT_EERKNS4_IT0_EE, symObjAddr: 0xD948, symBinAddr: 0x100030DA0, symSize: 0x48 }
  - { offset: 0x6AAEA, size: 0x8, addend: 0x0, symName: __ZNSt3__14moveB9nqe220108IPiS1_EET0_T_S3_S2_, symObjAddr: 0xD9BC, symBinAddr: 0x100030E14, symSize: 0x40 }
  - { offset: 0x6AB44, size: 0x8, addend: 0x0, symName: __ZNSt3__16__moveB9nqe220108INS_17_ClassicAlgPolicyEPiS2_S2_EENS_4pairIT0_T2_EES4_T1_S5_, symObjAddr: 0xDAD8, symBinAddr: 0x100030F30, symSize: 0x44 }
  - { offset: 0x6ABB0, size: 0x8, addend: 0x0, symName: __ZNSt3__124__copy_move_unwrap_itersB9nqe220108INS_11__move_implINS_17_ClassicAlgPolicyEEEPiS4_S4_TnNS_9enable_ifIXsr12__can_rewrapIT0_T2_EE5valueEiE4typeELi0EEENS_4pairIS6_S7_EES6_T1_S7_, symObjAddr: 0xDB1C, symBinAddr: 0x100030F74, symSize: 0xB4 }
  - { offset: 0x6AC8D, size: 0x8, addend: 0x0, symName: __ZNSt3__18distanceB9nqe220108IP8Matrix3DIfEEENS_15iterator_traitsIT_E15difference_typeES5_S5_, symObjAddr: 0xEE70, symBinAddr: 0x1000312D4, symSize: 0x2C }
  - { offset: 0x6ACD0, size: 0x8, addend: 0x0, symName: __ZNSt3__18__copy_nB9nqe220108INS_17_ClassicAlgPolicyEP8Matrix3DIfES4_TnNS_9enable_ifIXsr37__has_random_access_iterator_categoryIT0_EE5valueEiE4typeELi0EEENS_4pairIS6_T1_EES6_NS_8_IterOpsIT_E17__difference_typeIS6_EESA_, symObjAddr: 0xEE9C, symBinAddr: 0x100031300, symSize: 0x54 }
  - { offset: 0x6AD39, size: 0x8, addend: 0x0, symName: __ZNSt3__110__distanceB9nqe220108IP8Matrix3DIfETnNS_9enable_ifIXsr37__has_random_access_iterator_categoryIT_EE5valueEiE4typeELi0EEENS_15iterator_traitsIS5_E15difference_typeES5_S5_, symObjAddr: 0xEFE4, symBinAddr: 0x100031448, symSize: 0x28 }
  - { offset: 0x6AD82, size: 0x8, addend: 0x0, symName: __ZNSt3__116__if_likely_elseB9nqe220108IZNS_6vectorI14OPT_token_dataNS_9allocatorIS2_EEE12emplace_backIJS2_EEEvDpOT_EUlvE_ZNS6_IJS2_EEEvS9_EUlvE0_EEvbT_T0_, symObjAddr: 0xFDB4, symBinAddr: 0x100031470, symSize: 0x58 }
  - { offset: 0x6ADDE, size: 0x8, addend: 0x0, symName: __ZNSt3__130__uninitialized_allocator_copyB9nqe220108INS_9allocatorIiEEPKiS4_PiEET2_RT_T0_T1_S6_, symObjAddr: 0x1059C, symBinAddr: 0x10003193C, symSize: 0x80 }
  - { offset: 0x6AE7B, size: 0x8, addend: 0x0, symName: __ZNSt3__114__unwrap_rangeB9nqe220108IPKiS2_EENS_4pairIT0_S4_EET_S6_, symObjAddr: 0x1061C, symBinAddr: 0x1000319BC, symSize: 0x60 }
  - { offset: 0x6AEC7, size: 0x8, addend: 0x0, symName: __ZNSt3__135__uninitialized_allocator_copy_implB9nqe220108INS_9allocatorIiEEPKiS4_PiEET2_RT_T0_T1_S6_, symObjAddr: 0x1067C, symBinAddr: 0x100031A1C, symSize: 0xF0 }
  - { offset: 0x6AF65, size: 0x8, addend: 0x0, symName: __ZNSt3__19make_pairB9nqe220108IPKiS2_EENS_4pairINS_18__unwrap_referenceIu7__decayIT_EE4typeENS4_Iu7__decayIT0_EE4typeEEEOS5_OS9_, symObjAddr: 0x1076C, symBinAddr: 0x100031B0C, symSize: 0x38 }
  - { offset: 0x6B092, size: 0x8, addend: 0x0, symName: __ZNSt3__122__make_exception_guardB9nqe220108INS_29_AllocatorDestroyRangeReverseINS_9allocatorIiEEPiEEEENS_28__exception_guard_exceptionsIT_EES7_, symObjAddr: 0x10870, symBinAddr: 0x100031BB4, symSize: 0x4C }
  - { offset: 0x6B0C8, size: 0x8, addend: 0x0, symName: __ZNSt3__119__allocator_destroyB9nqe220108INS_9allocatorIiEENS_16reverse_iteratorIPiEES5_EEvRT_T0_T1_, symObjAddr: 0x10A9C, symBinAddr: 0x100031DE0, symSize: 0x70 }
  - { offset: 0x6B127, size: 0x8, addend: 0x0, symName: __ZNSt3__1neB9nqe220108IPiS1_EEbRKNS_16reverse_iteratorIT_EERKNS2_IT0_EE, symObjAddr: 0x10B40, symBinAddr: 0x100031E84, symSize: 0x44 }
  - { offset: 0x6F649, size: 0x8, addend: 0x0, symName: __Z13LLaMAGeneratePviNSt3__112basic_stringIcNS0_11char_traitsIcEENS0_9allocatorIcEEEE10opt_paramsS6_b, symObjAddr: 0xA8, symBinAddr: 0x1000280E8, symSize: 0x1168 }
  - { offset: 0x6F673, size: 0x8, addend: 0x0, symName: __ZZ13LLaMAGeneratePviNSt3__112basic_stringIcNS0_11char_traitsIcEENS0_9allocatorIcEEEE10opt_paramsS6_bE11mirostat_mu, symObjAddr: 0x11B8B8, symBinAddr: 0x1000C8BE8, symSize: 0x0 }
  - { offset: 0x6F689, size: 0x8, addend: 0x0, symName: __ZZ13LLaMAGeneratePviNSt3__112basic_stringIcNS0_11char_traitsIcEENS0_9allocatorIcEEEE10opt_paramsS6_bE11mirostat_mu_0, symObjAddr: 0x11B8C8, symBinAddr: 0x1000C8BF8, symSize: 0x0 }
  - { offset: 0x70157, size: 0x8, addend: 0x0, symName: __ZN8Profiler11getInstanceEv, symObjAddr: 0x1934, symBinAddr: 0x100029850, symSize: 0xA8 }
  - { offset: 0x70176, size: 0x8, addend: 0x0, symName: __ZZN8Profiler11getInstanceEvE8instance, symObjAddr: 0x11FB0, symBinAddr: 0x1000C89D0, symSize: 0x0 }
  - { offset: 0x72ADB, size: 0x8, addend: 0x0, symName: __ZNKSt3__16chrono15__duration_castINS0_8durationIxNS_5ratioILl1ELl1000000000EEEEENS2_IxNS3_ILl1ELl1000000EEEEENS3_ILl1ELl1000EEELb1ELb0EEclB9nqe220108ERKS5_, symObjAddr: 0x6020, symBinAddr: 0x10002CA68, symSize: 0x44 }
  - { offset: 0x72FBF, size: 0x8, addend: 0x0, symName: __ZNSt3__16vectorIiNS_9allocatorIiEEEC1B9nqe220108Em, symObjAddr: 0x1210, symBinAddr: 0x100029250, symSize: 0x34 }
  - { offset: 0x72FF7, size: 0x8, addend: 0x0, symName: __ZNSt3__16vectorIiNS_9allocatorIiEEE5beginB9nqe220108Ev, symObjAddr: 0x128C, symBinAddr: 0x1000292CC, symSize: 0x40 }
  - { offset: 0x7301D, size: 0x8, addend: 0x0, symName: __ZNSt3__16vectorIiNS_9allocatorIiEEE3endB9nqe220108Ev, symObjAddr: 0x12CC, symBinAddr: 0x10002930C, symSize: 0x40 }
  - { offset: 0x73043, size: 0x8, addend: 0x0, symName: __ZNSt3__16vectorIiNS_9allocatorIiEEEC1B9nqe220108Ev, symObjAddr: 0x130C, symBinAddr: 0x10002934C, symSize: 0x2C }
  - { offset: 0x7306D, size: 0x8, addend: 0x0, symName: __ZNKSt3__112basic_stringIcNS_11char_traitsIcEENS_9allocatorIcEEE5c_strB9nqe220108Ev, symObjAddr: 0x1338, symBinAddr: 0x100029378, symSize: 0x24 }
  - { offset: 0x73093, size: 0x8, addend: 0x0, symName: __ZNSt3__16vectorIiNS_9allocatorIiEEE4dataB9nqe220108Ev, symObjAddr: 0x135C, symBinAddr: 0x10002939C, symSize: 0x28 }
  - { offset: 0x730B9, size: 0x8, addend: 0x0, symName: __ZNSt3__16vectorIiNS_9allocatorIiEEE6resizeEm, symObjAddr: 0x13AC, symBinAddr: 0x1000293C4, symSize: 0x12C }
  - { offset: 0x73114, size: 0x8, addend: 0x0, symName: __ZNSt3__16vectorIiNS_9allocatorIiEEE9push_backB9nqe220108ERKi, symObjAddr: 0x14D8, symBinAddr: 0x1000294F0, symSize: 0x2C }
  - { offset: 0x73149, size: 0x8, addend: 0x0, symName: __ZNSt3__16vectorIiNS_9allocatorIiEEEixB9nqe220108Em, symObjAddr: 0x1504, symBinAddr: 0x10002951C, symSize: 0x24 }
  - { offset: 0x7317E, size: 0x8, addend: 0x0, symName: __ZNSt3__16vectorIiNS_9allocatorIiEEE5eraseB9nqe220108ENS_11__wrap_iterIPKiEE, symObjAddr: 0x1528, symBinAddr: 0x100029540, symSize: 0x94 }
  - { offset: 0x731D9, size: 0x8, addend: 0x0, symName: __ZNSt3__111__wrap_iterIPKiEC1B9nqe220108IPiTnNS_9enable_ifIXsr4_AndINS_14is_convertibleIRKT_S2_EENS_7_OrImplIXaantcvbsr7is_sameIRS1_NS_15iterator_traitsIS8_E9referenceEEE5valuenesZT1_Li0EEE7_ResultINS_7is_sameISD_SG_EENSJ_ISD_RKu20__remove_reference_tISG_EEEEEEE5valueEiE4typeELi0EEERKNS0_IS8_EE, symObjAddr: 0x15BC, symBinAddr: 0x1000295D4, symSize: 0x34 }
  - { offset: 0x73220, size: 0x8, addend: 0x0, symName: __ZNSt3__16vectorI8Matrix3DIfENS_9allocatorIS2_EEEC1B9nqe220108Ev, symObjAddr: 0x16B8, symBinAddr: 0x100029608, symSize: 0x2C }
  - { offset: 0x7324F, size: 0x8, addend: 0x0, symName: __ZN27Int4LlamaForCausalLM_outputC1Ev, symObjAddr: 0x1718, symBinAddr: 0x100029634, symSize: 0x2C }
  - { offset: 0x7327B, size: 0x8, addend: 0x0, symName: __ZN26Int4LlamaForCausalLM_inputC1Ev, symObjAddr: 0x1744, symBinAddr: 0x100029660, symSize: 0x2C }
  - { offset: 0x732A5, size: 0x8, addend: 0x0, symName: __ZN8Matrix3DIiEC1EPiiii, symObjAddr: 0x1770, symBinAddr: 0x10002968C, symSize: 0x4C }
  - { offset: 0x73307, size: 0x8, addend: 0x0, symName: __ZNSt3__16vectorI8Matrix3DIfENS_9allocatorIS2_EEEC1B9nqe220108ERKS5_, symObjAddr: 0x17BC, symBinAddr: 0x1000296D8, symSize: 0x34 }
  - { offset: 0x73340, size: 0x8, addend: 0x0, symName: __ZN26Int4LlamaForCausalLM_inputC1E8Matrix3DIiENSt3__16vectorIS0_IfENS2_9allocatorIS4_EEEES7_, symObjAddr: 0x17F0, symBinAddr: 0x10002970C, symSize: 0x44 }
  - { offset: 0x733A3, size: 0x8, addend: 0x0, symName: __ZN26Int4LlamaForCausalLM_inputaSEOS_, symObjAddr: 0x1834, symBinAddr: 0x100029750, symSize: 0x74 }
  - { offset: 0x733D4, size: 0x8, addend: 0x0, symName: __ZN26Int4LlamaForCausalLM_inputD1Ev, symObjAddr: 0x18A8, symBinAddr: 0x1000297C4, symSize: 0x2C }
  - { offset: 0x73404, size: 0x8, addend: 0x0, symName: __ZNSt3__16vectorI8Matrix3DIfENS_9allocatorIS2_EEED1B9nqe220108Ev, symObjAddr: 0x18D4, symBinAddr: 0x1000297F0, symSize: 0x2C }
  - { offset: 0x73432, size: 0x8, addend: 0x0, symName: __ZN26Int4LlamaForCausalLM_inputC1E8Matrix3DIiE, symObjAddr: 0x1900, symBinAddr: 0x10002981C, symSize: 0x34 }
  - { offset: 0x7346B, size: 0x8, addend: 0x0, symName: __ZN8Profiler5startERKNSt3__112basic_stringIcNS0_11char_traitsIcEENS0_9allocatorIcEEEE, symObjAddr: 0x19DC, symBinAddr: 0x1000298F8, symSize: 0x48 }
  - { offset: 0x734AB, size: 0x8, addend: 0x0, symName: __ZN27Int4LlamaForCausalLM_outputaSEOS_, symObjAddr: 0x1A58, symBinAddr: 0x100029940, symSize: 0x64 }
  - { offset: 0x734DC, size: 0x8, addend: 0x0, symName: __ZN27Int4LlamaForCausalLM_outputD1Ev, symObjAddr: 0x1ABC, symBinAddr: 0x1000299A4, symSize: 0x2C }
  - { offset: 0x7350C, size: 0x8, addend: 0x0, symName: __ZN8Profiler4stopERKNSt3__112basic_stringIcNS0_11char_traitsIcEENS0_9allocatorIcEEEE, symObjAddr: 0x1AE8, symBinAddr: 0x1000299D0, symSize: 0xBC }
  - { offset: 0x7355C, size: 0x8, addend: 0x0, symName: __ZNSt3__16vectorI8Matrix3DIfENS_9allocatorIS2_EEEaSB9nqe220108ERKS5_, symObjAddr: 0x1BA4, symBinAddr: 0x100029A8C, symSize: 0x64 }
  - { offset: 0x73593, size: 0x8, addend: 0x0, symName: __ZNSt3__16vectorIfNS_9allocatorIfEEE4dataB9nqe220108Ev, symObjAddr: 0x1C08, symBinAddr: 0x100029AF0, symSize: 0x28 }
  - { offset: 0x735BE, size: 0x8, addend: 0x0, symName: __ZN27Fp32LlamaForCausalLM_outputC1Ev, symObjAddr: 0x1C30, symBinAddr: 0x100029B18, symSize: 0x2C }
  - { offset: 0x735EA, size: 0x8, addend: 0x0, symName: __ZN26Fp32LlamaForCausalLM_inputC1Ev, symObjAddr: 0x1C5C, symBinAddr: 0x100029B44, symSize: 0x2C }
  - { offset: 0x73614, size: 0x8, addend: 0x0, symName: __ZN26Fp32LlamaForCausalLM_inputC1E8Matrix3DIiENSt3__16vectorIS0_IfENS2_9allocatorIS4_EEEES7_, symObjAddr: 0x1C88, symBinAddr: 0x100029B70, symSize: 0x44 }
  - { offset: 0x73677, size: 0x8, addend: 0x0, symName: __ZN26Fp32LlamaForCausalLM_inputaSEOS_, symObjAddr: 0x1CCC, symBinAddr: 0x100029BB4, symSize: 0x74 }
  - { offset: 0x736A8, size: 0x8, addend: 0x0, symName: __ZN26Fp32LlamaForCausalLM_inputD1Ev, symObjAddr: 0x1D40, symBinAddr: 0x100029C28, symSize: 0x2C }
  - { offset: 0x736D8, size: 0x8, addend: 0x0, symName: __ZN26Fp32LlamaForCausalLM_inputC1E8Matrix3DIiE, symObjAddr: 0x1D6C, symBinAddr: 0x100029C54, symSize: 0x34 }
  - { offset: 0x7371D, size: 0x8, addend: 0x0, symName: __ZN27Fp32LlamaForCausalLM_outputaSEOS_, symObjAddr: 0x1DA0, symBinAddr: 0x100029C88, symSize: 0x64 }
  - { offset: 0x7374E, size: 0x8, addend: 0x0, symName: __ZN27Fp32LlamaForCausalLM_outputD1Ev, symObjAddr: 0x1E04, symBinAddr: 0x100029CEC, symSize: 0x2C }
  - { offset: 0x7377E, size: 0x8, addend: 0x0, symName: __ZNSt3__16vectorI14OPT_token_dataNS_9allocatorIS1_EEE7reserveEm, symObjAddr: 0x1E5C, symBinAddr: 0x100029D18, symSize: 0xD0 }
  - { offset: 0x737D0, size: 0x8, addend: 0x0, symName: __ZNSt3__16vectorI14OPT_token_dataNS_9allocatorIS1_EEE12emplace_backIJS1_EEEvDpOT_, symObjAddr: 0x1F2C, symBinAddr: 0x100029DE8, symSize: 0x84 }
  - { offset: 0x73899, size: 0x8, addend: 0x0, symName: __ZNSt3__16vectorI14OPT_token_dataNS_9allocatorIS1_EEE4dataB9nqe220108Ev, symObjAddr: 0x1FD4, symBinAddr: 0x100029E6C, symSize: 0x28 }
  - { offset: 0x738BF, size: 0x8, addend: 0x0, symName: __ZNSt3__16vectorIiNS_9allocatorIiEEEC1B9nqe220108ESt16initializer_listIiE, symObjAddr: 0x2050, symBinAddr: 0x100029E94, symSize: 0x3C }
  - { offset: 0x738F8, size: 0x8, addend: 0x0, symName: __ZNSt3__16vectorIiNS_9allocatorIiEEEaSB9nqe220108EOS3_, symObjAddr: 0x208C, symBinAddr: 0x100029ED0, symSize: 0x34 }
  - { offset: 0x7392D, size: 0x8, addend: 0x0, symName: __ZNK8Profiler15report_internalEv, symObjAddr: 0x216C, symBinAddr: 0x100029F04, symSize: 0x478 }
  - { offset: 0x739B1, size: 0x8, addend: 0x0, symName: __ZN8Profiler5resetEv, symObjAddr: 0x25E4, symBinAddr: 0x10002A37C, symSize: 0x4C }
  - { offset: 0x739DC, size: 0x8, addend: 0x0, symName: __ZN11llama_vocabD1Ev, symObjAddr: 0x2630, symBinAddr: 0x10002A3C8, symSize: 0x2C }
  - { offset: 0x73A0C, size: 0x8, addend: 0x0, symName: __ZN27Int4LlamaForCausalLM_outputC2Ev, symObjAddr: 0x26D4, symBinAddr: 0x10002A3F4, symSize: 0x44 }
  - { offset: 0x73A38, size: 0x8, addend: 0x0, symName: __ZN8Matrix3DIfEC1Ev, symObjAddr: 0x2718, symBinAddr: 0x10002A438, symSize: 0x2C }
  - { offset: 0x73A62, size: 0x8, addend: 0x0, symName: __ZN8Matrix3DIfEC2Ev, symObjAddr: 0x2744, symBinAddr: 0x10002A464, symSize: 0x18 }
  - { offset: 0x73A8C, size: 0x8, addend: 0x0, symName: __ZN26Int4LlamaForCausalLM_inputC2Ev, symObjAddr: 0x275C, symBinAddr: 0x10002A47C, symSize: 0x44 }
  - { offset: 0x73AB6, size: 0x8, addend: 0x0, symName: __ZN8Matrix3DIiEC1Ev, symObjAddr: 0x27A0, symBinAddr: 0x10002A4C0, symSize: 0x2C }
  - { offset: 0x73AE0, size: 0x8, addend: 0x0, symName: __ZN8Matrix3DIiEC2Ev, symObjAddr: 0x27CC, symBinAddr: 0x10002A4EC, symSize: 0x18 }
  - { offset: 0x73B0A, size: 0x8, addend: 0x0, symName: __ZN26Int4LlamaForCausalLM_inputC2E8Matrix3DIiENSt3__16vectorIS0_IfENS2_9allocatorIS4_EEEES7_, symObjAddr: 0x27E4, symBinAddr: 0x10002A504, symSize: 0xA0 }
  - { offset: 0x73B61, size: 0x8, addend: 0x0, symName: __ZNSt3__16vectorI8Matrix3DIfENS_9allocatorIS2_EEEaSB9nqe220108EOS5_, symObjAddr: 0x2884, symBinAddr: 0x10002A5A4, symSize: 0x34 }
  - { offset: 0x73B96, size: 0x8, addend: 0x0, symName: __ZNSt3__16vectorI8Matrix3DIfENS_9allocatorIS2_EEE13__move_assignERS5_NS_17integral_constantIbLb1EEE, symObjAddr: 0x28B8, symBinAddr: 0x10002A5D8, symSize: 0x78 }
  - { offset: 0x73BD8, size: 0x8, addend: 0x0, symName: __ZNSt3__16vectorI8Matrix3DIfENS_9allocatorIS2_EEE13__vdeallocateEv, symObjAddr: 0x2930, symBinAddr: 0x10002A650, symSize: 0x7C }
  - { offset: 0x73C00, size: 0x8, addend: 0x0, symName: __ZNSt3__16vectorI8Matrix3DIfENS_9allocatorIS2_EEE19__move_assign_allocB9nqe220108ERS5_, symObjAddr: 0x29AC, symBinAddr: 0x10002A6CC, symSize: 0x2C }
  - { offset: 0x73C35, size: 0x8, addend: 0x0, symName: __ZNSt3__16vectorI8Matrix3DIfENS_9allocatorIS2_EEE5clearB9nqe220108Ev, symObjAddr: 0x29D8, symBinAddr: 0x10002A6F8, symSize: 0x48 }
  - { offset: 0x73C6A, size: 0x8, addend: 0x0, symName: __ZNKSt3__16vectorI8Matrix3DIfENS_9allocatorIS2_EEE17__annotate_deleteB9nqe220108Ev, symObjAddr: 0x2A20, symBinAddr: 0x10002A740, symSize: 0x94 }
  - { offset: 0x73C90, size: 0x8, addend: 0x0, symName: __ZNSt3__116allocator_traitsINS_9allocatorI8Matrix3DIfEEEE10deallocateB9nqe220108ERS4_PS3_m, symObjAddr: 0x2AB4, symBinAddr: 0x10002A7D4, symSize: 0x34 }
  - { offset: 0x73CD2, size: 0x8, addend: 0x0, symName: __ZNKSt3__16vectorI8Matrix3DIfENS_9allocatorIS2_EEE8capacityB9nqe220108Ev, symObjAddr: 0x2AE8, symBinAddr: 0x10002A808, symSize: 0x28 }
  - { offset: 0x73CF8, size: 0x8, addend: 0x0, symName: __ZNKSt3__16vectorI8Matrix3DIfENS_9allocatorIS2_EEE4sizeB9nqe220108Ev, symObjAddr: 0x2B10, symBinAddr: 0x10002A830, symSize: 0x28 }
  - { offset: 0x73D1E, size: 0x8, addend: 0x0, symName: __ZNSt3__16vectorI8Matrix3DIfENS_9allocatorIS2_EEE22__base_destruct_at_endB9nqe220108EPS2_, symObjAddr: 0x2B38, symBinAddr: 0x10002A858, symSize: 0x88 }
  - { offset: 0x73D62, size: 0x8, addend: 0x0, symName: __ZNKSt3__16vectorI8Matrix3DIfENS_9allocatorIS2_EEE17__annotate_shrinkB9nqe220108Em, symObjAddr: 0x2BC0, symBinAddr: 0x10002A8E0, symSize: 0x90 }
  - { offset: 0x73D97, size: 0x8, addend: 0x0, symName: __ZNSt3__116allocator_traitsINS_9allocatorI8Matrix3DIfEEEE7destroyB9nqe220108IS3_TnNS_9enable_ifIX15__has_destroy_vIS4_PT_EEiE4typeELi0EEEvRS4_S9_, symObjAddr: 0x2C50, symBinAddr: 0x10002A970, symSize: 0x2C }
  - { offset: 0x73DD9, size: 0x8, addend: 0x0, symName: __ZNSt3__19allocatorI8Matrix3DIfEE7destroyB9nqe220108EPS2_, symObjAddr: 0x2CA0, symBinAddr: 0x10002A9B0, symSize: 0x14 }
  - { offset: 0x73E0D, size: 0x8, addend: 0x0, symName: __ZNKSt3__16vectorI8Matrix3DIfENS_9allocatorIS2_EEE31__annotate_contiguous_containerB9nqe220108EPKvS7_, symObjAddr: 0x2CB4, symBinAddr: 0x10002A9C4, symSize: 0x74 }
  - { offset: 0x73E51, size: 0x8, addend: 0x0, symName: __ZNKSt3__16vectorI8Matrix3DIfENS_9allocatorIS2_EEE4dataB9nqe220108Ev, symObjAddr: 0x2D28, symBinAddr: 0x10002AA38, symSize: 0x28 }
  - { offset: 0x73E77, size: 0x8, addend: 0x0, symName: __ZNSt3__19allocatorI8Matrix3DIfEE10deallocateB9nqe220108EPS2_m, symObjAddr: 0x2D6C, symBinAddr: 0x10002AA7C, symSize: 0x34 }
  - { offset: 0x73EB9, size: 0x8, addend: 0x0, symName: __ZNSt3__16vectorI8Matrix3DIfENS_9allocatorIS2_EEE19__move_assign_allocB9nqe220108ERS5_NS_17integral_constantIbLb1EEE, symObjAddr: 0x2DDC, symBinAddr: 0x10002AAEC, symSize: 0x14 }
  - { offset: 0x73EF9, size: 0x8, addend: 0x0, symName: __ZN26Int4LlamaForCausalLM_inputD2Ev, symObjAddr: 0x2DF0, symBinAddr: 0x10002AB00, symSize: 0x3C }
  - { offset: 0x73F29, size: 0x8, addend: 0x0, symName: __ZN26Int4LlamaForCausalLM_inputC2E8Matrix3DIiE, symObjAddr: 0x2E2C, symBinAddr: 0x10002AB3C, symSize: 0x58 }
  - { offset: 0x73F62, size: 0x8, addend: 0x0, symName: __ZN8ProfilerC1Ev, symObjAddr: 0x2E84, symBinAddr: 0x10002AB94, symSize: 0x2C }
  - { offset: 0x73F8C, size: 0x8, addend: 0x0, symName: __ZN8ProfilerD1Ev, symObjAddr: 0x2EB0, symBinAddr: 0x10002ABC0, symSize: 0x2C }
  - { offset: 0x73FBC, size: 0x8, addend: 0x0, symName: __ZN8ProfilerC2Ev, symObjAddr: 0x2EDC, symBinAddr: 0x10002ABEC, symSize: 0x50 }
  - { offset: 0x73FE6, size: 0x8, addend: 0x0, symName: __ZNSt3__13mapINS_12basic_stringIcNS_11char_traitsIcEENS_9allocatorIcEEEENS_6chrono10time_pointINS7_12steady_clockENS7_8durationIxNS_5ratioILl1ELl1000000000EEEEEEENS_4lessIS6_EENS4_INS_4pairIKS6_SE_EEEEEC1B9nqe220108Ev, symObjAddr: 0x2F2C, symBinAddr: 0x10002AC3C, symSize: 0x2C }
  - { offset: 0x74010, size: 0x8, addend: 0x0, symName: __ZNSt3__13mapINS_12basic_stringIcNS_11char_traitsIcEENS_9allocatorIcEEEExNS_4lessIS6_EENS4_INS_4pairIKS6_xEEEEEC1B9nqe220108Ev, symObjAddr: 0x2F58, symBinAddr: 0x10002AC68, symSize: 0x2C }
  - { offset: 0x7403A, size: 0x8, addend: 0x0, symName: __ZNSt3__13mapINS_12basic_stringIcNS_11char_traitsIcEENS_9allocatorIcEEEEiNS_4lessIS6_EENS4_INS_4pairIKS6_iEEEEEC1B9nqe220108Ev, symObjAddr: 0x2F84, symBinAddr: 0x10002AC94, symSize: 0x2C }
  - { offset: 0x74064, size: 0x8, addend: 0x0, symName: __ZNSt3__13mapINS_12basic_stringIcNS_11char_traitsIcEENS_9allocatorIcEEEENS_6chrono10time_pointINS7_12steady_clockENS7_8durationIxNS_5ratioILl1ELl1000000000EEEEEEENS_4lessIS6_EENS4_INS_4pairIKS6_SE_EEEEEC2B9nqe220108Ev, symObjAddr: 0x2FB0, symBinAddr: 0x10002ACC0, symSize: 0x40 }
  - { offset: 0x7408E, size: 0x8, addend: 0x0, symName: __ZNSt3__119__map_value_compareINS_12basic_stringIcNS_11char_traitsIcEENS_9allocatorIcEEEENS_4pairIKS6_NS_6chrono10time_pointINS9_12steady_clockENS9_8durationIxNS_5ratioILl1ELl1000000000EEEEEEEEENS_4lessIS6_EEEC1B9nqe220108ESJ_, symObjAddr: 0x2FF0, symBinAddr: 0x10002AD00, symSize: 0x2C }
  - { offset: 0x740C7, size: 0x8, addend: 0x0, symName: __ZNSt3__16__treeINS_12__value_typeINS_12basic_stringIcNS_11char_traitsIcEENS_9allocatorIcEEEENS_6chrono10time_pointINS8_12steady_clockENS8_8durationIxNS_5ratioILl1ELl1000000000EEEEEEEEENS_19__map_value_compareIS7_NS_4pairIKS7_SF_EENS_4lessIS7_EEEENS5_ISK_EEEC1B9nqe220108ERKSN_, symObjAddr: 0x301C, symBinAddr: 0x10002AD2C, symSize: 0x34 }
  - { offset: 0x74100, size: 0x8, addend: 0x0, symName: __ZNSt3__119__map_value_compareINS_12basic_stringIcNS_11char_traitsIcEENS_9allocatorIcEEEENS_4pairIKS6_NS_6chrono10time_pointINS9_12steady_clockENS9_8durationIxNS_5ratioILl1ELl1000000000EEEEEEEEENS_4lessIS6_EEEC2B9nqe220108ESJ_, symObjAddr: 0x3050, symBinAddr: 0x10002AD60, symSize: 0x14 }
  - { offset: 0x74139, size: 0x8, addend: 0x0, symName: __ZNSt3__16__treeINS_12__value_typeINS_12basic_stringIcNS_11char_traitsIcEENS_9allocatorIcEEEENS_6chrono10time_pointINS8_12steady_clockENS8_8durationIxNS_5ratioILl1ELl1000000000EEEEEEEEENS_19__map_value_compareIS7_NS_4pairIKS7_SF_EENS_4lessIS7_EEEENS5_ISK_EEEC2B9nqe220108ERKSN_, symObjAddr: 0x3064, symBinAddr: 0x10002AD74, symSize: 0x48 }
  - { offset: 0x74172, size: 0x8, addend: 0x0, symName: __ZNSt3__16__treeINS_12__value_typeINS_12basic_stringIcNS_11char_traitsIcEENS_9allocatorIcEEEENS_6chrono10time_pointINS8_12steady_clockENS8_8durationIxNS_5ratioILl1ELl1000000000EEEEEEEEENS_19__map_value_compareIS7_NS_4pairIKS7_SF_EENS_4lessIS7_EEEENS5_ISK_EEE10__end_nodeB9nqe220108Ev, symObjAddr: 0x30D8, symBinAddr: 0x10002ADBC, symSize: 0x28 }
  - { offset: 0x74198, size: 0x8, addend: 0x0, symName: __ZNSt3__13mapINS_12basic_stringIcNS_11char_traitsIcEENS_9allocatorIcEEEExNS_4lessIS6_EENS4_INS_4pairIKS6_xEEEEEC2B9nqe220108Ev, symObjAddr: 0x312C, symBinAddr: 0x10002ADE4, symSize: 0x40 }
  - { offset: 0x741C2, size: 0x8, addend: 0x0, symName: __ZNSt3__119__map_value_compareINS_12basic_stringIcNS_11char_traitsIcEENS_9allocatorIcEEEENS_4pairIKS6_xEENS_4lessIS6_EEEC1B9nqe220108ESB_, symObjAddr: 0x316C, symBinAddr: 0x10002AE24, symSize: 0x2C }
  - { offset: 0x741FB, size: 0x8, addend: 0x0, symName: __ZNSt3__16__treeINS_12__value_typeINS_12basic_stringIcNS_11char_traitsIcEENS_9allocatorIcEEEExEENS_19__map_value_compareIS7_NS_4pairIKS7_xEENS_4lessIS7_EEEENS5_ISC_EEEC1B9nqe220108ERKSF_, symObjAddr: 0x3198, symBinAddr: 0x10002AE50, symSize: 0x34 }
  - { offset: 0x74234, size: 0x8, addend: 0x0, symName: __ZNSt3__119__map_value_compareINS_12basic_stringIcNS_11char_traitsIcEENS_9allocatorIcEEEENS_4pairIKS6_xEENS_4lessIS6_EEEC2B9nqe220108ESB_, symObjAddr: 0x31CC, symBinAddr: 0x10002AE84, symSize: 0x14 }
  - { offset: 0x7426D, size: 0x8, addend: 0x0, symName: __ZNSt3__16__treeINS_12__value_typeINS_12basic_stringIcNS_11char_traitsIcEENS_9allocatorIcEEEExEENS_19__map_value_compareIS7_NS_4pairIKS7_xEENS_4lessIS7_EEEENS5_ISC_EEEC2B9nqe220108ERKSF_, symObjAddr: 0x31E0, symBinAddr: 0x10002AE98, symSize: 0x48 }
  - { offset: 0x742A6, size: 0x8, addend: 0x0, symName: __ZNSt3__16__treeINS_12__value_typeINS_12basic_stringIcNS_11char_traitsIcEENS_9allocatorIcEEEExEENS_19__map_value_compareIS7_NS_4pairIKS7_xEENS_4lessIS7_EEEENS5_ISC_EEE10__end_nodeB9nqe220108Ev, symObjAddr: 0x3228, symBinAddr: 0x10002AEE0, symSize: 0x28 }
  - { offset: 0x742CC, size: 0x8, addend: 0x0, symName: __ZNSt3__13mapINS_12basic_stringIcNS_11char_traitsIcEENS_9allocatorIcEEEEiNS_4lessIS6_EENS4_INS_4pairIKS6_iEEEEEC2B9nqe220108Ev, symObjAddr: 0x3250, symBinAddr: 0x10002AF08, symSize: 0x40 }
  - { offset: 0x742F6, size: 0x8, addend: 0x0, symName: __ZN8ProfilerD2Ev, symObjAddr: 0x3374, symBinAddr: 0x10002AF48, symSize: 0x50 }
  - { offset: 0x74326, size: 0x8, addend: 0x0, symName: __ZNSt3__13mapINS_12basic_stringIcNS_11char_traitsIcEENS_9allocatorIcEEEExNS_4lessIS6_EENS4_INS_4pairIKS6_xEEEEED1B9nqe220108Ev, symObjAddr: 0x33F0, symBinAddr: 0x10002AF98, symSize: 0x2C }
  - { offset: 0x74354, size: 0x8, addend: 0x0, symName: __ZNSt3__13mapINS_12basic_stringIcNS_11char_traitsIcEENS_9allocatorIcEEEENS_6chrono10time_pointINS7_12steady_clockENS7_8durationIxNS_5ratioILl1ELl1000000000EEEEEEENS_4lessIS6_EENS4_INS_4pairIKS6_SE_EEEEED1B9nqe220108Ev, symObjAddr: 0x341C, symBinAddr: 0x10002AFC4, symSize: 0x2C }
  - { offset: 0x74382, size: 0x8, addend: 0x0, symName: __ZNSt3__13mapINS_12basic_stringIcNS_11char_traitsIcEENS_9allocatorIcEEEExNS_4lessIS6_EENS4_INS_4pairIKS6_xEEEEED2B9nqe220108Ev, symObjAddr: 0x37B8, symBinAddr: 0x10002AFF0, symSize: 0x2C }
  - { offset: 0x743B0, size: 0x8, addend: 0x0, symName: __ZNSt3__16__treeINS_12__value_typeINS_12basic_stringIcNS_11char_traitsIcEENS_9allocatorIcEEEExEENS_19__map_value_compareIS7_NS_4pairIKS7_xEENS_4lessIS7_EEEENS5_ISC_EEED1B9nqe220108Ev, symObjAddr: 0x37E4, symBinAddr: 0x10002B01C, symSize: 0x2C }
  - { offset: 0x743DE, size: 0x8, addend: 0x0, symName: __ZNSt3__16__treeINS_12__value_typeINS_12basic_stringIcNS_11char_traitsIcEENS_9allocatorIcEEEExEENS_19__map_value_compareIS7_NS_4pairIKS7_xEENS_4lessIS7_EEEENS5_ISC_EEED2B9nqe220108Ev, symObjAddr: 0x3810, symBinAddr: 0x10002B048, symSize: 0x38 }
  - { offset: 0x7440C, size: 0x8, addend: 0x0, symName: __ZNSt3__16__treeINS_12__value_typeINS_12basic_stringIcNS_11char_traitsIcEENS_9allocatorIcEEEExEENS_19__map_value_compareIS7_NS_4pairIKS7_xEENS_4lessIS7_EEEENS5_ISC_EEE7destroyEPNS_11__tree_nodeIS8_PvEE, symObjAddr: 0x3848, symBinAddr: 0x10002B080, symSize: 0x48 }
  - { offset: 0x74441, size: 0x8, addend: 0x0, symName: __ZNKSt3__16__treeINS_12__value_typeINS_12basic_stringIcNS_11char_traitsIcEENS_9allocatorIcEEEExEENS_19__map_value_compareIS7_NS_4pairIKS7_xEENS_4lessIS7_EEEENS5_ISC_EEE6__rootB9nqe220108Ev, symObjAddr: 0x3890, symBinAddr: 0x10002B0C8, symSize: 0x28 }
  - { offset: 0x74467, size: 0x8, addend: 0x0, symName: __ZNSt3__16__treeINS_12__value_typeINS_12basic_stringIcNS_11char_traitsIcEENS_9allocatorIcEEEExEENS_19__map_value_compareIS7_NS_4pairIKS7_xEENS_4lessIS7_EEEENS5_ISC_EEE14__tree_deleterC1B9nqe220108ERNS5_INS_11__tree_nodeIS8_PvEEEE, symObjAddr: 0x38B8, symBinAddr: 0x10002B0F0, symSize: 0x34 }
  - { offset: 0x744A0, size: 0x8, addend: 0x0, symName: __ZNSt3__16__treeINS_12__value_typeINS_12basic_stringIcNS_11char_traitsIcEENS_9allocatorIcEEEExEENS_19__map_value_compareIS7_NS_4pairIKS7_xEENS_4lessIS7_EEEENS5_ISC_EEE14__tree_deleterclB9nqe220108EPNS_11__tree_nodeIS8_PvEE, symObjAddr: 0x38EC, symBinAddr: 0x10002B124, symSize: 0x98 }
  - { offset: 0x744E4, size: 0x8, addend: 0x0, symName: __ZNSt3__16__treeINS_12__value_typeINS_12basic_stringIcNS_11char_traitsIcEENS_9allocatorIcEEEExEENS_19__map_value_compareIS7_NS_4pairIKS7_xEENS_4lessIS7_EEEENS5_ISC_EEE14__tree_deleterC2B9nqe220108ERNS5_INS_11__tree_nodeIS8_PvEEEE, symObjAddr: 0x3984, symBinAddr: 0x10002B1BC, symSize: 0x20 }
  - { offset: 0x7451D, size: 0x8, addend: 0x0, symName: __ZNSt3__116allocator_traitsINS_9allocatorINS_11__tree_nodeINS_12__value_typeINS_12basic_stringIcNS_11char_traitsIcEENS1_IcEEEExEEPvEEEEE7destroyB9nqe220108INS_4pairIKS8_xEETnNS_9enable_ifIXnt15__has_destroy_vISC_PT_EEiE4typeELi0EEEvRSC_SK_, symObjAddr: 0x39A4, symBinAddr: 0x10002B1DC, symSize: 0x28 }
  - { offset: 0x7455B, size: 0x8, addend: 0x0, symName: __ZNSt3__111__tree_nodeINS_12__value_typeINS_12basic_stringIcNS_11char_traitsIcEENS_9allocatorIcEEEExEEPvE11__get_valueB9nqe220108Ev, symObjAddr: 0x39CC, symBinAddr: 0x10002B204, symSize: 0x18 }
  - { offset: 0x74581, size: 0x8, addend: 0x0, symName: __ZNSt3__116allocator_traitsINS_9allocatorINS_11__tree_nodeINS_12__value_typeINS_12basic_stringIcNS_11char_traitsIcEENS1_IcEEEExEEPvEEEEE10deallocateB9nqe220108ERSC_PSB_m, symObjAddr: 0x39E4, symBinAddr: 0x10002B21C, symSize: 0x34 }
  - { offset: 0x745C3, size: 0x8, addend: 0x0, symName: __ZNSt3__14pairIKNS_12basic_stringIcNS_11char_traitsIcEENS_9allocatorIcEEEExED1Ev, symObjAddr: 0x3A3C, symBinAddr: 0x10002B274, symSize: 0x2C }
  - { offset: 0x745F3, size: 0x8, addend: 0x0, symName: __ZNSt3__14pairIKNS_12basic_stringIcNS_11char_traitsIcEENS_9allocatorIcEEEExED2Ev, symObjAddr: 0x3A68, symBinAddr: 0x10002B2A0, symSize: 0x2C }
  - { offset: 0x74623, size: 0x8, addend: 0x0, symName: __ZNSt3__19allocatorINS_11__tree_nodeINS_12__value_typeINS_12basic_stringIcNS_11char_traitsIcEENS0_IcEEEExEEPvEEE10deallocateB9nqe220108EPSA_m, symObjAddr: 0x3A94, symBinAddr: 0x10002B2CC, symSize: 0x34 }
  - { offset: 0x74665, size: 0x8, addend: 0x0, symName: __ZNKSt3__16__treeINS_12__value_typeINS_12basic_stringIcNS_11char_traitsIcEENS_9allocatorIcEEEExEENS_19__map_value_compareIS7_NS_4pairIKS7_xEENS_4lessIS7_EEEENS5_ISC_EEE10__end_nodeB9nqe220108Ev, symObjAddr: 0x3B00, symBinAddr: 0x10002B338, symSize: 0x28 }
  - { offset: 0x7468B, size: 0x8, addend: 0x0, symName: __ZNSt3__13mapINS_12basic_stringIcNS_11char_traitsIcEENS_9allocatorIcEEEENS_6chrono10time_pointINS7_12steady_clockENS7_8durationIxNS_5ratioILl1ELl1000000000EEEEEEENS_4lessIS6_EENS4_INS_4pairIKS6_SE_EEEEED2B9nqe220108Ev, symObjAddr: 0x3B28, symBinAddr: 0x10002B360, symSize: 0x2C }
  - { offset: 0x746B9, size: 0x8, addend: 0x0, symName: __ZNSt3__16__treeINS_12__value_typeINS_12basic_stringIcNS_11char_traitsIcEENS_9allocatorIcEEEENS_6chrono10time_pointINS8_12steady_clockENS8_8durationIxNS_5ratioILl1ELl1000000000EEEEEEEEENS_19__map_value_compareIS7_NS_4pairIKS7_SF_EENS_4lessIS7_EEEENS5_ISK_EEED1B9nqe220108Ev, symObjAddr: 0x3B54, symBinAddr: 0x10002B38C, symSize: 0x2C }
  - { offset: 0x746E7, size: 0x8, addend: 0x0, symName: __ZNSt3__16__treeINS_12__value_typeINS_12basic_stringIcNS_11char_traitsIcEENS_9allocatorIcEEEENS_6chrono10time_pointINS8_12steady_clockENS8_8durationIxNS_5ratioILl1ELl1000000000EEEEEEEEENS_19__map_value_compareIS7_NS_4pairIKS7_SF_EENS_4lessIS7_EEEENS5_ISK_EEED2B9nqe220108Ev, symObjAddr: 0x3B80, symBinAddr: 0x10002B3B8, symSize: 0x38 }
  - { offset: 0x74715, size: 0x8, addend: 0x0, symName: __ZNSt3__16__treeINS_12__value_typeINS_12basic_stringIcNS_11char_traitsIcEENS_9allocatorIcEEEENS_6chrono10time_pointINS8_12steady_clockENS8_8durationIxNS_5ratioILl1ELl1000000000EEEEEEEEENS_19__map_value_compareIS7_NS_4pairIKS7_SF_EENS_4lessIS7_EEEENS5_ISK_EEE7destroyEPNS_11__tree_nodeISG_PvEE, symObjAddr: 0x3BB8, symBinAddr: 0x10002B3F0, symSize: 0x48 }
  - { offset: 0x7474A, size: 0x8, addend: 0x0, symName: __ZNKSt3__16__treeINS_12__value_typeINS_12basic_stringIcNS_11char_traitsIcEENS_9allocatorIcEEEENS_6chrono10time_pointINS8_12steady_clockENS8_8durationIxNS_5ratioILl1ELl1000000000EEEEEEEEENS_19__map_value_compareIS7_NS_4pairIKS7_SF_EENS_4lessIS7_EEEENS5_ISK_EEE6__rootB9nqe220108Ev, symObjAddr: 0x3C00, symBinAddr: 0x10002B438, symSize: 0x28 }
  - { offset: 0x74770, size: 0x8, addend: 0x0, symName: __ZNSt3__16__treeINS_12__value_typeINS_12basic_stringIcNS_11char_traitsIcEENS_9allocatorIcEEEENS_6chrono10time_pointINS8_12steady_clockENS8_8durationIxNS_5ratioILl1ELl1000000000EEEEEEEEENS_19__map_value_compareIS7_NS_4pairIKS7_SF_EENS_4lessIS7_EEEENS5_ISK_EEE14__tree_deleterC1B9nqe220108ERNS5_INS_11__tree_nodeISG_PvEEEE, symObjAddr: 0x3C28, symBinAddr: 0x10002B460, symSize: 0x34 }
  - { offset: 0x747A9, size: 0x8, addend: 0x0, symName: __ZNSt3__16__treeINS_12__value_typeINS_12basic_stringIcNS_11char_traitsIcEENS_9allocatorIcEEEENS_6chrono10time_pointINS8_12steady_clockENS8_8durationIxNS_5ratioILl1ELl1000000000EEEEEEEEENS_19__map_value_compareIS7_NS_4pairIKS7_SF_EENS_4lessIS7_EEEENS5_ISK_EEE14__tree_deleterclB9nqe220108EPNS_11__tree_nodeISG_PvEE, symObjAddr: 0x3C5C, symBinAddr: 0x10002B494, symSize: 0x98 }
  - { offset: 0x747ED, size: 0x8, addend: 0x0, symName: __ZNSt3__16__treeINS_12__value_typeINS_12basic_stringIcNS_11char_traitsIcEENS_9allocatorIcEEEENS_6chrono10time_pointINS8_12steady_clockENS8_8durationIxNS_5ratioILl1ELl1000000000EEEEEEEEENS_19__map_value_compareIS7_NS_4pairIKS7_SF_EENS_4lessIS7_EEEENS5_ISK_EEE14__tree_deleterC2B9nqe220108ERNS5_INS_11__tree_nodeISG_PvEEEE, symObjAddr: 0x3CF4, symBinAddr: 0x10002B52C, symSize: 0x20 }
  - { offset: 0x74826, size: 0x8, addend: 0x0, symName: __ZNSt3__116allocator_traitsINS_9allocatorINS_11__tree_nodeINS_12__value_typeINS_12basic_stringIcNS_11char_traitsIcEENS1_IcEEEENS_6chrono10time_pointINS9_12steady_clockENS9_8durationIxNS_5ratioILl1ELl1000000000EEEEEEEEEPvEEEEE7destroyB9nqe220108INS_4pairIKS8_SG_EETnNS_9enable_ifIXnt15__has_destroy_vISK_PT_EEiE4typeELi0EEEvRSK_SS_, symObjAddr: 0x3D14, symBinAddr: 0x10002B54C, symSize: 0x28 }
  - { offset: 0x74864, size: 0x8, addend: 0x0, symName: __ZNSt3__111__tree_nodeINS_12__value_typeINS_12basic_stringIcNS_11char_traitsIcEENS_9allocatorIcEEEENS_6chrono10time_pointINS8_12steady_clockENS8_8durationIxNS_5ratioILl1ELl1000000000EEEEEEEEEPvE11__get_valueB9nqe220108Ev, symObjAddr: 0x3D3C, symBinAddr: 0x10002B574, symSize: 0x18 }
  - { offset: 0x7488A, size: 0x8, addend: 0x0, symName: __ZNSt3__116allocator_traitsINS_9allocatorINS_11__tree_nodeINS_12__value_typeINS_12basic_stringIcNS_11char_traitsIcEENS1_IcEEEENS_6chrono10time_pointINS9_12steady_clockENS9_8durationIxNS_5ratioILl1ELl1000000000EEEEEEEEEPvEEEEE10deallocateB9nqe220108ERSK_PSJ_m, symObjAddr: 0x3D54, symBinAddr: 0x10002B58C, symSize: 0x34 }
  - { offset: 0x748CC, size: 0x8, addend: 0x0, symName: __ZNSt3__14pairIKNS_12basic_stringIcNS_11char_traitsIcEENS_9allocatorIcEEEENS_6chrono10time_pointINS8_12steady_clockENS8_8durationIxNS_5ratioILl1ELl1000000000EEEEEEEED1Ev, symObjAddr: 0x3DAC, symBinAddr: 0x10002B5E4, symSize: 0x2C }
  - { offset: 0x748FC, size: 0x8, addend: 0x0, symName: __ZNSt3__14pairIKNS_12basic_stringIcNS_11char_traitsIcEENS_9allocatorIcEEEENS_6chrono10time_pointINS8_12steady_clockENS8_8durationIxNS_5ratioILl1ELl1000000000EEEEEEEED2Ev, symObjAddr: 0x3DD8, symBinAddr: 0x10002B610, symSize: 0x2C }
  - { offset: 0x7492C, size: 0x8, addend: 0x0, symName: __ZNSt3__19allocatorINS_11__tree_nodeINS_12__value_typeINS_12basic_stringIcNS_11char_traitsIcEENS0_IcEEEENS_6chrono10time_pointINS8_12steady_clockENS8_8durationIxNS_5ratioILl1ELl1000000000EEEEEEEEEPvEEE10deallocateB9nqe220108EPSI_m, symObjAddr: 0x3E04, symBinAddr: 0x10002B63C, symSize: 0x34 }
  - { offset: 0x7496E, size: 0x8, addend: 0x0, symName: __ZNKSt3__16__treeINS_12__value_typeINS_12basic_stringIcNS_11char_traitsIcEENS_9allocatorIcEEEENS_6chrono10time_pointINS8_12steady_clockENS8_8durationIxNS_5ratioILl1ELl1000000000EEEEEEEEENS_19__map_value_compareIS7_NS_4pairIKS7_SF_EENS_4lessIS7_EEEENS5_ISK_EEE10__end_nodeB9nqe220108Ev, symObjAddr: 0x3E70, symBinAddr: 0x10002B6A8, symSize: 0x28 }
  - { offset: 0x74994, size: 0x8, addend: 0x0, symName: __ZNSt3__13mapINS_12basic_stringIcNS_11char_traitsIcEENS_9allocatorIcEEEENS_6chrono10time_pointINS7_12steady_clockENS7_8durationIxNS_5ratioILl1ELl1000000000EEEEEEENS_4lessIS6_EENS4_INS_4pairIKS6_SE_EEEEEixERSI_, symObjAddr: 0x3E98, symBinAddr: 0x10002B6D0, symSize: 0xB4 }
  - { offset: 0x749F7, size: 0x8, addend: 0x0, symName: __ZNSt3__16__treeINS_12__value_typeINS_12basic_stringIcNS_11char_traitsIcEENS_9allocatorIcEEEENS_6chrono10time_pointINS8_12steady_clockENS8_8durationIxNS_5ratioILl1ELl1000000000EEEEEEEEENS_19__map_value_compareIS7_NS_4pairIKS7_SF_EENS_4lessIS7_EEEENS5_ISK_EEE16__emplace_uniqueB9nqe220108IJRKNS_21piecewise_construct_tENS_5tupleIJRSJ_EEENSU_IJEEEEEENSI_INS_15__tree_iteratorISG_PNS_11__tree_nodeISG_PvEElEEbEEDpOT_, symObjAddr: 0x3F4C, symBinAddr: 0x10002B784, symSize: 0xAC }
  - { offset: 0x74AD2, size: 0x8, addend: 0x0, symName: __ZNKSt3__115__tree_iteratorINS_12__value_typeINS_12basic_stringIcNS_11char_traitsIcEENS_9allocatorIcEEEENS_6chrono10time_pointINS8_12steady_clockENS8_8durationIxNS_5ratioILl1ELl1000000000EEEEEEEEEPNS_11__tree_nodeISG_PvEElEptB9nqe220108Ev, symObjAddr: 0x4028, symBinAddr: 0x10002B830, symSize: 0x2C }
  - { offset: 0x74B12, size: 0x8, addend: 0x0, symName: __ZZNSt3__16__treeINS_12__value_typeINS_12basic_stringIcNS_11char_traitsIcEENS_9allocatorIcEEEENS_6chrono10time_pointINS8_12steady_clockENS8_8durationIxNS_5ratioILl1ELl1000000000EEEEEEEEENS_19__map_value_compareIS7_NS_4pairIKS7_SF_EENS_4lessIS7_EEEENS5_ISK_EEE16__emplace_uniqueB9nqe220108IJRKNS_21piecewise_construct_tENS_5tupleIJRSJ_EEENSU_IJEEEEEENSI_INS_15__tree_iteratorISG_PNS_11__tree_nodeISG_PvEElEEbEEDpOT_ENKUlSV_ST_OSW_OSX_E_clESV_ST_S18_S19_, symObjAddr: 0x41BC, symBinAddr: 0x10002B9C4, symSize: 0x124 }
  - { offset: 0x74BD4, size: 0x8, addend: 0x0, symName: __ZNSt3__16__treeINS_12__value_typeINS_12basic_stringIcNS_11char_traitsIcEENS_9allocatorIcEEEENS_6chrono10time_pointINS8_12steady_clockENS8_8durationIxNS_5ratioILl1ELl1000000000EEEEEEEEENS_19__map_value_compareIS7_NS_4pairIKS7_SF_EENS_4lessIS7_EEEENS5_ISK_EEE12__find_equalB9nqe220108IS7_EENSI_IPNS_15__tree_end_nodeIPNS_16__tree_node_baseIPvEEEERSV_EERKT_, symObjAddr: 0x4304, symBinAddr: 0x10002BAE8, symSize: 0x190 }
  - { offset: 0x74C89, size: 0x8, addend: 0x0, symName: __ZNSt3__16__treeINS_12__value_typeINS_12basic_stringIcNS_11char_traitsIcEENS_9allocatorIcEEEENS_6chrono10time_pointINS8_12steady_clockENS8_8durationIxNS_5ratioILl1ELl1000000000EEEEEEEEENS_19__map_value_compareIS7_NS_4pairIKS7_SF_EENS_4lessIS7_EEEENS5_ISK_EEE16__construct_nodeIJRKNS_21piecewise_construct_tENS_5tupleIJRSJ_EEENSU_IJEEEEEENS_10unique_ptrINS_11__tree_nodeISG_PvEENS_22__tree_node_destructorINS5_IS11_EEEEEEDpOT_, symObjAddr: 0x44DC, symBinAddr: 0x10002BC78, symSize: 0x104 }
  - { offset: 0x74D10, size: 0x8, addend: 0x0, symName: __ZNSt3__16__treeINS_12__value_typeINS_12basic_stringIcNS_11char_traitsIcEENS_9allocatorIcEEEENS_6chrono10time_pointINS8_12steady_clockENS8_8durationIxNS_5ratioILl1ELl1000000000EEEEEEEEENS_19__map_value_compareIS7_NS_4pairIKS7_SF_EENS_4lessIS7_EEEENS5_ISK_EEE16__insert_node_atEPNS_15__tree_end_nodeIPNS_16__tree_node_baseIPvEEEERSU_SU_, symObjAddr: 0x45E0, symBinAddr: 0x10002BD7C, symSize: 0xA4 }
  - { offset: 0x74D63, size: 0x8, addend: 0x0, symName: __ZNKSt3__110unique_ptrINS_11__tree_nodeINS_12__value_typeINS_12basic_stringIcNS_11char_traitsIcEENS_9allocatorIcEEEENS_6chrono10time_pointINS9_12steady_clockENS9_8durationIxNS_5ratioILl1ELl1000000000EEEEEEEEEPvEENS_22__tree_node_destructorINS6_ISJ_EEEEE3getB9nqe220108Ev, symObjAddr: 0x4684, symBinAddr: 0x10002BE20, symSize: 0x18 }
  - { offset: 0x74D89, size: 0x8, addend: 0x0, symName: __ZNSt3__110unique_ptrINS_11__tree_nodeINS_12__value_typeINS_12basic_stringIcNS_11char_traitsIcEENS_9allocatorIcEEEENS_6chrono10time_pointINS9_12steady_clockENS9_8durationIxNS_5ratioILl1ELl1000000000EEEEEEEEEPvEENS_22__tree_node_destructorINS6_ISJ_EEEEE7releaseB9nqe220108Ev, symObjAddr: 0x469C, symBinAddr: 0x10002BE38, symSize: 0x24 }
  - { offset: 0x74DBE, size: 0x8, addend: 0x0, symName: __ZNSt3__110unique_ptrINS_11__tree_nodeINS_12__value_typeINS_12basic_stringIcNS_11char_traitsIcEENS_9allocatorIcEEEENS_6chrono10time_pointINS9_12steady_clockENS9_8durationIxNS_5ratioILl1ELl1000000000EEEEEEEEEPvEENS_22__tree_node_destructorINS6_ISJ_EEEEED1B9nqe220108Ev, symObjAddr: 0x46C0, symBinAddr: 0x10002BE5C, symSize: 0x2C }
  - { offset: 0x74DEC, size: 0x8, addend: 0x0, symName: __ZNSt3__115__tree_iteratorINS_12__value_typeINS_12basic_stringIcNS_11char_traitsIcEENS_9allocatorIcEEEENS_6chrono10time_pointINS8_12steady_clockENS8_8durationIxNS_5ratioILl1ELl1000000000EEEEEEEEEPNS_11__tree_nodeISG_PvEElEC1B9nqe220108ESK_, symObjAddr: 0x46EC, symBinAddr: 0x10002BE88, symSize: 0x34 }
  - { offset: 0x74E31, size: 0x8, addend: 0x0, symName: __ZNSt3__14pairINS_15__tree_iteratorINS_12__value_typeINS_12basic_stringIcNS_11char_traitsIcEENS_9allocatorIcEEEENS_6chrono10time_pointINS9_12steady_clockENS9_8durationIxNS_5ratioILl1ELl1000000000EEEEEEEEEPNS_11__tree_nodeISH_PvEElEEbEC1B9nqe220108ISM_RbTnNS_9enable_ifIXclsr25__check_pair_constructionISM_bEE23__is_pair_constructibleIT_T0_EEEiE4typeELi0EEEOSR_OSS_, symObjAddr: 0x4720, symBinAddr: 0x10002BEBC, symSize: 0x3C }
  - { offset: 0x74E8F, size: 0x8, addend: 0x0, symName: __ZNKSt3__16__treeINS_12__value_typeINS_12basic_stringIcNS_11char_traitsIcEENS_9allocatorIcEEEENS_6chrono10time_pointINS8_12steady_clockENS8_8durationIxNS_5ratioILl1ELl1000000000EEEEEEEEENS_19__map_value_compareIS7_NS_4pairIKS7_SF_EENS_4lessIS7_EEEENS5_ISK_EEE10__root_ptrB9nqe220108Ev, symObjAddr: 0x4798, symBinAddr: 0x10002BEF8, symSize: 0x24 }
  - { offset: 0x74EB5, size: 0x8, addend: 0x0, symName: __ZNSt3__16__treeINS_12__value_typeINS_12basic_stringIcNS_11char_traitsIcEENS_9allocatorIcEEEENS_6chrono10time_pointINS8_12steady_clockENS8_8durationIxNS_5ratioILl1ELl1000000000EEEEEEEEENS_19__map_value_compareIS7_NS_4pairIKS7_SF_EENS_4lessIS7_EEEENS5_ISK_EEE10value_compB9nqe220108Ev, symObjAddr: 0x47D0, symBinAddr: 0x10002BF30, symSize: 0x18 }
  - { offset: 0x74EDB, size: 0x8, addend: 0x0, symName: __ZNSt3__133__lazy_synth_three_way_comparatorINS_19__map_value_compareINS_12basic_stringIcNS_11char_traitsIcEENS_9allocatorIcEEEENS_4pairIKS7_NS_6chrono10time_pointINSA_12steady_clockENSA_8durationIxNS_5ratioILl1ELl1000000000EEEEEEEEENS_4lessIS7_EEEES7_SI_vEC1B9nqe220108ERKSL_, symObjAddr: 0x47E8, symBinAddr: 0x10002BF48, symSize: 0x34 }
  - { offset: 0x74F13, size: 0x8, addend: 0x0, symName: __ZNKSt3__133__lazy_synth_three_way_comparatorINS_19__map_value_compareINS_12basic_stringIcNS_11char_traitsIcEENS_9allocatorIcEEEENS_4pairIKS7_NS_6chrono10time_pointINSA_12steady_clockENSA_8durationIxNS_5ratioILl1ELl1000000000EEEEEEEEENS_4lessIS7_EEEES7_SI_vEclB9nqe220108ERS9_RKSI_, symObjAddr: 0x481C, symBinAddr: 0x10002BF7C, symSize: 0x44 }
  - { offset: 0x74F55, size: 0x8, addend: 0x0, symName: __ZNKSt3__121__lazy_compare_resultINS_19__map_value_compareINS_12basic_stringIcNS_11char_traitsIcEENS_9allocatorIcEEEENS_4pairIKS7_NS_6chrono10time_pointINSA_12steady_clockENSA_8durationIxNS_5ratioILl1ELl1000000000EEEEEEEEENS_4lessIS7_EEEES7_SI_E6__lessB9nqe220108Ev, symObjAddr: 0x4860, symBinAddr: 0x10002BFC0, symSize: 0x3C }
  - { offset: 0x74F8F, size: 0x8, addend: 0x0, symName: __ZNKSt3__121__lazy_compare_resultINS_19__map_value_compareINS_12basic_stringIcNS_11char_traitsIcEENS_9allocatorIcEEEENS_4pairIKS7_NS_6chrono10time_pointINSA_12steady_clockENSA_8durationIxNS_5ratioILl1ELl1000000000EEEEEEEEENS_4lessIS7_EEEES7_SI_E9__greaterB9nqe220108Ev, symObjAddr: 0x48D8, symBinAddr: 0x10002BFFC, symSize: 0x3C }
  - { offset: 0x74FC3, size: 0x8, addend: 0x0, symName: __ZNSt3__133__lazy_synth_three_way_comparatorINS_19__map_value_compareINS_12basic_stringIcNS_11char_traitsIcEENS_9allocatorIcEEEENS_4pairIKS7_NS_6chrono10time_pointINSA_12steady_clockENSA_8durationIxNS_5ratioILl1ELl1000000000EEEEEEEEENS_4lessIS7_EEEES7_SI_vEC2B9nqe220108ERKSL_, symObjAddr: 0x4944, symBinAddr: 0x10002C038, symSize: 0x20 }
  - { offset: 0x74FFB, size: 0x8, addend: 0x0, symName: __ZNSt3__121__lazy_compare_resultINS_19__map_value_compareINS_12basic_stringIcNS_11char_traitsIcEENS_9allocatorIcEEEENS_4pairIKS7_NS_6chrono10time_pointINSA_12steady_clockENSA_8durationIxNS_5ratioILl1ELl1000000000EEEEEEEEENS_4lessIS7_EEEES7_SI_EC1B9nqe220108ERKSL_RS9_RKSI_, symObjAddr: 0x4964, symBinAddr: 0x10002C058, symSize: 0x44 }
  - { offset: 0x7504F, size: 0x8, addend: 0x0, symName: __ZNSt3__121__lazy_compare_resultINS_19__map_value_compareINS_12basic_stringIcNS_11char_traitsIcEENS_9allocatorIcEEEENS_4pairIKS7_NS_6chrono10time_pointINSA_12steady_clockENSA_8durationIxNS_5ratioILl1ELl1000000000EEEEEEEEENS_4lessIS7_EEEES7_SI_EC2B9nqe220108ERKSL_RS9_RKSI_, symObjAddr: 0x49A8, symBinAddr: 0x10002C09C, symSize: 0x38 }
  - { offset: 0x750A3, size: 0x8, addend: 0x0, symName: __ZNKSt3__119__map_value_compareINS_12basic_stringIcNS_11char_traitsIcEENS_9allocatorIcEEEENS_4pairIKS6_NS_6chrono10time_pointINS9_12steady_clockENS9_8durationIxNS_5ratioILl1ELl1000000000EEEEEEEEENS_4lessIS6_EEEclB9nqe220108ERS8_RKSH_, symObjAddr: 0x49E0, symBinAddr: 0x10002C0D4, symSize: 0x34 }
  - { offset: 0x750E7, size: 0x8, addend: 0x0, symName: __ZNKSt3__119__map_value_compareINS_12basic_stringIcNS_11char_traitsIcEENS_9allocatorIcEEEENS_4pairIKS6_NS_6chrono10time_pointINS9_12steady_clockENS9_8durationIxNS_5ratioILl1ELl1000000000EEEEEEEEENS_4lessIS6_EEEclB9nqe220108ERKSH_RS8_, symObjAddr: 0x4F70, symBinAddr: 0x10002C108, symSize: 0x34 }
  - { offset: 0x7512B, size: 0x8, addend: 0x0, symName: __ZNSt3__16__treeINS_12__value_typeINS_12basic_stringIcNS_11char_traitsIcEENS_9allocatorIcEEEENS_6chrono10time_pointINS8_12steady_clockENS8_8durationIxNS_5ratioILl1ELl1000000000EEEEEEEEENS_19__map_value_compareIS7_NS_4pairIKS7_SF_EENS_4lessIS7_EEEENS5_ISK_EEE12__node_allocB9nqe220108Ev, symObjAddr: 0x4FD0, symBinAddr: 0x10002C13C, symSize: 0x18 }
  - { offset: 0x75151, size: 0x8, addend: 0x0, symName: __ZNSt3__116allocator_traitsINS_9allocatorINS_11__tree_nodeINS_12__value_typeINS_12basic_stringIcNS_11char_traitsIcEENS1_IcEEEENS_6chrono10time_pointINS9_12steady_clockENS9_8durationIxNS_5ratioILl1ELl1000000000EEEEEEEEEPvEEEEE8allocateB9nqe220108ERSK_m, symObjAddr: 0x4FE8, symBinAddr: 0x10002C154, symSize: 0x2C }
  - { offset: 0x75184, size: 0x8, addend: 0x0, symName: __ZNSt3__122__tree_node_destructorINS_9allocatorINS_11__tree_nodeINS_12__value_typeINS_12basic_stringIcNS_11char_traitsIcEENS1_IcEEEENS_6chrono10time_pointINS9_12steady_clockENS9_8durationIxNS_5ratioILl1ELl1000000000EEEEEEEEEPvEEEEEC1B9nqe220108ERSK_b, symObjAddr: 0x5014, symBinAddr: 0x10002C180, symSize: 0x40 }
  - { offset: 0x751D2, size: 0x8, addend: 0x0, symName: __ZNSt3__110unique_ptrINS_11__tree_nodeINS_12__value_typeINS_12basic_stringIcNS_11char_traitsIcEENS_9allocatorIcEEEENS_6chrono10time_pointINS9_12steady_clockENS9_8durationIxNS_5ratioILl1ELl1000000000EEEEEEEEEPvEENS_22__tree_node_destructorINS6_ISJ_EEEEEC1B9nqe220108ILb1EvEEPSJ_NS_16__dependent_typeINS_27__unique_ptr_deleter_sfinaeISM_EEXT_EE20__good_rval_ref_typeE, symObjAddr: 0x5054, symBinAddr: 0x10002C1C0, symSize: 0x3C }
  - { offset: 0x75223, size: 0x8, addend: 0x0, symName: __ZNKSt3__110unique_ptrINS_11__tree_nodeINS_12__value_typeINS_12basic_stringIcNS_11char_traitsIcEENS_9allocatorIcEEEENS_6chrono10time_pointINS9_12steady_clockENS9_8durationIxNS_5ratioILl1ELl1000000000EEEEEEEEEPvEENS_22__tree_node_destructorINS6_ISJ_EEEEEdeB9nqe220108Ev, symObjAddr: 0x50DC, symBinAddr: 0x10002C248, symSize: 0x18 }
  - { offset: 0x75249, size: 0x8, addend: 0x0, symName: __ZNSt3__110unique_ptrINS_11__tree_nodeINS_12__value_typeINS_12basic_stringIcNS_11char_traitsIcEENS_9allocatorIcEEEENS_6chrono10time_pointINS9_12steady_clockENS9_8durationIxNS_5ratioILl1ELl1000000000EEEEEEEEEPvEENS_22__tree_node_destructorINS6_ISJ_EEEEE11get_deleterB9nqe220108Ev, symObjAddr: 0x50F4, symBinAddr: 0x10002C260, symSize: 0x18 }
  - { offset: 0x7526F, size: 0x8, addend: 0x0, symName: __ZNSt3__19allocatorINS_11__tree_nodeINS_12__value_typeINS_12basic_stringIcNS_11char_traitsIcEENS0_IcEEEENS_6chrono10time_pointINS8_12steady_clockENS8_8durationIxNS_5ratioILl1ELl1000000000EEEEEEEEEPvEEE8allocateB9nqe220108Em, symObjAddr: 0x510C, symBinAddr: 0x10002C278, symSize: 0x50 }
  - { offset: 0x752AE, size: 0x8, addend: 0x0, symName: __ZNSt3__116allocator_traitsINS_9allocatorINS_11__tree_nodeINS_12__value_typeINS_12basic_stringIcNS_11char_traitsIcEENS1_IcEEEENS_6chrono10time_pointINS9_12steady_clockENS9_8durationIxNS_5ratioILl1ELl1000000000EEEEEEEEEPvEEEEE8max_sizeB9nqe220108ISK_TnNS_9enable_ifIX16__has_max_size_vIKT_EEiE4typeELi0EEEmRKSK_, symObjAddr: 0x515C, symBinAddr: 0x10002C2C8, symSize: 0x24 }
  - { offset: 0x752E1, size: 0x8, addend: 0x0, symName: __ZNKSt3__19allocatorINS_11__tree_nodeINS_12__value_typeINS_12basic_stringIcNS_11char_traitsIcEENS0_IcEEEENS_6chrono10time_pointINS8_12steady_clockENS8_8durationIxNS_5ratioILl1ELl1000000000EEEEEEEEEPvEEE8max_sizeB9nqe220108Ev, symObjAddr: 0x51E8, symBinAddr: 0x10002C320, symSize: 0x14 }
  - { offset: 0x75307, size: 0x8, addend: 0x0, symName: __ZNSt3__122__tree_node_destructorINS_9allocatorINS_11__tree_nodeINS_12__value_typeINS_12basic_stringIcNS_11char_traitsIcEENS1_IcEEEENS_6chrono10time_pointINS9_12steady_clockENS9_8durationIxNS_5ratioILl1ELl1000000000EEEEEEEEEPvEEEEEC2B9nqe220108ERSK_b, symObjAddr: 0x51FC, symBinAddr: 0x10002C334, symSize: 0x30 }
  - { offset: 0x7534F, size: 0x8, addend: 0x0, symName: __ZNSt3__110unique_ptrINS_11__tree_nodeINS_12__value_typeINS_12basic_stringIcNS_11char_traitsIcEENS_9allocatorIcEEEENS_6chrono10time_pointINS9_12steady_clockENS9_8durationIxNS_5ratioILl1ELl1000000000EEEEEEEEEPvEENS_22__tree_node_destructorINS6_ISJ_EEEEEC2B9nqe220108ILb1EvEEPSJ_NS_16__dependent_typeINS_27__unique_ptr_deleter_sfinaeISM_EEXT_EE20__good_rval_ref_typeE, symObjAddr: 0x522C, symBinAddr: 0x10002C364, symSize: 0x4C }
  - { offset: 0x753A5, size: 0x8, addend: 0x0, symName: __ZNSt3__125__compressed_pair_paddingINS_22__tree_node_destructorINS_9allocatorINS_11__tree_nodeINS_12__value_typeINS_12basic_stringIcNS_11char_traitsIcEENS2_IcEEEENS_6chrono10time_pointINSA_12steady_clockENSA_8durationIxNS_5ratioILl1ELl1000000000EEEEEEEEEPvEEEEEELb0EEC1Ev, symObjAddr: 0x5278, symBinAddr: 0x10002C3B0, symSize: 0x2C }
  - { offset: 0x753D1, size: 0x8, addend: 0x0, symName: __ZNSt3__125__compressed_pair_paddingINS_22__tree_node_destructorINS_9allocatorINS_11__tree_nodeINS_12__value_typeINS_12basic_stringIcNS_11char_traitsIcEENS2_IcEEEENS_6chrono10time_pointINSA_12steady_clockENSA_8durationIxNS_5ratioILl1ELl1000000000EEEEEEEEEPvEEEEEELb0EEC2Ev, symObjAddr: 0x52A4, symBinAddr: 0x10002C3DC, symSize: 0x4C }
  - { offset: 0x75403, size: 0x8, addend: 0x0, symName: __ZNSt3__111__tree_nodeINS_12__value_typeINS_12basic_stringIcNS_11char_traitsIcEENS_9allocatorIcEEEENS_6chrono10time_pointINS8_12steady_clockENS8_8durationIxNS_5ratioILl1ELl1000000000EEEEEEEEEPvEC1B9nqe220108INS5_ISI_EEJRKNS_21piecewise_construct_tENS_5tupleIJRKS7_EEENSO_IJEEEEEERT_DpOT0_, symObjAddr: 0x52F0, symBinAddr: 0x10002C428, symSize: 0x4C }
  - { offset: 0x75487, size: 0x8, addend: 0x0, symName: __ZNSt3__111__tree_nodeINS_12__value_typeINS_12basic_stringIcNS_11char_traitsIcEENS_9allocatorIcEEEENS_6chrono10time_pointINS8_12steady_clockENS8_8durationIxNS_5ratioILl1ELl1000000000EEEEEEEEEPvEC2B9nqe220108INS5_ISI_EEJRKNS_21piecewise_construct_tENS_5tupleIJRKS7_EEENSO_IJEEEEEERT_DpOT0_, symObjAddr: 0x533C, symBinAddr: 0x10002C474, symSize: 0x64 }
  - { offset: 0x7550B, size: 0x8, addend: 0x0, symName: __ZNSt3__116allocator_traitsINS_9allocatorINS_11__tree_nodeINS_12__value_typeINS_12basic_stringIcNS_11char_traitsIcEENS1_IcEEEENS_6chrono10time_pointINS9_12steady_clockENS9_8durationIxNS_5ratioILl1ELl1000000000EEEEEEEEEPvEEEEE9constructB9nqe220108INS_4pairIKS8_SG_EEJRKNS_21piecewise_construct_tENS_5tupleIJRSO_EEENST_IJEEEETnNS_9enable_ifIX17__has_construct_vISK_PT_DpT0_EEiE4typeELi0EEEvRSK_SZ_DpOS10_, symObjAddr: 0x53CC, symBinAddr: 0x10002C4D8, symSize: 0x44 }
  - { offset: 0x7558F, size: 0x8, addend: 0x0, symName: __ZNSt3__19allocatorINS_11__tree_nodeINS_12__value_typeINS_12basic_stringIcNS_11char_traitsIcEENS0_IcEEEENS_6chrono10time_pointINS8_12steady_clockENS8_8durationIxNS_5ratioILl1ELl1000000000EEEEEEEEEPvEEE9constructB9nqe220108INS_4pairIKS7_SF_EEJRKNS_21piecewise_construct_tENS_5tupleIJRSM_EEENSR_IJEEEEEEvPT_DpOT0_, symObjAddr: 0x5410, symBinAddr: 0x10002C51C, symSize: 0x44 }
  - { offset: 0x7560B, size: 0x8, addend: 0x0, symName: __ZNSt3__14pairIKNS_12basic_stringIcNS_11char_traitsIcEENS_9allocatorIcEEEENS_6chrono10time_pointINS8_12steady_clockENS8_8durationIxNS_5ratioILl1ELl1000000000EEEEEEEEC1B9nqe220108IJRS7_EJEEENS_21piecewise_construct_tENS_5tupleIJDpT_EEENSK_IJDpT0_EEE, symObjAddr: 0x5454, symBinAddr: 0x10002C560, symSize: 0x3C }
  - { offset: 0x7566F, size: 0x8, addend: 0x0, symName: __ZNSt3__14pairIKNS_12basic_stringIcNS_11char_traitsIcEENS_9allocatorIcEEEENS_6chrono10time_pointINS8_12steady_clockENS8_8durationIxNS_5ratioILl1ELl1000000000EEEEEEEEC1B9nqe220108IJRS7_EJEJLm0EETpTnmJEEENS_21piecewise_construct_tERNS_5tupleIJDpT_EEERNSK_IJDpT0_EEENS_18__integer_sequenceImJXspT1_EEEENST_ImJXspT2_EEEE, symObjAddr: 0x5490, symBinAddr: 0x10002C59C, symSize: 0x3C }
  - { offset: 0x756F9, size: 0x8, addend: 0x0, symName: __ZNSt3__14pairIKNS_12basic_stringIcNS_11char_traitsIcEENS_9allocatorIcEEEENS_6chrono10time_pointINS8_12steady_clockENS8_8durationIxNS_5ratioILl1ELl1000000000EEEEEEEEC2B9nqe220108IJRS7_EJEJLm0EETpTnmJEEENS_21piecewise_construct_tERNS_5tupleIJDpT_EEERNSK_IJDpT0_EEENS_18__integer_sequenceImJXspT1_EEEENST_ImJXspT2_EEEE, symObjAddr: 0x54CC, symBinAddr: 0x10002C5D8, symSize: 0x78 }
  - { offset: 0x75783, size: 0x8, addend: 0x0, symName: __ZNSt3__16chrono10time_pointINS0_12steady_clockENS0_8durationIxNS_5ratioILl1ELl1000000000EEEEEEC1B9nqe220108Ev, symObjAddr: 0x5544, symBinAddr: 0x10002C650, symSize: 0x2C }
  - { offset: 0x757AD, size: 0x8, addend: 0x0, symName: __ZNSt3__16chrono10time_pointINS0_12steady_clockENS0_8durationIxNS_5ratioILl1ELl1000000000EEEEEEC2B9nqe220108Ev, symObjAddr: 0x5570, symBinAddr: 0x10002C67C, symSize: 0x34 }
  - { offset: 0x757D7, size: 0x8, addend: 0x0, symName: __ZNSt3__16chrono8durationIxNS_5ratioILl1ELl1000000000EEEE4zeroB9nqe220108Ev, symObjAddr: 0x55A4, symBinAddr: 0x10002C6B0, symSize: 0x38 }
  - { offset: 0x757EB, size: 0x8, addend: 0x0, symName: __ZNSt3__16chrono15duration_valuesIxE4zeroB9nqe220108Ev, symObjAddr: 0x55DC, symBinAddr: 0x10002C6E8, symSize: 0x8 }
  - { offset: 0x75805, size: 0x8, addend: 0x0, symName: __ZNSt3__16chrono8durationIxNS_5ratioILl1ELl1000000000EEEEC1B9nqe220108IxTnNS_9enable_ifIXaasr14is_convertibleIRKT_xEE5valueooL_ZNS_17integral_constantIbLb0EE5valueEEntsr23treat_as_floating_pointIS7_EE5valueEiE4typeELi0EEES9_, symObjAddr: 0x55E4, symBinAddr: 0x10002C6F0, symSize: 0x34 }
  - { offset: 0x7584C, size: 0x8, addend: 0x0, symName: __ZNSt3__16chrono8durationIxNS_5ratioILl1ELl1000000000EEEEC2B9nqe220108IxTnNS_9enable_ifIXaasr14is_convertibleIRKT_xEE5valueooL_ZNS_17integral_constantIbLb0EE5valueEEntsr23treat_as_floating_pointIS7_EE5valueEiE4typeELi0EEES9_, symObjAddr: 0x5618, symBinAddr: 0x10002C724, symSize: 0x24 }
  - { offset: 0x75893, size: 0x8, addend: 0x0, symName: __ZNSt3__110unique_ptrINS_11__tree_nodeINS_12__value_typeINS_12basic_stringIcNS_11char_traitsIcEENS_9allocatorIcEEEENS_6chrono10time_pointINS9_12steady_clockENS9_8durationIxNS_5ratioILl1ELl1000000000EEEEEEEEEPvEENS_22__tree_node_destructorINS6_ISJ_EEEEED2B9nqe220108Ev, symObjAddr: 0x5B3C, symBinAddr: 0x10002C748, symSize: 0x30 }
  - { offset: 0x758C1, size: 0x8, addend: 0x0, symName: __ZNSt3__110unique_ptrINS_11__tree_nodeINS_12__value_typeINS_12basic_stringIcNS_11char_traitsIcEENS_9allocatorIcEEEENS_6chrono10time_pointINS9_12steady_clockENS9_8durationIxNS_5ratioILl1ELl1000000000EEEEEEEEEPvEENS_22__tree_node_destructorINS6_ISJ_EEEEE5resetB9nqe220108EPSJ_, symObjAddr: 0x5B6C, symBinAddr: 0x10002C778, symSize: 0x58 }
  - { offset: 0x75905, size: 0x8, addend: 0x0, symName: __ZNSt3__122__tree_node_destructorINS_9allocatorINS_11__tree_nodeINS_12__value_typeINS_12basic_stringIcNS_11char_traitsIcEENS1_IcEEEENS_6chrono10time_pointINS9_12steady_clockENS9_8durationIxNS_5ratioILl1ELl1000000000EEEEEEEEEPvEEEEEclB9nqe220108EPSJ_, symObjAddr: 0x5BC4, symBinAddr: 0x10002C7D0, symSize: 0x84 }
  - { offset: 0x7593A, size: 0x8, addend: 0x0, symName: __ZNSt3__115__tree_iteratorINS_12__value_typeINS_12basic_stringIcNS_11char_traitsIcEENS_9allocatorIcEEEENS_6chrono10time_pointINS8_12steady_clockENS8_8durationIxNS_5ratioILl1ELl1000000000EEEEEEEEEPNS_11__tree_nodeISG_PvEElEC2B9nqe220108ESK_, symObjAddr: 0x5C48, symBinAddr: 0x10002C854, symSize: 0x20 }
  - { offset: 0x75973, size: 0x8, addend: 0x0, symName: __ZNSt3__14pairINS_15__tree_iteratorINS_12__value_typeINS_12basic_stringIcNS_11char_traitsIcEENS_9allocatorIcEEEENS_6chrono10time_pointINS9_12steady_clockENS9_8durationIxNS_5ratioILl1ELl1000000000EEEEEEEEEPNS_11__tree_nodeISH_PvEElEEbEC2B9nqe220108ISM_RbTnNS_9enable_ifIXclsr25__check_pair_constructionISM_bEE23__is_pair_constructibleIT_T0_EEEiE4typeELi0EEEOSR_OSS_, symObjAddr: 0x5C68, symBinAddr: 0x10002C874, symSize: 0x38 }
  - { offset: 0x759D1, size: 0x8, addend: 0x0, symName: __ZNSt3__114pointer_traitsIPNS_4pairIKNS_12basic_stringIcNS_11char_traitsIcEENS_9allocatorIcEEEENS_6chrono10time_pointINS9_12steady_clockENS9_8durationIxNS_5ratioILl1ELl1000000000EEEEEEEEEE10pointer_toB9nqe220108ERSH_, symObjAddr: 0x5DB0, symBinAddr: 0x10002C8AC, symSize: 0x14 }
  - { offset: 0x759F4, size: 0x8, addend: 0x0, symName: __ZNKSt3__115__tree_iteratorINS_12__value_typeINS_12basic_stringIcNS_11char_traitsIcEENS_9allocatorIcEEEENS_6chrono10time_pointINS8_12steady_clockENS8_8durationIxNS_5ratioILl1ELl1000000000EEEEEEEEEPNS_11__tree_nodeISG_PvEElE8__get_npB9nqe220108Ev, symObjAddr: 0x5DC4, symBinAddr: 0x10002C8C0, symSize: 0x18 }
  - { offset: 0x75A1A, size: 0x8, addend: 0x0, symName: __ZN27Int4LlamaForCausalLM_outputD2Ev, symObjAddr: 0x5DDC, symBinAddr: 0x10002C8D8, symSize: 0x3C }
  - { offset: 0x75A4A, size: 0x8, addend: 0x0, symName: __ZNKSt3__16chrono8durationIxNS_5ratioILl1ELl1000000EEEE5countB9nqe220108Ev, symObjAddr: 0x5EA0, symBinAddr: 0x10002C99C, symSize: 0x18 }
  - { offset: 0x75A70, size: 0x8, addend: 0x0, symName: __ZNSt3__13mapINS_12basic_stringIcNS_11char_traitsIcEENS_9allocatorIcEEEExNS_4lessIS6_EENS4_INS_4pairIKS6_xEEEEEixERSA_, symObjAddr: 0x5EB8, symBinAddr: 0x10002C9B4, symSize: 0xB4 }
  - { offset: 0x75AA5, size: 0x8, addend: 0x0, symName: __ZNKSt3__16chrono8durationIxNS_5ratioILl1ELl1000000000EEEE5countB9nqe220108Ev, symObjAddr: 0x6064, symBinAddr: 0x10002CAAC, symSize: 0x18 }
  - { offset: 0x75ACB, size: 0x8, addend: 0x0, symName: __ZNSt3__16chrono8durationIxNS_5ratioILl1ELl1000000EEEEC1B9nqe220108IxTnNS_9enable_ifIXaasr14is_convertibleIRKT_xEE5valueooL_ZNS_17integral_constantIbLb0EE5valueEEntsr23treat_as_floating_pointIS7_EE5valueEiE4typeELi0EEES9_, symObjAddr: 0x607C, symBinAddr: 0x10002CAC4, symSize: 0x34 }
  - { offset: 0x75B12, size: 0x8, addend: 0x0, symName: __ZNSt3__16chrono8durationIxNS_5ratioILl1ELl1000000EEEEC2B9nqe220108IxTnNS_9enable_ifIXaasr14is_convertibleIRKT_xEE5valueooL_ZNS_17integral_constantIbLb0EE5valueEEntsr23treat_as_floating_pointIS7_EE5valueEiE4typeELi0EEES9_, symObjAddr: 0x60B0, symBinAddr: 0x10002CAF8, symSize: 0x24 }
  - { offset: 0x75B59, size: 0x8, addend: 0x0, symName: __ZNKSt3__16chrono10time_pointINS0_12steady_clockENS0_8durationIxNS_5ratioILl1ELl1000000000EEEEEE16time_since_epochB9nqe220108Ev, symObjAddr: 0x6140, symBinAddr: 0x10002CB88, symSize: 0x20 }
  - { offset: 0x75B9B, size: 0x8, addend: 0x0, symName: __ZNSt3__16__treeINS_12__value_typeINS_12basic_stringIcNS_11char_traitsIcEENS_9allocatorIcEEEExEENS_19__map_value_compareIS7_NS_4pairIKS7_xEENS_4lessIS7_EEEENS5_ISC_EEE16__emplace_uniqueB9nqe220108IJRKNS_21piecewise_construct_tENS_5tupleIJRSB_EEENSM_IJEEEEEENSA_INS_15__tree_iteratorIS8_PNS_11__tree_nodeIS8_PvEElEEbEEDpOT_, symObjAddr: 0x6160, symBinAddr: 0x10002CBA8, symSize: 0xAC }
  - { offset: 0x75C76, size: 0x8, addend: 0x0, symName: __ZNKSt3__115__tree_iteratorINS_12__value_typeINS_12basic_stringIcNS_11char_traitsIcEENS_9allocatorIcEEEExEEPNS_11__tree_nodeIS8_PvEElEptB9nqe220108Ev, symObjAddr: 0x620C, symBinAddr: 0x10002CC54, symSize: 0x2C }
  - { offset: 0x75CB1, size: 0x8, addend: 0x0, symName: __ZZNSt3__16__treeINS_12__value_typeINS_12basic_stringIcNS_11char_traitsIcEENS_9allocatorIcEEEExEENS_19__map_value_compareIS7_NS_4pairIKS7_xEENS_4lessIS7_EEEENS5_ISC_EEE16__emplace_uniqueB9nqe220108IJRKNS_21piecewise_construct_tENS_5tupleIJRSB_EEENSM_IJEEEEEENSA_INS_15__tree_iteratorIS8_PNS_11__tree_nodeIS8_PvEElEEbEEDpOT_ENKUlSN_SL_OSO_OSP_E_clESN_SL_S10_S11_, symObjAddr: 0x63A0, symBinAddr: 0x10002CDE8, symSize: 0x124 }
  - { offset: 0x75D6D, size: 0x8, addend: 0x0, symName: __ZNSt3__16__treeINS_12__value_typeINS_12basic_stringIcNS_11char_traitsIcEENS_9allocatorIcEEEExEENS_19__map_value_compareIS7_NS_4pairIKS7_xEENS_4lessIS7_EEEENS5_ISC_EEE12__find_equalB9nqe220108IS7_EENSA_IPNS_15__tree_end_nodeIPNS_16__tree_node_baseIPvEEEERSN_EERKT_, symObjAddr: 0x64C4, symBinAddr: 0x10002CF0C, symSize: 0x190 }
  - { offset: 0x75E22, size: 0x8, addend: 0x0, symName: __ZNSt3__16__treeINS_12__value_typeINS_12basic_stringIcNS_11char_traitsIcEENS_9allocatorIcEEEExEENS_19__map_value_compareIS7_NS_4pairIKS7_xEENS_4lessIS7_EEEENS5_ISC_EEE16__construct_nodeIJRKNS_21piecewise_construct_tENS_5tupleIJRSB_EEENSM_IJEEEEEENS_10unique_ptrINS_11__tree_nodeIS8_PvEENS_22__tree_node_destructorINS5_IST_EEEEEEDpOT_, symObjAddr: 0x6654, symBinAddr: 0x10002D09C, symSize: 0x104 }
  - { offset: 0x75EA9, size: 0x8, addend: 0x0, symName: __ZNSt3__16__treeINS_12__value_typeINS_12basic_stringIcNS_11char_traitsIcEENS_9allocatorIcEEEExEENS_19__map_value_compareIS7_NS_4pairIKS7_xEENS_4lessIS7_EEEENS5_ISC_EEE16__insert_node_atEPNS_15__tree_end_nodeIPNS_16__tree_node_baseIPvEEEERSM_SM_, symObjAddr: 0x6758, symBinAddr: 0x10002D1A0, symSize: 0xA4 }
  - { offset: 0x75EFC, size: 0x8, addend: 0x0, symName: __ZNKSt3__110unique_ptrINS_11__tree_nodeINS_12__value_typeINS_12basic_stringIcNS_11char_traitsIcEENS_9allocatorIcEEEExEEPvEENS_22__tree_node_destructorINS6_ISB_EEEEE3getB9nqe220108Ev, symObjAddr: 0x67FC, symBinAddr: 0x10002D244, symSize: 0x18 }
  - { offset: 0x75F22, size: 0x8, addend: 0x0, symName: __ZNSt3__110unique_ptrINS_11__tree_nodeINS_12__value_typeINS_12basic_stringIcNS_11char_traitsIcEENS_9allocatorIcEEEExEEPvEENS_22__tree_node_destructorINS6_ISB_EEEEE7releaseB9nqe220108Ev, symObjAddr: 0x6814, symBinAddr: 0x10002D25C, symSize: 0x24 }
  - { offset: 0x75F57, size: 0x8, addend: 0x0, symName: __ZNSt3__110unique_ptrINS_11__tree_nodeINS_12__value_typeINS_12basic_stringIcNS_11char_traitsIcEENS_9allocatorIcEEEExEEPvEENS_22__tree_node_destructorINS6_ISB_EEEEED1B9nqe220108Ev, symObjAddr: 0x6838, symBinAddr: 0x10002D280, symSize: 0x2C }
  - { offset: 0x75F85, size: 0x8, addend: 0x0, symName: __ZNSt3__115__tree_iteratorINS_12__value_typeINS_12basic_stringIcNS_11char_traitsIcEENS_9allocatorIcEEEExEEPNS_11__tree_nodeIS8_PvEElEC1B9nqe220108ESC_, symObjAddr: 0x6864, symBinAddr: 0x10002D2AC, symSize: 0x34 }
  - { offset: 0x75FC4, size: 0x8, addend: 0x0, symName: __ZNSt3__14pairINS_15__tree_iteratorINS_12__value_typeINS_12basic_stringIcNS_11char_traitsIcEENS_9allocatorIcEEEExEEPNS_11__tree_nodeIS9_PvEElEEbEC1B9nqe220108ISE_RbTnNS_9enable_ifIXclsr25__check_pair_constructionISE_bEE23__is_pair_constructibleIT_T0_EEEiE4typeELi0EEEOSJ_OSK_, symObjAddr: 0x6898, symBinAddr: 0x10002D2E0, symSize: 0x3C }
  - { offset: 0x76022, size: 0x8, addend: 0x0, symName: __ZNKSt3__16__treeINS_12__value_typeINS_12basic_stringIcNS_11char_traitsIcEENS_9allocatorIcEEEExEENS_19__map_value_compareIS7_NS_4pairIKS7_xEENS_4lessIS7_EEEENS5_ISC_EEE10__root_ptrB9nqe220108Ev, symObjAddr: 0x68D4, symBinAddr: 0x10002D31C, symSize: 0x24 }
  - { offset: 0x76048, size: 0x8, addend: 0x0, symName: __ZNSt3__16__treeINS_12__value_typeINS_12basic_stringIcNS_11char_traitsIcEENS_9allocatorIcEEEExEENS_19__map_value_compareIS7_NS_4pairIKS7_xEENS_4lessIS7_EEEENS5_ISC_EEE10value_compB9nqe220108Ev, symObjAddr: 0x690C, symBinAddr: 0x10002D354, symSize: 0x18 }
  - { offset: 0x7606E, size: 0x8, addend: 0x0, symName: __ZNSt3__133__lazy_synth_three_way_comparatorINS_19__map_value_compareINS_12basic_stringIcNS_11char_traitsIcEENS_9allocatorIcEEEENS_4pairIKS7_xEENS_4lessIS7_EEEES7_SA_vEC1B9nqe220108ERKSD_, symObjAddr: 0x6924, symBinAddr: 0x10002D36C, symSize: 0x34 }
  - { offset: 0x760A6, size: 0x8, addend: 0x0, symName: __ZNKSt3__133__lazy_synth_three_way_comparatorINS_19__map_value_compareINS_12basic_stringIcNS_11char_traitsIcEENS_9allocatorIcEEEENS_4pairIKS7_xEENS_4lessIS7_EEEES7_SA_vEclB9nqe220108ERS9_RKSA_, symObjAddr: 0x6958, symBinAddr: 0x10002D3A0, symSize: 0x44 }
  - { offset: 0x760E8, size: 0x8, addend: 0x0, symName: __ZNKSt3__121__lazy_compare_resultINS_19__map_value_compareINS_12basic_stringIcNS_11char_traitsIcEENS_9allocatorIcEEEENS_4pairIKS7_xEENS_4lessIS7_EEEES7_SA_E6__lessB9nqe220108Ev, symObjAddr: 0x699C, symBinAddr: 0x10002D3E4, symSize: 0x3C }
  - { offset: 0x7611C, size: 0x8, addend: 0x0, symName: __ZNKSt3__121__lazy_compare_resultINS_19__map_value_compareINS_12basic_stringIcNS_11char_traitsIcEENS_9allocatorIcEEEENS_4pairIKS7_xEENS_4lessIS7_EEEES7_SA_E9__greaterB9nqe220108Ev, symObjAddr: 0x69D8, symBinAddr: 0x10002D420, symSize: 0x3C }
  - { offset: 0x76150, size: 0x8, addend: 0x0, symName: __ZNSt3__133__lazy_synth_three_way_comparatorINS_19__map_value_compareINS_12basic_stringIcNS_11char_traitsIcEENS_9allocatorIcEEEENS_4pairIKS7_xEENS_4lessIS7_EEEES7_SA_vEC2B9nqe220108ERKSD_, symObjAddr: 0x6A14, symBinAddr: 0x10002D45C, symSize: 0x20 }
  - { offset: 0x76188, size: 0x8, addend: 0x0, symName: __ZNSt3__121__lazy_compare_resultINS_19__map_value_compareINS_12basic_stringIcNS_11char_traitsIcEENS_9allocatorIcEEEENS_4pairIKS7_xEENS_4lessIS7_EEEES7_SA_EC1B9nqe220108ERKSD_RS9_RKSA_, symObjAddr: 0x6A34, symBinAddr: 0x10002D47C, symSize: 0x44 }
  - { offset: 0x761DC, size: 0x8, addend: 0x0, symName: __ZNSt3__121__lazy_compare_resultINS_19__map_value_compareINS_12basic_stringIcNS_11char_traitsIcEENS_9allocatorIcEEEENS_4pairIKS7_xEENS_4lessIS7_EEEES7_SA_EC2B9nqe220108ERKSD_RS9_RKSA_, symObjAddr: 0x6A78, symBinAddr: 0x10002D4C0, symSize: 0x38 }
  - { offset: 0x76230, size: 0x8, addend: 0x0, symName: __ZNKSt3__119__map_value_compareINS_12basic_stringIcNS_11char_traitsIcEENS_9allocatorIcEEEENS_4pairIKS6_xEENS_4lessIS6_EEEclB9nqe220108ERS8_RKS9_, symObjAddr: 0x6AB0, symBinAddr: 0x10002D4F8, symSize: 0x34 }
  - { offset: 0x76274, size: 0x8, addend: 0x0, symName: __ZNKSt3__119__map_value_compareINS_12basic_stringIcNS_11char_traitsIcEENS_9allocatorIcEEEENS_4pairIKS6_xEENS_4lessIS6_EEEclB9nqe220108ERKS9_RS8_, symObjAddr: 0x6AE4, symBinAddr: 0x10002D52C, symSize: 0x34 }
  - { offset: 0x762B8, size: 0x8, addend: 0x0, symName: __ZNSt3__16__treeINS_12__value_typeINS_12basic_stringIcNS_11char_traitsIcEENS_9allocatorIcEEEExEENS_19__map_value_compareIS7_NS_4pairIKS7_xEENS_4lessIS7_EEEENS5_ISC_EEE12__node_allocB9nqe220108Ev, symObjAddr: 0x6B18, symBinAddr: 0x10002D560, symSize: 0x18 }
  - { offset: 0x762DE, size: 0x8, addend: 0x0, symName: __ZNSt3__116allocator_traitsINS_9allocatorINS_11__tree_nodeINS_12__value_typeINS_12basic_stringIcNS_11char_traitsIcEENS1_IcEEEExEEPvEEEEE8allocateB9nqe220108ERSC_m, symObjAddr: 0x6B30, symBinAddr: 0x10002D578, symSize: 0x2C }
  - { offset: 0x76311, size: 0x8, addend: 0x0, symName: __ZNSt3__122__tree_node_destructorINS_9allocatorINS_11__tree_nodeINS_12__value_typeINS_12basic_stringIcNS_11char_traitsIcEENS1_IcEEEExEEPvEEEEEC1B9nqe220108ERSC_b, symObjAddr: 0x6B5C, symBinAddr: 0x10002D5A4, symSize: 0x40 }
  - { offset: 0x7635F, size: 0x8, addend: 0x0, symName: __ZNSt3__110unique_ptrINS_11__tree_nodeINS_12__value_typeINS_12basic_stringIcNS_11char_traitsIcEENS_9allocatorIcEEEExEEPvEENS_22__tree_node_destructorINS6_ISB_EEEEEC1B9nqe220108ILb1EvEEPSB_NS_16__dependent_typeINS_27__unique_ptr_deleter_sfinaeISE_EEXT_EE20__good_rval_ref_typeE, symObjAddr: 0x6B9C, symBinAddr: 0x10002D5E4, symSize: 0x3C }
  - { offset: 0x763B0, size: 0x8, addend: 0x0, symName: __ZNKSt3__110unique_ptrINS_11__tree_nodeINS_12__value_typeINS_12basic_stringIcNS_11char_traitsIcEENS_9allocatorIcEEEExEEPvEENS_22__tree_node_destructorINS6_ISB_EEEEEdeB9nqe220108Ev, symObjAddr: 0x6C24, symBinAddr: 0x10002D66C, symSize: 0x18 }
  - { offset: 0x763D6, size: 0x8, addend: 0x0, symName: __ZNSt3__110unique_ptrINS_11__tree_nodeINS_12__value_typeINS_12basic_stringIcNS_11char_traitsIcEENS_9allocatorIcEEEExEEPvEENS_22__tree_node_destructorINS6_ISB_EEEEE11get_deleterB9nqe220108Ev, symObjAddr: 0x6C3C, symBinAddr: 0x10002D684, symSize: 0x18 }
  - { offset: 0x763FC, size: 0x8, addend: 0x0, symName: __ZNSt3__19allocatorINS_11__tree_nodeINS_12__value_typeINS_12basic_stringIcNS_11char_traitsIcEENS0_IcEEEExEEPvEEE8allocateB9nqe220108Em, symObjAddr: 0x6C54, symBinAddr: 0x10002D69C, symSize: 0x50 }
  - { offset: 0x7643B, size: 0x8, addend: 0x0, symName: __ZNSt3__116allocator_traitsINS_9allocatorINS_11__tree_nodeINS_12__value_typeINS_12basic_stringIcNS_11char_traitsIcEENS1_IcEEEExEEPvEEEEE8max_sizeB9nqe220108ISC_TnNS_9enable_ifIX16__has_max_size_vIKT_EEiE4typeELi0EEEmRKSC_, symObjAddr: 0x6CA4, symBinAddr: 0x10002D6EC, symSize: 0x24 }
  - { offset: 0x7646E, size: 0x8, addend: 0x0, symName: __ZNKSt3__19allocatorINS_11__tree_nodeINS_12__value_typeINS_12basic_stringIcNS_11char_traitsIcEENS0_IcEEEExEEPvEEE8max_sizeB9nqe220108Ev, symObjAddr: 0x6CFC, symBinAddr: 0x10002D744, symSize: 0x14 }
  - { offset: 0x76494, size: 0x8, addend: 0x0, symName: __ZNSt3__122__tree_node_destructorINS_9allocatorINS_11__tree_nodeINS_12__value_typeINS_12basic_stringIcNS_11char_traitsIcEENS1_IcEEEExEEPvEEEEEC2B9nqe220108ERSC_b, symObjAddr: 0x6D10, symBinAddr: 0x10002D758, symSize: 0x30 }
  - { offset: 0x764DC, size: 0x8, addend: 0x0, symName: __ZNSt3__110unique_ptrINS_11__tree_nodeINS_12__value_typeINS_12basic_stringIcNS_11char_traitsIcEENS_9allocatorIcEEEExEEPvEENS_22__tree_node_destructorINS6_ISB_EEEEEC2B9nqe220108ILb1EvEEPSB_NS_16__dependent_typeINS_27__unique_ptr_deleter_sfinaeISE_EEXT_EE20__good_rval_ref_typeE, symObjAddr: 0x6D40, symBinAddr: 0x10002D788, symSize: 0x4C }
  - { offset: 0x76532, size: 0x8, addend: 0x0, symName: __ZNSt3__125__compressed_pair_paddingINS_22__tree_node_destructorINS_9allocatorINS_11__tree_nodeINS_12__value_typeINS_12basic_stringIcNS_11char_traitsIcEENS2_IcEEEExEEPvEEEEEELb0EEC1Ev, symObjAddr: 0x6D8C, symBinAddr: 0x10002D7D4, symSize: 0x2C }
  - { offset: 0x7655E, size: 0x8, addend: 0x0, symName: __ZNSt3__125__compressed_pair_paddingINS_22__tree_node_destructorINS_9allocatorINS_11__tree_nodeINS_12__value_typeINS_12basic_stringIcNS_11char_traitsIcEENS2_IcEEEExEEPvEEEEEELb0EEC2Ev, symObjAddr: 0x6DB8, symBinAddr: 0x10002D800, symSize: 0x4C }
  - { offset: 0x76590, size: 0x8, addend: 0x0, symName: __ZNSt3__111__tree_nodeINS_12__value_typeINS_12basic_stringIcNS_11char_traitsIcEENS_9allocatorIcEEEExEEPvEC1B9nqe220108INS5_ISA_EEJRKNS_21piecewise_construct_tENS_5tupleIJRKS7_EEENSG_IJEEEEEERT_DpOT0_, symObjAddr: 0x6E04, symBinAddr: 0x10002D84C, symSize: 0x4C }
  - { offset: 0x76614, size: 0x8, addend: 0x0, symName: __ZNSt3__111__tree_nodeINS_12__value_typeINS_12basic_stringIcNS_11char_traitsIcEENS_9allocatorIcEEEExEEPvEC2B9nqe220108INS5_ISA_EEJRKNS_21piecewise_construct_tENS_5tupleIJRKS7_EEENSG_IJEEEEEERT_DpOT0_, symObjAddr: 0x6E50, symBinAddr: 0x10002D898, symSize: 0x64 }
  - { offset: 0x76698, size: 0x8, addend: 0x0, symName: __ZNSt3__116allocator_traitsINS_9allocatorINS_11__tree_nodeINS_12__value_typeINS_12basic_stringIcNS_11char_traitsIcEENS1_IcEEEExEEPvEEEEE9constructB9nqe220108INS_4pairIKS8_xEEJRKNS_21piecewise_construct_tENS_5tupleIJRSG_EEENSL_IJEEEETnNS_9enable_ifIX17__has_construct_vISC_PT_DpT0_EEiE4typeELi0EEEvRSC_SR_DpOSS_, symObjAddr: 0x6EB4, symBinAddr: 0x10002D8FC, symSize: 0x44 }
  - { offset: 0x7671C, size: 0x8, addend: 0x0, symName: __ZNSt3__19allocatorINS_11__tree_nodeINS_12__value_typeINS_12basic_stringIcNS_11char_traitsIcEENS0_IcEEEExEEPvEEE9constructB9nqe220108INS_4pairIKS7_xEEJRKNS_21piecewise_construct_tENS_5tupleIJRSE_EEENSJ_IJEEEEEEvPT_DpOT0_, symObjAddr: 0x6EF8, symBinAddr: 0x10002D940, symSize: 0x44 }
  - { offset: 0x76798, size: 0x8, addend: 0x0, symName: __ZNSt3__14pairIKNS_12basic_stringIcNS_11char_traitsIcEENS_9allocatorIcEEEExEC1B9nqe220108IJRS7_EJEEENS_21piecewise_construct_tENS_5tupleIJDpT_EEENSC_IJDpT0_EEE, symObjAddr: 0x6F3C, symBinAddr: 0x10002D984, symSize: 0x3C }
  - { offset: 0x767FC, size: 0x8, addend: 0x0, symName: __ZNSt3__14pairIKNS_12basic_stringIcNS_11char_traitsIcEENS_9allocatorIcEEEExEC1B9nqe220108IJRS7_EJEJLm0EETpTnmJEEENS_21piecewise_construct_tERNS_5tupleIJDpT_EEERNSC_IJDpT0_EEENS_18__integer_sequenceImJXspT1_EEEENSL_ImJXspT2_EEEE, symObjAddr: 0x6F78, symBinAddr: 0x10002D9C0, symSize: 0x3C }
  - { offset: 0x76886, size: 0x8, addend: 0x0, symName: __ZNSt3__14pairIKNS_12basic_stringIcNS_11char_traitsIcEENS_9allocatorIcEEEExEC2B9nqe220108IJRS7_EJEJLm0EETpTnmJEEENS_21piecewise_construct_tERNS_5tupleIJDpT_EEERNSC_IJDpT0_EEENS_18__integer_sequenceImJXspT1_EEEENSL_ImJXspT2_EEEE, symObjAddr: 0x6FB4, symBinAddr: 0x10002D9FC, symSize: 0x48 }
  - { offset: 0x76910, size: 0x8, addend: 0x0, symName: __ZNSt3__110unique_ptrINS_11__tree_nodeINS_12__value_typeINS_12basic_stringIcNS_11char_traitsIcEENS_9allocatorIcEEEExEEPvEENS_22__tree_node_destructorINS6_ISB_EEEEED2B9nqe220108Ev, symObjAddr: 0x6FFC, symBinAddr: 0x10002DA44, symSize: 0x30 }
  - { offset: 0x7693E, size: 0x8, addend: 0x0, symName: __ZNSt3__110unique_ptrINS_11__tree_nodeINS_12__value_typeINS_12basic_stringIcNS_11char_traitsIcEENS_9allocatorIcEEEExEEPvEENS_22__tree_node_destructorINS6_ISB_EEEEE5resetB9nqe220108EPSB_, symObjAddr: 0x702C, symBinAddr: 0x10002DA74, symSize: 0x58 }
  - { offset: 0x76982, size: 0x8, addend: 0x0, symName: __ZNSt3__122__tree_node_destructorINS_9allocatorINS_11__tree_nodeINS_12__value_typeINS_12basic_stringIcNS_11char_traitsIcEENS1_IcEEEExEEPvEEEEEclB9nqe220108EPSB_, symObjAddr: 0x7084, symBinAddr: 0x10002DACC, symSize: 0x84 }
  - { offset: 0x769B7, size: 0x8, addend: 0x0, symName: __ZNSt3__115__tree_iteratorINS_12__value_typeINS_12basic_stringIcNS_11char_traitsIcEENS_9allocatorIcEEEExEEPNS_11__tree_nodeIS8_PvEElEC2B9nqe220108ESC_, symObjAddr: 0x7108, symBinAddr: 0x10002DB50, symSize: 0x20 }
